ARM GAS  /tmp/cccCAPpj.s 			page 1


   1              		.syntax unified
   2              		.cpu cortex-m4
   3              		.fpu softvfp
   4              		.eabi_attribute 20, 1	@ Tag_ABI_FP_denormal
   5              		.eabi_attribute 21, 1	@ Tag_ABI_FP_exceptions
   6              		.eabi_attribute 23, 3	@ Tag_ABI_FP_number_model
   7              		.eabi_attribute 24, 1	@ Tag_ABI_align8_needed
   8              		.eabi_attribute 25, 1	@ Tag_ABI_align8_preserved
   9              		.eabi_attribute 26, 1	@ Tag_ABI_enum_size
  10              		.eabi_attribute 30, 4	@ Tag_ABI_optimization_goals
  11              		.eabi_attribute 34, 1	@ Tag_CPU_unaligned_access
  12              		.eabi_attribute 18, 4	@ Tag_ABI_PCS_wchar_t
  13              		.file	"stm32f4xx_gpio.c"
  14              	@ GNU C (GNU Tools for ARM Embedded Processors) version 4.7.3 20121207 (release) [ARM/embedded-4_7-
  15              	@	compiled by GNU C version 4.3.6, GMP version 4.3.2, MPFR version 2.4.2, MPC version 0.8.1
  16              	@ GGC heuristics: --param ggc-min-expand=100 --param ggc-min-heapsize=131072
  17              	@ options passed:  -I .
  18              	@ -I ../../STM32F4-Discovery_FW_V1.1.0/Libraries/CMSIS/ST/STM32F4xx/Include
  19              	@ -I ../../STM32F4-Discovery_FW_V1.1.0/Libraries/CMSIS/Include
  20              	@ -I ../../STM32F4-Discovery_FW_V1.1.0/Libraries/STM32F4xx_StdPeriph_Driver/inc
  21              	@ -I ../../STM32F4-Discovery_FW_V1.1.0/Utilities/STM32F4-Discovery -I ./inc
  22              	@ -imultilib armv7e-m
  23              	@ -iprefix /home/jarhmander/Code/CC/ARM/gcc/gcc-arm-none-eabi-4_7-2012q4/bin/../lib/gcc/arm-none-ea
  24              	@ -isysroot /home/jarhmander/Code/CC/ARM/gcc/gcc-arm-none-eabi-4_7-2012q4/bin/../arm-none-eabi
  25              	@ -MD ../../STM32F4-Discovery_FW_V1.1.0/Libraries/STM32F4xx_StdPeriph_Driver/src/stm32f4xx_gpio.d
  26              	@ -MF .dep/stm32f4xx_gpio.o.d -MP
  27              	@ -MQ ../../STM32F4-Discovery_FW_V1.1.0/Libraries/STM32F4xx_StdPeriph_Driver/src/stm32f4xx_gpio.o
  28              	@ -D__USES_INITFINI__ -D STM32F4XX -D USE_STDPERIPH_DRIVER
  29              	@ -D RUN_FROM_FLASH=1
  30              	@ ../../STM32F4-Discovery_FW_V1.1.0/Libraries/STM32F4xx_StdPeriph_Driver/src/stm32f4xx_gpio.c
  31              	@ -mcpu=cortex-m4 -mthumb
  32              	@ -auxbase-strip ../../STM32F4-Discovery_FW_V1.1.0/Libraries/STM32F4xx_StdPeriph_Driver/src/stm32f4
  33              	@ -gdwarf-2 -Os -Wall -Wstrict-prototypes -fomit-frame-pointer
  34              	@ -fverbose-asm
  35              	@ options enabled:  -fauto-inc-dec -fbranch-count-reg -fcaller-saves
  36              	@ -fcombine-stack-adjustments -fcommon -fcompare-elim -fcprop-registers
  37              	@ -fcrossjumping -fcse-follow-jumps -fdebug-types-section -fdefer-pop
  38              	@ -fdelete-null-pointer-checks -fdevirtualize -fdwarf2-cfi-asm
  39              	@ -fearly-inlining -feliminate-unused-debug-types -fexpensive-optimizations
  40              	@ -fforward-propagate -ffunction-cse -fgcse -fgcse-lm -fgnu-runtime
  41              	@ -fguess-branch-probability -fident -fif-conversion -fif-conversion2
  42              	@ -findirect-inlining -finline -finline-atomics -finline-functions
  43              	@ -finline-functions-called-once -finline-small-functions -fipa-cp
  44              	@ -fipa-profile -fipa-pure-const -fipa-reference -fipa-sra
  45              	@ -fira-share-save-slots -fira-share-spill-slots -fivopts
  46              	@ -fkeep-static-consts -fleading-underscore -fmath-errno -fmerge-constants
  47              	@ -fmerge-debug-strings -fomit-frame-pointer -foptimize-register-move
  48              	@ -foptimize-sibling-calls -fpartial-inlining -fpeephole -fpeephole2
  49              	@ -fprefetch-loop-arrays -freg-struct-return -fregmove -frename-registers
  50              	@ -freorder-blocks -freorder-functions -frerun-cse-after-loop
  51              	@ -fsched-critical-path-heuristic -fsched-dep-count-heuristic
  52              	@ -fsched-group-heuristic -fsched-interblock -fsched-last-insn-heuristic
  53              	@ -fsched-rank-heuristic -fsched-spec -fsched-spec-insn-heuristic
  54              	@ -fsched-stalled-insns-dep -fschedule-insns2 -fsection-anchors
  55              	@ -fshow-column -fshrink-wrap -fsigned-zeros -fsplit-ivs-in-unroller
  56              	@ -fsplit-wide-types -fstrict-aliasing -fstrict-overflow
  57              	@ -fstrict-volatile-bitfields -fthread-jumps -ftoplevel-reorder
ARM GAS  /tmp/cccCAPpj.s 			page 2


  58              	@ -ftrapping-math -ftree-bit-ccp -ftree-builtin-call-dce -ftree-ccp
  59              	@ -ftree-ch -ftree-copy-prop -ftree-copyrename -ftree-cselim -ftree-dce
  60              	@ -ftree-dominator-opts -ftree-dse -ftree-forwprop -ftree-fre
  61              	@ -ftree-loop-if-convert -ftree-loop-im -ftree-loop-ivcanon
  62              	@ -ftree-loop-optimize -ftree-parallelize-loops= -ftree-phiprop -ftree-pre
  63              	@ -ftree-pta -ftree-reassoc -ftree-scev-cprop -ftree-sink
  64              	@ -ftree-slp-vectorize -ftree-sra -ftree-switch-conversion
  65              	@ -ftree-tail-merge -ftree-ter -ftree-vect-loop-version -ftree-vrp
  66              	@ -funit-at-a-time -funroll-loops -fvar-tracking -fvar-tracking-assignments
  67              	@ -fverbose-asm -fweb -fzero-initialized-in-bss -mlittle-endian
  68              	@ -msched-prolog -mthumb -munaligned-access -mvectorize-with-neon-quad
  69              	
  70              		.text
  71              	.Ltext0:
  72              		.cfi_sections	.debug_frame
  73              		.align	1
  74              		.global	GPIO_DeInit
  75              		.thumb
  76              		.thumb_func
  77              		.type	GPIO_DeInit, %function
  78              	GPIO_DeInit:
  79              	.LFB110:
  80              		.file 1 "../../STM32F4-Discovery_FW_V1.1.0/Libraries/STM32F4xx_StdPeriph_Driver/src/stm32f4xx_gpio
   1:../../STM32F4-Discovery_FW_V1.1.0/Libraries/STM32F4xx_StdPeriph_Driver/src/stm32f4xx_gpio.c **** /**
   2:../../STM32F4-Discovery_FW_V1.1.0/Libraries/STM32F4xx_StdPeriph_Driver/src/stm32f4xx_gpio.c ****   ******************************************************************************
   3:../../STM32F4-Discovery_FW_V1.1.0/Libraries/STM32F4xx_StdPeriph_Driver/src/stm32f4xx_gpio.c ****   * @file    stm32f4xx_gpio.c
   4:../../STM32F4-Discovery_FW_V1.1.0/Libraries/STM32F4xx_StdPeriph_Driver/src/stm32f4xx_gpio.c ****   * @author  MCD Application Team
   5:../../STM32F4-Discovery_FW_V1.1.0/Libraries/STM32F4xx_StdPeriph_Driver/src/stm32f4xx_gpio.c ****   * @version V1.0.0
   6:../../STM32F4-Discovery_FW_V1.1.0/Libraries/STM32F4xx_StdPeriph_Driver/src/stm32f4xx_gpio.c ****   * @date    30-September-2011
   7:../../STM32F4-Discovery_FW_V1.1.0/Libraries/STM32F4xx_StdPeriph_Driver/src/stm32f4xx_gpio.c ****   * @brief   This file provides firmware functions to manage the following 
   8:../../STM32F4-Discovery_FW_V1.1.0/Libraries/STM32F4xx_StdPeriph_Driver/src/stm32f4xx_gpio.c ****   *          functionalities of the GPIO peripheral:           
   9:../../STM32F4-Discovery_FW_V1.1.0/Libraries/STM32F4xx_StdPeriph_Driver/src/stm32f4xx_gpio.c ****   *           - Initialization and Configuration
  10:../../STM32F4-Discovery_FW_V1.1.0/Libraries/STM32F4xx_StdPeriph_Driver/src/stm32f4xx_gpio.c ****   *           - GPIO Read and Write
  11:../../STM32F4-Discovery_FW_V1.1.0/Libraries/STM32F4xx_StdPeriph_Driver/src/stm32f4xx_gpio.c ****   *           - GPIO Alternate functions configuration
  12:../../STM32F4-Discovery_FW_V1.1.0/Libraries/STM32F4xx_StdPeriph_Driver/src/stm32f4xx_gpio.c ****   * 
  13:../../STM32F4-Discovery_FW_V1.1.0/Libraries/STM32F4xx_StdPeriph_Driver/src/stm32f4xx_gpio.c ****   *  @verbatim
  14:../../STM32F4-Discovery_FW_V1.1.0/Libraries/STM32F4xx_StdPeriph_Driver/src/stm32f4xx_gpio.c ****   *
  15:../../STM32F4-Discovery_FW_V1.1.0/Libraries/STM32F4xx_StdPeriph_Driver/src/stm32f4xx_gpio.c ****   *          ===================================================================
  16:../../STM32F4-Discovery_FW_V1.1.0/Libraries/STM32F4xx_StdPeriph_Driver/src/stm32f4xx_gpio.c ****   *                                 How to use this driver
  17:../../STM32F4-Discovery_FW_V1.1.0/Libraries/STM32F4xx_StdPeriph_Driver/src/stm32f4xx_gpio.c ****   *          ===================================================================       
  18:../../STM32F4-Discovery_FW_V1.1.0/Libraries/STM32F4xx_StdPeriph_Driver/src/stm32f4xx_gpio.c ****   *           1. Enable the GPIO AHB clock using the following function
  19:../../STM32F4-Discovery_FW_V1.1.0/Libraries/STM32F4xx_StdPeriph_Driver/src/stm32f4xx_gpio.c ****   *                RCC_AHB1PeriphClockCmd(RCC_AHB1Periph_GPIOx, ENABLE);
  20:../../STM32F4-Discovery_FW_V1.1.0/Libraries/STM32F4xx_StdPeriph_Driver/src/stm32f4xx_gpio.c ****   *             
  21:../../STM32F4-Discovery_FW_V1.1.0/Libraries/STM32F4xx_StdPeriph_Driver/src/stm32f4xx_gpio.c ****   *           2. Configure the GPIO pin(s) using GPIO_Init()
  22:../../STM32F4-Discovery_FW_V1.1.0/Libraries/STM32F4xx_StdPeriph_Driver/src/stm32f4xx_gpio.c ****   *              Four possible configuration are available for each pin:
  23:../../STM32F4-Discovery_FW_V1.1.0/Libraries/STM32F4xx_StdPeriph_Driver/src/stm32f4xx_gpio.c ****   *                - Input: Floating, Pull-up, Pull-down.
  24:../../STM32F4-Discovery_FW_V1.1.0/Libraries/STM32F4xx_StdPeriph_Driver/src/stm32f4xx_gpio.c ****   *                - Output: Push-Pull (Pull-up, Pull-down or no Pull)
  25:../../STM32F4-Discovery_FW_V1.1.0/Libraries/STM32F4xx_StdPeriph_Driver/src/stm32f4xx_gpio.c ****   *                          Open Drain (Pull-up, Pull-down or no Pull).
  26:../../STM32F4-Discovery_FW_V1.1.0/Libraries/STM32F4xx_StdPeriph_Driver/src/stm32f4xx_gpio.c ****   *                  In output mode, the speed is configurable: 2 MHz, 25 MHz,
  27:../../STM32F4-Discovery_FW_V1.1.0/Libraries/STM32F4xx_StdPeriph_Driver/src/stm32f4xx_gpio.c ****   *                  50 MHz or 100 MHz.
  28:../../STM32F4-Discovery_FW_V1.1.0/Libraries/STM32F4xx_StdPeriph_Driver/src/stm32f4xx_gpio.c ****   *                - Alternate Function: Push-Pull (Pull-up, Pull-down or no Pull)
  29:../../STM32F4-Discovery_FW_V1.1.0/Libraries/STM32F4xx_StdPeriph_Driver/src/stm32f4xx_gpio.c ****   *                                      Open Drain (Pull-up, Pull-down or no Pull).
  30:../../STM32F4-Discovery_FW_V1.1.0/Libraries/STM32F4xx_StdPeriph_Driver/src/stm32f4xx_gpio.c ****   *                - Analog: required mode when a pin is to be used as ADC channel
  31:../../STM32F4-Discovery_FW_V1.1.0/Libraries/STM32F4xx_StdPeriph_Driver/src/stm32f4xx_gpio.c ****   *                          or DAC output.
  32:../../STM32F4-Discovery_FW_V1.1.0/Libraries/STM32F4xx_StdPeriph_Driver/src/stm32f4xx_gpio.c ****   * 
  33:../../STM32F4-Discovery_FW_V1.1.0/Libraries/STM32F4xx_StdPeriph_Driver/src/stm32f4xx_gpio.c ****   *          3- Peripherals alternate function:
  34:../../STM32F4-Discovery_FW_V1.1.0/Libraries/STM32F4xx_StdPeriph_Driver/src/stm32f4xx_gpio.c ****   *              - For ADC and DAC, configure the desired pin in analog mode using 
ARM GAS  /tmp/cccCAPpj.s 			page 3


  35:../../STM32F4-Discovery_FW_V1.1.0/Libraries/STM32F4xx_StdPeriph_Driver/src/stm32f4xx_gpio.c ****   *                  GPIO_InitStruct->GPIO_Mode = GPIO_Mode_AN;
  36:../../STM32F4-Discovery_FW_V1.1.0/Libraries/STM32F4xx_StdPeriph_Driver/src/stm32f4xx_gpio.c ****   *              - For other peripherals (TIM, USART...):
  37:../../STM32F4-Discovery_FW_V1.1.0/Libraries/STM32F4xx_StdPeriph_Driver/src/stm32f4xx_gpio.c ****   *                 - Connect the pin to the desired peripherals' Alternate 
  38:../../STM32F4-Discovery_FW_V1.1.0/Libraries/STM32F4xx_StdPeriph_Driver/src/stm32f4xx_gpio.c ****   *                   Function (AF) using GPIO_PinAFConfig() function
  39:../../STM32F4-Discovery_FW_V1.1.0/Libraries/STM32F4xx_StdPeriph_Driver/src/stm32f4xx_gpio.c ****   *                 - Configure the desired pin in alternate function mode using
  40:../../STM32F4-Discovery_FW_V1.1.0/Libraries/STM32F4xx_StdPeriph_Driver/src/stm32f4xx_gpio.c ****   *                   GPIO_InitStruct->GPIO_Mode = GPIO_Mode_AF
  41:../../STM32F4-Discovery_FW_V1.1.0/Libraries/STM32F4xx_StdPeriph_Driver/src/stm32f4xx_gpio.c ****   *                 - Select the type, pull-up/pull-down and output speed via 
  42:../../STM32F4-Discovery_FW_V1.1.0/Libraries/STM32F4xx_StdPeriph_Driver/src/stm32f4xx_gpio.c ****   *                   GPIO_PuPd, GPIO_OType and GPIO_Speed members
  43:../../STM32F4-Discovery_FW_V1.1.0/Libraries/STM32F4xx_StdPeriph_Driver/src/stm32f4xx_gpio.c ****   *                 - Call GPIO_Init() function
  44:../../STM32F4-Discovery_FW_V1.1.0/Libraries/STM32F4xx_StdPeriph_Driver/src/stm32f4xx_gpio.c ****   *        
  45:../../STM32F4-Discovery_FW_V1.1.0/Libraries/STM32F4xx_StdPeriph_Driver/src/stm32f4xx_gpio.c ****   *          4. To get the level of a pin configured in input mode use GPIO_ReadInputDataBit()
  46:../../STM32F4-Discovery_FW_V1.1.0/Libraries/STM32F4xx_StdPeriph_Driver/src/stm32f4xx_gpio.c ****   *          
  47:../../STM32F4-Discovery_FW_V1.1.0/Libraries/STM32F4xx_StdPeriph_Driver/src/stm32f4xx_gpio.c ****   *          5. To set/reset the level of a pin configured in output mode use
  48:../../STM32F4-Discovery_FW_V1.1.0/Libraries/STM32F4xx_StdPeriph_Driver/src/stm32f4xx_gpio.c ****   *             GPIO_SetBits()/GPIO_ResetBits()
  49:../../STM32F4-Discovery_FW_V1.1.0/Libraries/STM32F4xx_StdPeriph_Driver/src/stm32f4xx_gpio.c ****   *               
  50:../../STM32F4-Discovery_FW_V1.1.0/Libraries/STM32F4xx_StdPeriph_Driver/src/stm32f4xx_gpio.c ****   *          6. During and just after reset, the alternate functions are not 
  51:../../STM32F4-Discovery_FW_V1.1.0/Libraries/STM32F4xx_StdPeriph_Driver/src/stm32f4xx_gpio.c ****   *             active and the GPIO pins are configured in input floating mode
  52:../../STM32F4-Discovery_FW_V1.1.0/Libraries/STM32F4xx_StdPeriph_Driver/src/stm32f4xx_gpio.c ****   *             (except JTAG pins).
  53:../../STM32F4-Discovery_FW_V1.1.0/Libraries/STM32F4xx_StdPeriph_Driver/src/stm32f4xx_gpio.c ****   *
  54:../../STM32F4-Discovery_FW_V1.1.0/Libraries/STM32F4xx_StdPeriph_Driver/src/stm32f4xx_gpio.c ****   *          7. The LSE oscillator pins OSC32_IN and OSC32_OUT can be used as 
  55:../../STM32F4-Discovery_FW_V1.1.0/Libraries/STM32F4xx_StdPeriph_Driver/src/stm32f4xx_gpio.c ****   *             general-purpose (PC14 and PC15, respectively) when the LSE
  56:../../STM32F4-Discovery_FW_V1.1.0/Libraries/STM32F4xx_StdPeriph_Driver/src/stm32f4xx_gpio.c ****   *             oscillator is off. The LSE has priority over the GPIO function.
  57:../../STM32F4-Discovery_FW_V1.1.0/Libraries/STM32F4xx_StdPeriph_Driver/src/stm32f4xx_gpio.c ****   *
  58:../../STM32F4-Discovery_FW_V1.1.0/Libraries/STM32F4xx_StdPeriph_Driver/src/stm32f4xx_gpio.c ****   *          8. The HSE oscillator pins OSC_IN/OSC_OUT can be used as 
  59:../../STM32F4-Discovery_FW_V1.1.0/Libraries/STM32F4xx_StdPeriph_Driver/src/stm32f4xx_gpio.c ****   *             general-purpose PH0 and PH1, respectively, when the HSE 
  60:../../STM32F4-Discovery_FW_V1.1.0/Libraries/STM32F4xx_StdPeriph_Driver/src/stm32f4xx_gpio.c ****   *             oscillator is off. The HSE has priority over the GPIO function.
  61:../../STM32F4-Discovery_FW_V1.1.0/Libraries/STM32F4xx_StdPeriph_Driver/src/stm32f4xx_gpio.c ****   *             
  62:../../STM32F4-Discovery_FW_V1.1.0/Libraries/STM32F4xx_StdPeriph_Driver/src/stm32f4xx_gpio.c ****   *  @endverbatim        
  63:../../STM32F4-Discovery_FW_V1.1.0/Libraries/STM32F4xx_StdPeriph_Driver/src/stm32f4xx_gpio.c ****   *
  64:../../STM32F4-Discovery_FW_V1.1.0/Libraries/STM32F4xx_StdPeriph_Driver/src/stm32f4xx_gpio.c ****   ******************************************************************************
  65:../../STM32F4-Discovery_FW_V1.1.0/Libraries/STM32F4xx_StdPeriph_Driver/src/stm32f4xx_gpio.c ****   * @attention
  66:../../STM32F4-Discovery_FW_V1.1.0/Libraries/STM32F4xx_StdPeriph_Driver/src/stm32f4xx_gpio.c ****   *
  67:../../STM32F4-Discovery_FW_V1.1.0/Libraries/STM32F4xx_StdPeriph_Driver/src/stm32f4xx_gpio.c ****   * THE PRESENT FIRMWARE WHICH IS FOR GUIDANCE ONLY AIMS AT PROVIDING CUSTOMERS
  68:../../STM32F4-Discovery_FW_V1.1.0/Libraries/STM32F4xx_StdPeriph_Driver/src/stm32f4xx_gpio.c ****   * WITH CODING INFORMATION REGARDING THEIR PRODUCTS IN ORDER FOR THEM TO SAVE
  69:../../STM32F4-Discovery_FW_V1.1.0/Libraries/STM32F4xx_StdPeriph_Driver/src/stm32f4xx_gpio.c ****   * TIME. AS A RESULT, STMICROELECTRONICS SHALL NOT BE HELD LIABLE FOR ANY
  70:../../STM32F4-Discovery_FW_V1.1.0/Libraries/STM32F4xx_StdPeriph_Driver/src/stm32f4xx_gpio.c ****   * DIRECT, INDIRECT OR CONSEQUENTIAL DAMAGES WITH RESPECT TO ANY CLAIMS ARISING
  71:../../STM32F4-Discovery_FW_V1.1.0/Libraries/STM32F4xx_StdPeriph_Driver/src/stm32f4xx_gpio.c ****   * FROM THE CONTENT OF SUCH FIRMWARE AND/OR THE USE MADE BY CUSTOMERS OF THE
  72:../../STM32F4-Discovery_FW_V1.1.0/Libraries/STM32F4xx_StdPeriph_Driver/src/stm32f4xx_gpio.c ****   * CODING INFORMATION CONTAINED HEREIN IN CONNECTION WITH THEIR PRODUCTS.
  73:../../STM32F4-Discovery_FW_V1.1.0/Libraries/STM32F4xx_StdPeriph_Driver/src/stm32f4xx_gpio.c ****   *
  74:../../STM32F4-Discovery_FW_V1.1.0/Libraries/STM32F4xx_StdPeriph_Driver/src/stm32f4xx_gpio.c ****   * <h2><center>&copy; COPYRIGHT 2011 STMicroelectronics</center></h2>
  75:../../STM32F4-Discovery_FW_V1.1.0/Libraries/STM32F4xx_StdPeriph_Driver/src/stm32f4xx_gpio.c ****   ******************************************************************************
  76:../../STM32F4-Discovery_FW_V1.1.0/Libraries/STM32F4xx_StdPeriph_Driver/src/stm32f4xx_gpio.c ****   */
  77:../../STM32F4-Discovery_FW_V1.1.0/Libraries/STM32F4xx_StdPeriph_Driver/src/stm32f4xx_gpio.c **** 
  78:../../STM32F4-Discovery_FW_V1.1.0/Libraries/STM32F4xx_StdPeriph_Driver/src/stm32f4xx_gpio.c **** /* Includes ------------------------------------------------------------------*/
  79:../../STM32F4-Discovery_FW_V1.1.0/Libraries/STM32F4xx_StdPeriph_Driver/src/stm32f4xx_gpio.c **** #include "stm32f4xx_gpio.h"
  80:../../STM32F4-Discovery_FW_V1.1.0/Libraries/STM32F4xx_StdPeriph_Driver/src/stm32f4xx_gpio.c **** #include "stm32f4xx_rcc.h"
  81:../../STM32F4-Discovery_FW_V1.1.0/Libraries/STM32F4xx_StdPeriph_Driver/src/stm32f4xx_gpio.c **** 
  82:../../STM32F4-Discovery_FW_V1.1.0/Libraries/STM32F4xx_StdPeriph_Driver/src/stm32f4xx_gpio.c **** /** @addtogroup STM32F4xx_StdPeriph_Driver
  83:../../STM32F4-Discovery_FW_V1.1.0/Libraries/STM32F4xx_StdPeriph_Driver/src/stm32f4xx_gpio.c ****   * @{
  84:../../STM32F4-Discovery_FW_V1.1.0/Libraries/STM32F4xx_StdPeriph_Driver/src/stm32f4xx_gpio.c ****   */
  85:../../STM32F4-Discovery_FW_V1.1.0/Libraries/STM32F4xx_StdPeriph_Driver/src/stm32f4xx_gpio.c **** 
  86:../../STM32F4-Discovery_FW_V1.1.0/Libraries/STM32F4xx_StdPeriph_Driver/src/stm32f4xx_gpio.c **** /** @defgroup GPIO 
  87:../../STM32F4-Discovery_FW_V1.1.0/Libraries/STM32F4xx_StdPeriph_Driver/src/stm32f4xx_gpio.c ****   * @brief GPIO driver modules
  88:../../STM32F4-Discovery_FW_V1.1.0/Libraries/STM32F4xx_StdPeriph_Driver/src/stm32f4xx_gpio.c ****   * @{
  89:../../STM32F4-Discovery_FW_V1.1.0/Libraries/STM32F4xx_StdPeriph_Driver/src/stm32f4xx_gpio.c ****   */ 
  90:../../STM32F4-Discovery_FW_V1.1.0/Libraries/STM32F4xx_StdPeriph_Driver/src/stm32f4xx_gpio.c **** 
  91:../../STM32F4-Discovery_FW_V1.1.0/Libraries/STM32F4xx_StdPeriph_Driver/src/stm32f4xx_gpio.c **** /* Private typedef -----------------------------------------------------------*/
ARM GAS  /tmp/cccCAPpj.s 			page 4


  92:../../STM32F4-Discovery_FW_V1.1.0/Libraries/STM32F4xx_StdPeriph_Driver/src/stm32f4xx_gpio.c **** /* Private define ------------------------------------------------------------*/
  93:../../STM32F4-Discovery_FW_V1.1.0/Libraries/STM32F4xx_StdPeriph_Driver/src/stm32f4xx_gpio.c **** /* Private macro -------------------------------------------------------------*/
  94:../../STM32F4-Discovery_FW_V1.1.0/Libraries/STM32F4xx_StdPeriph_Driver/src/stm32f4xx_gpio.c **** /* Private variables ---------------------------------------------------------*/
  95:../../STM32F4-Discovery_FW_V1.1.0/Libraries/STM32F4xx_StdPeriph_Driver/src/stm32f4xx_gpio.c **** /* Private function prototypes -----------------------------------------------*/
  96:../../STM32F4-Discovery_FW_V1.1.0/Libraries/STM32F4xx_StdPeriph_Driver/src/stm32f4xx_gpio.c **** /* Private functions ---------------------------------------------------------*/
  97:../../STM32F4-Discovery_FW_V1.1.0/Libraries/STM32F4xx_StdPeriph_Driver/src/stm32f4xx_gpio.c **** 
  98:../../STM32F4-Discovery_FW_V1.1.0/Libraries/STM32F4xx_StdPeriph_Driver/src/stm32f4xx_gpio.c **** /** @defgroup GPIO_Private_Functions
  99:../../STM32F4-Discovery_FW_V1.1.0/Libraries/STM32F4xx_StdPeriph_Driver/src/stm32f4xx_gpio.c ****   * @{
 100:../../STM32F4-Discovery_FW_V1.1.0/Libraries/STM32F4xx_StdPeriph_Driver/src/stm32f4xx_gpio.c ****   */ 
 101:../../STM32F4-Discovery_FW_V1.1.0/Libraries/STM32F4xx_StdPeriph_Driver/src/stm32f4xx_gpio.c **** 
 102:../../STM32F4-Discovery_FW_V1.1.0/Libraries/STM32F4xx_StdPeriph_Driver/src/stm32f4xx_gpio.c **** /** @defgroup GPIO_Group1 Initialization and Configuration
 103:../../STM32F4-Discovery_FW_V1.1.0/Libraries/STM32F4xx_StdPeriph_Driver/src/stm32f4xx_gpio.c ****  *  @brief   Initialization and Configuration
 104:../../STM32F4-Discovery_FW_V1.1.0/Libraries/STM32F4xx_StdPeriph_Driver/src/stm32f4xx_gpio.c ****  *
 105:../../STM32F4-Discovery_FW_V1.1.0/Libraries/STM32F4xx_StdPeriph_Driver/src/stm32f4xx_gpio.c **** @verbatim   
 106:../../STM32F4-Discovery_FW_V1.1.0/Libraries/STM32F4xx_StdPeriph_Driver/src/stm32f4xx_gpio.c ****  ===============================================================================
 107:../../STM32F4-Discovery_FW_V1.1.0/Libraries/STM32F4xx_StdPeriph_Driver/src/stm32f4xx_gpio.c ****                         Initialization and Configuration
 108:../../STM32F4-Discovery_FW_V1.1.0/Libraries/STM32F4xx_StdPeriph_Driver/src/stm32f4xx_gpio.c ****  ===============================================================================  
 109:../../STM32F4-Discovery_FW_V1.1.0/Libraries/STM32F4xx_StdPeriph_Driver/src/stm32f4xx_gpio.c **** 
 110:../../STM32F4-Discovery_FW_V1.1.0/Libraries/STM32F4xx_StdPeriph_Driver/src/stm32f4xx_gpio.c **** @endverbatim
 111:../../STM32F4-Discovery_FW_V1.1.0/Libraries/STM32F4xx_StdPeriph_Driver/src/stm32f4xx_gpio.c ****   * @{
 112:../../STM32F4-Discovery_FW_V1.1.0/Libraries/STM32F4xx_StdPeriph_Driver/src/stm32f4xx_gpio.c ****   */
 113:../../STM32F4-Discovery_FW_V1.1.0/Libraries/STM32F4xx_StdPeriph_Driver/src/stm32f4xx_gpio.c **** 
 114:../../STM32F4-Discovery_FW_V1.1.0/Libraries/STM32F4xx_StdPeriph_Driver/src/stm32f4xx_gpio.c **** /**
 115:../../STM32F4-Discovery_FW_V1.1.0/Libraries/STM32F4xx_StdPeriph_Driver/src/stm32f4xx_gpio.c ****   * @brief  Deinitializes the GPIOx peripheral registers to their default reset values.
 116:../../STM32F4-Discovery_FW_V1.1.0/Libraries/STM32F4xx_StdPeriph_Driver/src/stm32f4xx_gpio.c ****   * @note   By default, The GPIO pins are configured in input floating mode (except JTAG pins).
 117:../../STM32F4-Discovery_FW_V1.1.0/Libraries/STM32F4xx_StdPeriph_Driver/src/stm32f4xx_gpio.c ****   * @param  GPIOx: where x can be (A..I) to select the GPIO peripheral.
 118:../../STM32F4-Discovery_FW_V1.1.0/Libraries/STM32F4xx_StdPeriph_Driver/src/stm32f4xx_gpio.c ****   * @retval None
 119:../../STM32F4-Discovery_FW_V1.1.0/Libraries/STM32F4xx_StdPeriph_Driver/src/stm32f4xx_gpio.c ****   */
 120:../../STM32F4-Discovery_FW_V1.1.0/Libraries/STM32F4xx_StdPeriph_Driver/src/stm32f4xx_gpio.c **** void GPIO_DeInit(GPIO_TypeDef* GPIOx)
 121:../../STM32F4-Discovery_FW_V1.1.0/Libraries/STM32F4xx_StdPeriph_Driver/src/stm32f4xx_gpio.c **** {
  81              		.loc 1 121 0
  82              		.cfi_startproc
  83              		@ args = 0, pretend = 0, frame = 0
  84              		@ frame_needed = 0, uses_anonymous_args = 0
  85              	.LVL0:
  86 0000 08B5     		push	{r3, lr}	@
  87              	.LCFI0:
  88              		.cfi_def_cfa_offset 8
  89              		.cfi_offset 3, -8
  90              		.cfi_offset 14, -4
 122:../../STM32F4-Discovery_FW_V1.1.0/Libraries/STM32F4xx_StdPeriph_Driver/src/stm32f4xx_gpio.c ****   /* Check the parameters */
 123:../../STM32F4-Discovery_FW_V1.1.0/Libraries/STM32F4xx_StdPeriph_Driver/src/stm32f4xx_gpio.c ****   assert_param(IS_GPIO_ALL_PERIPH(GPIOx));
 124:../../STM32F4-Discovery_FW_V1.1.0/Libraries/STM32F4xx_StdPeriph_Driver/src/stm32f4xx_gpio.c **** 
 125:../../STM32F4-Discovery_FW_V1.1.0/Libraries/STM32F4xx_StdPeriph_Driver/src/stm32f4xx_gpio.c ****   if (GPIOx == GPIOA)
  91              		.loc 1 125 0
  92 0002 2C4B     		ldr	r3, .L13	@ tmp135,
  93 0004 9842     		cmp	r0, r3	@ GPIOx, tmp135
  94 0006 05D1     		bne	.L2	@,
 126:../../STM32F4-Discovery_FW_V1.1.0/Libraries/STM32F4xx_StdPeriph_Driver/src/stm32f4xx_gpio.c ****   {
 127:../../STM32F4-Discovery_FW_V1.1.0/Libraries/STM32F4xx_StdPeriph_Driver/src/stm32f4xx_gpio.c ****     RCC_AHB1PeriphResetCmd(RCC_AHB1Periph_GPIOA, ENABLE);
  95              		.loc 1 127 0
  96 0008 0120     		movs	r0, #1	@,
  97              	.LVL1:
  98 000a 0146     		mov	r1, r0	@,
  99 000c FFF7FEFF 		bl	RCC_AHB1PeriphResetCmd	@
 100              	.LVL2:
 128:../../STM32F4-Discovery_FW_V1.1.0/Libraries/STM32F4xx_StdPeriph_Driver/src/stm32f4xx_gpio.c ****     RCC_AHB1PeriphResetCmd(RCC_AHB1Periph_GPIOA, DISABLE);
ARM GAS  /tmp/cccCAPpj.s 			page 5


 101              		.loc 1 128 0
 102 0010 0120     		movs	r0, #1	@,
 103 0012 48E0     		b	.L11	@
 104              	.LVL3:
 105              	.L2:
 129:../../STM32F4-Discovery_FW_V1.1.0/Libraries/STM32F4xx_StdPeriph_Driver/src/stm32f4xx_gpio.c ****   }
 130:../../STM32F4-Discovery_FW_V1.1.0/Libraries/STM32F4xx_StdPeriph_Driver/src/stm32f4xx_gpio.c ****   else if (GPIOx == GPIOB)
 106              		.loc 1 130 0
 107 0014 2849     		ldr	r1, .L13+4	@ tmp136,
 108 0016 8842     		cmp	r0, r1	@ GPIOx, tmp136
 109 0018 05D1     		bne	.L3	@,
 131:../../STM32F4-Discovery_FW_V1.1.0/Libraries/STM32F4xx_StdPeriph_Driver/src/stm32f4xx_gpio.c ****   {
 132:../../STM32F4-Discovery_FW_V1.1.0/Libraries/STM32F4xx_StdPeriph_Driver/src/stm32f4xx_gpio.c ****     RCC_AHB1PeriphResetCmd(RCC_AHB1Periph_GPIOB, ENABLE);
 110              		.loc 1 132 0
 111 001a 0220     		movs	r0, #2	@,
 112              	.LVL4:
 113 001c 0121     		movs	r1, #1	@,
 114 001e FFF7FEFF 		bl	RCC_AHB1PeriphResetCmd	@
 115              	.LVL5:
 133:../../STM32F4-Discovery_FW_V1.1.0/Libraries/STM32F4xx_StdPeriph_Driver/src/stm32f4xx_gpio.c ****     RCC_AHB1PeriphResetCmd(RCC_AHB1Periph_GPIOB, DISABLE);
 116              		.loc 1 133 0
 117 0022 0220     		movs	r0, #2	@,
 118 0024 3FE0     		b	.L11	@
 119              	.LVL6:
 120              	.L3:
 134:../../STM32F4-Discovery_FW_V1.1.0/Libraries/STM32F4xx_StdPeriph_Driver/src/stm32f4xx_gpio.c ****   }
 135:../../STM32F4-Discovery_FW_V1.1.0/Libraries/STM32F4xx_StdPeriph_Driver/src/stm32f4xx_gpio.c ****   else if (GPIOx == GPIOC)
 121              		.loc 1 135 0
 122 0026 254A     		ldr	r2, .L13+8	@ tmp137,
 123 0028 9042     		cmp	r0, r2	@ GPIOx, tmp137
 124 002a 05D1     		bne	.L4	@,
 136:../../STM32F4-Discovery_FW_V1.1.0/Libraries/STM32F4xx_StdPeriph_Driver/src/stm32f4xx_gpio.c ****   {
 137:../../STM32F4-Discovery_FW_V1.1.0/Libraries/STM32F4xx_StdPeriph_Driver/src/stm32f4xx_gpio.c ****     RCC_AHB1PeriphResetCmd(RCC_AHB1Periph_GPIOC, ENABLE);
 125              		.loc 1 137 0
 126 002c 0420     		movs	r0, #4	@,
 127              	.LVL7:
 128 002e 0121     		movs	r1, #1	@,
 129 0030 FFF7FEFF 		bl	RCC_AHB1PeriphResetCmd	@
 130              	.LVL8:
 138:../../STM32F4-Discovery_FW_V1.1.0/Libraries/STM32F4xx_StdPeriph_Driver/src/stm32f4xx_gpio.c ****     RCC_AHB1PeriphResetCmd(RCC_AHB1Periph_GPIOC, DISABLE);
 131              		.loc 1 138 0
 132 0034 0420     		movs	r0, #4	@,
 133 0036 36E0     		b	.L11	@
 134              	.LVL9:
 135              	.L4:
 139:../../STM32F4-Discovery_FW_V1.1.0/Libraries/STM32F4xx_StdPeriph_Driver/src/stm32f4xx_gpio.c ****   }
 140:../../STM32F4-Discovery_FW_V1.1.0/Libraries/STM32F4xx_StdPeriph_Driver/src/stm32f4xx_gpio.c ****   else if (GPIOx == GPIOD)
 136              		.loc 1 140 0
 137 0038 214B     		ldr	r3, .L13+12	@ tmp138,
 138 003a 9842     		cmp	r0, r3	@ GPIOx, tmp138
 139 003c 05D1     		bne	.L5	@,
 141:../../STM32F4-Discovery_FW_V1.1.0/Libraries/STM32F4xx_StdPeriph_Driver/src/stm32f4xx_gpio.c ****   {
 142:../../STM32F4-Discovery_FW_V1.1.0/Libraries/STM32F4xx_StdPeriph_Driver/src/stm32f4xx_gpio.c ****     RCC_AHB1PeriphResetCmd(RCC_AHB1Periph_GPIOD, ENABLE);
 140              		.loc 1 142 0
 141 003e 0820     		movs	r0, #8	@,
 142              	.LVL10:
 143 0040 0121     		movs	r1, #1	@,
ARM GAS  /tmp/cccCAPpj.s 			page 6


 144 0042 FFF7FEFF 		bl	RCC_AHB1PeriphResetCmd	@
 145              	.LVL11:
 143:../../STM32F4-Discovery_FW_V1.1.0/Libraries/STM32F4xx_StdPeriph_Driver/src/stm32f4xx_gpio.c ****     RCC_AHB1PeriphResetCmd(RCC_AHB1Periph_GPIOD, DISABLE);
 146              		.loc 1 143 0
 147 0046 0820     		movs	r0, #8	@,
 148 0048 2DE0     		b	.L11	@
 149              	.LVL12:
 150              	.L5:
 144:../../STM32F4-Discovery_FW_V1.1.0/Libraries/STM32F4xx_StdPeriph_Driver/src/stm32f4xx_gpio.c ****   }
 145:../../STM32F4-Discovery_FW_V1.1.0/Libraries/STM32F4xx_StdPeriph_Driver/src/stm32f4xx_gpio.c ****   else if (GPIOx == GPIOE)
 151              		.loc 1 145 0
 152 004a 1E49     		ldr	r1, .L13+16	@ tmp139,
 153 004c 8842     		cmp	r0, r1	@ GPIOx, tmp139
 154 004e 05D1     		bne	.L6	@,
 146:../../STM32F4-Discovery_FW_V1.1.0/Libraries/STM32F4xx_StdPeriph_Driver/src/stm32f4xx_gpio.c ****   {
 147:../../STM32F4-Discovery_FW_V1.1.0/Libraries/STM32F4xx_StdPeriph_Driver/src/stm32f4xx_gpio.c ****     RCC_AHB1PeriphResetCmd(RCC_AHB1Periph_GPIOE, ENABLE);
 155              		.loc 1 147 0
 156 0050 1020     		movs	r0, #16	@,
 157              	.LVL13:
 158 0052 0121     		movs	r1, #1	@,
 159 0054 FFF7FEFF 		bl	RCC_AHB1PeriphResetCmd	@
 160              	.LVL14:
 148:../../STM32F4-Discovery_FW_V1.1.0/Libraries/STM32F4xx_StdPeriph_Driver/src/stm32f4xx_gpio.c ****     RCC_AHB1PeriphResetCmd(RCC_AHB1Periph_GPIOE, DISABLE);
 161              		.loc 1 148 0
 162 0058 1020     		movs	r0, #16	@,
 163 005a 24E0     		b	.L11	@
 164              	.LVL15:
 165              	.L6:
 149:../../STM32F4-Discovery_FW_V1.1.0/Libraries/STM32F4xx_StdPeriph_Driver/src/stm32f4xx_gpio.c ****   }
 150:../../STM32F4-Discovery_FW_V1.1.0/Libraries/STM32F4xx_StdPeriph_Driver/src/stm32f4xx_gpio.c ****   else if (GPIOx == GPIOF)
 166              		.loc 1 150 0
 167 005c 1A4A     		ldr	r2, .L13+20	@ tmp140,
 168 005e 9042     		cmp	r0, r2	@ GPIOx, tmp140
 169 0060 05D1     		bne	.L7	@,
 151:../../STM32F4-Discovery_FW_V1.1.0/Libraries/STM32F4xx_StdPeriph_Driver/src/stm32f4xx_gpio.c ****   {
 152:../../STM32F4-Discovery_FW_V1.1.0/Libraries/STM32F4xx_StdPeriph_Driver/src/stm32f4xx_gpio.c ****     RCC_AHB1PeriphResetCmd(RCC_AHB1Periph_GPIOF, ENABLE);
 170              		.loc 1 152 0
 171 0062 2020     		movs	r0, #32	@,
 172              	.LVL16:
 173 0064 0121     		movs	r1, #1	@,
 174 0066 FFF7FEFF 		bl	RCC_AHB1PeriphResetCmd	@
 175              	.LVL17:
 153:../../STM32F4-Discovery_FW_V1.1.0/Libraries/STM32F4xx_StdPeriph_Driver/src/stm32f4xx_gpio.c ****     RCC_AHB1PeriphResetCmd(RCC_AHB1Periph_GPIOF, DISABLE);
 176              		.loc 1 153 0
 177 006a 2020     		movs	r0, #32	@,
 178 006c 1BE0     		b	.L11	@
 179              	.LVL18:
 180              	.L7:
 154:../../STM32F4-Discovery_FW_V1.1.0/Libraries/STM32F4xx_StdPeriph_Driver/src/stm32f4xx_gpio.c ****   }
 155:../../STM32F4-Discovery_FW_V1.1.0/Libraries/STM32F4xx_StdPeriph_Driver/src/stm32f4xx_gpio.c ****   else if (GPIOx == GPIOG)
 181              		.loc 1 155 0
 182 006e 174B     		ldr	r3, .L13+24	@ tmp141,
 183 0070 9842     		cmp	r0, r3	@ GPIOx, tmp141
 184 0072 05D1     		bne	.L8	@,
 156:../../STM32F4-Discovery_FW_V1.1.0/Libraries/STM32F4xx_StdPeriph_Driver/src/stm32f4xx_gpio.c ****   {
 157:../../STM32F4-Discovery_FW_V1.1.0/Libraries/STM32F4xx_StdPeriph_Driver/src/stm32f4xx_gpio.c ****     RCC_AHB1PeriphResetCmd(RCC_AHB1Periph_GPIOG, ENABLE);
 185              		.loc 1 157 0
ARM GAS  /tmp/cccCAPpj.s 			page 7


 186 0074 4020     		movs	r0, #64	@,
 187              	.LVL19:
 188 0076 0121     		movs	r1, #1	@,
 189 0078 FFF7FEFF 		bl	RCC_AHB1PeriphResetCmd	@
 190              	.LVL20:
 158:../../STM32F4-Discovery_FW_V1.1.0/Libraries/STM32F4xx_StdPeriph_Driver/src/stm32f4xx_gpio.c ****     RCC_AHB1PeriphResetCmd(RCC_AHB1Periph_GPIOG, DISABLE);
 191              		.loc 1 158 0
 192 007c 4020     		movs	r0, #64	@,
 193 007e 12E0     		b	.L11	@
 194              	.LVL21:
 195              	.L8:
 159:../../STM32F4-Discovery_FW_V1.1.0/Libraries/STM32F4xx_StdPeriph_Driver/src/stm32f4xx_gpio.c ****   }
 160:../../STM32F4-Discovery_FW_V1.1.0/Libraries/STM32F4xx_StdPeriph_Driver/src/stm32f4xx_gpio.c ****   else if (GPIOx == GPIOH)
 196              		.loc 1 160 0
 197 0080 1349     		ldr	r1, .L13+28	@ tmp142,
 198 0082 8842     		cmp	r0, r1	@ GPIOx, tmp142
 199 0084 05D1     		bne	.L9	@,
 161:../../STM32F4-Discovery_FW_V1.1.0/Libraries/STM32F4xx_StdPeriph_Driver/src/stm32f4xx_gpio.c ****   {
 162:../../STM32F4-Discovery_FW_V1.1.0/Libraries/STM32F4xx_StdPeriph_Driver/src/stm32f4xx_gpio.c ****     RCC_AHB1PeriphResetCmd(RCC_AHB1Periph_GPIOH, ENABLE);
 200              		.loc 1 162 0
 201 0086 8020     		movs	r0, #128	@,
 202              	.LVL22:
 203 0088 0121     		movs	r1, #1	@,
 204 008a FFF7FEFF 		bl	RCC_AHB1PeriphResetCmd	@
 205              	.LVL23:
 163:../../STM32F4-Discovery_FW_V1.1.0/Libraries/STM32F4xx_StdPeriph_Driver/src/stm32f4xx_gpio.c ****     RCC_AHB1PeriphResetCmd(RCC_AHB1Periph_GPIOH, DISABLE);
 206              		.loc 1 163 0
 207 008e 8020     		movs	r0, #128	@,
 208 0090 09E0     		b	.L11	@
 209              	.LVL24:
 210              	.L9:
 164:../../STM32F4-Discovery_FW_V1.1.0/Libraries/STM32F4xx_StdPeriph_Driver/src/stm32f4xx_gpio.c ****   }
 165:../../STM32F4-Discovery_FW_V1.1.0/Libraries/STM32F4xx_StdPeriph_Driver/src/stm32f4xx_gpio.c ****   else
 166:../../STM32F4-Discovery_FW_V1.1.0/Libraries/STM32F4xx_StdPeriph_Driver/src/stm32f4xx_gpio.c ****   {
 167:../../STM32F4-Discovery_FW_V1.1.0/Libraries/STM32F4xx_StdPeriph_Driver/src/stm32f4xx_gpio.c ****     if (GPIOx == GPIOI)
 211              		.loc 1 167 0
 212 0092 104A     		ldr	r2, .L13+32	@ tmp143,
 213 0094 9042     		cmp	r0, r2	@ GPIOx, tmp143
 214 0096 0BD1     		bne	.L1	@,
 168:../../STM32F4-Discovery_FW_V1.1.0/Libraries/STM32F4xx_StdPeriph_Driver/src/stm32f4xx_gpio.c ****     {
 169:../../STM32F4-Discovery_FW_V1.1.0/Libraries/STM32F4xx_StdPeriph_Driver/src/stm32f4xx_gpio.c ****       RCC_AHB1PeriphResetCmd(RCC_AHB1Periph_GPIOI, ENABLE);
 215              		.loc 1 169 0
 216 0098 4FF48070 		mov	r0, #256	@,
 217              	.LVL25:
 218 009c 0121     		movs	r1, #1	@,
 219 009e FFF7FEFF 		bl	RCC_AHB1PeriphResetCmd	@
 220              	.LVL26:
 170:../../STM32F4-Discovery_FW_V1.1.0/Libraries/STM32F4xx_StdPeriph_Driver/src/stm32f4xx_gpio.c ****       RCC_AHB1PeriphResetCmd(RCC_AHB1Periph_GPIOI, DISABLE);
 221              		.loc 1 170 0
 222 00a2 4FF48070 		mov	r0, #256	@,
 223              	.L11:
 224 00a6 0021     		movs	r1, #0	@,
 171:../../STM32F4-Discovery_FW_V1.1.0/Libraries/STM32F4xx_StdPeriph_Driver/src/stm32f4xx_gpio.c ****     }
 172:../../STM32F4-Discovery_FW_V1.1.0/Libraries/STM32F4xx_StdPeriph_Driver/src/stm32f4xx_gpio.c ****   }
 173:../../STM32F4-Discovery_FW_V1.1.0/Libraries/STM32F4xx_StdPeriph_Driver/src/stm32f4xx_gpio.c **** }
 225              		.loc 1 173 0
 226 00a8 BDE80840 		pop	{r3, lr}	@
ARM GAS  /tmp/cccCAPpj.s 			page 8


 170:../../STM32F4-Discovery_FW_V1.1.0/Libraries/STM32F4xx_StdPeriph_Driver/src/stm32f4xx_gpio.c ****       RCC_AHB1PeriphResetCmd(RCC_AHB1Periph_GPIOI, DISABLE);
 227              		.loc 1 170 0
 228 00ac FFF7FEBF 		b	RCC_AHB1PeriphResetCmd	@
 229              	.LVL27:
 230              	.L1:
 231 00b0 08BD     		pop	{r3, pc}	@
 232              	.L14:
 233 00b2 00BF     		.align	2
 234              	.L13:
 235 00b4 00000240 		.word	1073872896
 236 00b8 00040240 		.word	1073873920
 237 00bc 00080240 		.word	1073874944
 238 00c0 000C0240 		.word	1073875968
 239 00c4 00100240 		.word	1073876992
 240 00c8 00140240 		.word	1073878016
 241 00cc 00180240 		.word	1073879040
 242 00d0 001C0240 		.word	1073880064
 243 00d4 00200240 		.word	1073881088
 244              		.cfi_endproc
 245              	.LFE110:
 246              		.size	GPIO_DeInit, .-GPIO_DeInit
 247              		.align	1
 248              		.global	GPIO_Init
 249              		.thumb
 250              		.thumb_func
 251              		.type	GPIO_Init, %function
 252              	GPIO_Init:
 253              	.LFB111:
 174:../../STM32F4-Discovery_FW_V1.1.0/Libraries/STM32F4xx_StdPeriph_Driver/src/stm32f4xx_gpio.c **** 
 175:../../STM32F4-Discovery_FW_V1.1.0/Libraries/STM32F4xx_StdPeriph_Driver/src/stm32f4xx_gpio.c **** /**
 176:../../STM32F4-Discovery_FW_V1.1.0/Libraries/STM32F4xx_StdPeriph_Driver/src/stm32f4xx_gpio.c ****   * @brief  Initializes the GPIOx peripheral according to the specified parameters in the GPIO_Init
 177:../../STM32F4-Discovery_FW_V1.1.0/Libraries/STM32F4xx_StdPeriph_Driver/src/stm32f4xx_gpio.c ****   * @param  GPIOx: where x can be (A..I) to select the GPIO peripheral.
 178:../../STM32F4-Discovery_FW_V1.1.0/Libraries/STM32F4xx_StdPeriph_Driver/src/stm32f4xx_gpio.c ****   * @param  GPIO_InitStruct: pointer to a GPIO_InitTypeDef structure that contains
 179:../../STM32F4-Discovery_FW_V1.1.0/Libraries/STM32F4xx_StdPeriph_Driver/src/stm32f4xx_gpio.c ****   *         the configuration information for the specified GPIO peripheral.
 180:../../STM32F4-Discovery_FW_V1.1.0/Libraries/STM32F4xx_StdPeriph_Driver/src/stm32f4xx_gpio.c ****   * @retval None
 181:../../STM32F4-Discovery_FW_V1.1.0/Libraries/STM32F4xx_StdPeriph_Driver/src/stm32f4xx_gpio.c ****   */
 182:../../STM32F4-Discovery_FW_V1.1.0/Libraries/STM32F4xx_StdPeriph_Driver/src/stm32f4xx_gpio.c **** void GPIO_Init(GPIO_TypeDef* GPIOx, GPIO_InitTypeDef* GPIO_InitStruct)
 183:../../STM32F4-Discovery_FW_V1.1.0/Libraries/STM32F4xx_StdPeriph_Driver/src/stm32f4xx_gpio.c **** {
 254              		.loc 1 183 0
 255              		.cfi_startproc
 256              		@ args = 0, pretend = 0, frame = 0
 257              		@ frame_needed = 0, uses_anonymous_args = 0
 258              	.LVL28:
 259 00d8 2DE9F041 		push	{r4, r5, r6, r7, r8, lr}	@
 260              	.LCFI1:
 261              		.cfi_def_cfa_offset 24
 262              		.cfi_offset 4, -24
 263              		.cfi_offset 5, -20
 264              		.cfi_offset 6, -16
 265              		.cfi_offset 7, -12
 266              		.cfi_offset 8, -8
 267              		.cfi_offset 14, -4
 184:../../STM32F4-Discovery_FW_V1.1.0/Libraries/STM32F4xx_StdPeriph_Driver/src/stm32f4xx_gpio.c ****   uint32_t pinpos = 0x00, pos = 0x00 , currentpin = 0x00;
 185:../../STM32F4-Discovery_FW_V1.1.0/Libraries/STM32F4xx_StdPeriph_Driver/src/stm32f4xx_gpio.c **** 
 186:../../STM32F4-Discovery_FW_V1.1.0/Libraries/STM32F4xx_StdPeriph_Driver/src/stm32f4xx_gpio.c ****   /* Check the parameters */
 187:../../STM32F4-Discovery_FW_V1.1.0/Libraries/STM32F4xx_StdPeriph_Driver/src/stm32f4xx_gpio.c ****   assert_param(IS_GPIO_ALL_PERIPH(GPIOx));
 188:../../STM32F4-Discovery_FW_V1.1.0/Libraries/STM32F4xx_StdPeriph_Driver/src/stm32f4xx_gpio.c ****   assert_param(IS_GPIO_PIN(GPIO_InitStruct->GPIO_Pin));
ARM GAS  /tmp/cccCAPpj.s 			page 9


 189:../../STM32F4-Discovery_FW_V1.1.0/Libraries/STM32F4xx_StdPeriph_Driver/src/stm32f4xx_gpio.c ****   assert_param(IS_GPIO_MODE(GPIO_InitStruct->GPIO_Mode));
 190:../../STM32F4-Discovery_FW_V1.1.0/Libraries/STM32F4xx_StdPeriph_Driver/src/stm32f4xx_gpio.c ****   assert_param(IS_GPIO_PUPD(GPIO_InitStruct->GPIO_PuPd));
 191:../../STM32F4-Discovery_FW_V1.1.0/Libraries/STM32F4xx_StdPeriph_Driver/src/stm32f4xx_gpio.c **** 
 192:../../STM32F4-Discovery_FW_V1.1.0/Libraries/STM32F4xx_StdPeriph_Driver/src/stm32f4xx_gpio.c ****   /* -------------------------Configure the port pins---------------- */
 193:../../STM32F4-Discovery_FW_V1.1.0/Libraries/STM32F4xx_StdPeriph_Driver/src/stm32f4xx_gpio.c ****   /*-- GPIO Mode Configuration --*/
 194:../../STM32F4-Discovery_FW_V1.1.0/Libraries/STM32F4xx_StdPeriph_Driver/src/stm32f4xx_gpio.c ****   for (pinpos = 0x00; pinpos < 0x10; pinpos++)
 195:../../STM32F4-Discovery_FW_V1.1.0/Libraries/STM32F4xx_StdPeriph_Driver/src/stm32f4xx_gpio.c ****   {
 196:../../STM32F4-Discovery_FW_V1.1.0/Libraries/STM32F4xx_StdPeriph_Driver/src/stm32f4xx_gpio.c ****     pos = ((uint32_t)0x01) << pinpos;
 197:../../STM32F4-Discovery_FW_V1.1.0/Libraries/STM32F4xx_StdPeriph_Driver/src/stm32f4xx_gpio.c ****     /* Get the port pins position */
 198:../../STM32F4-Discovery_FW_V1.1.0/Libraries/STM32F4xx_StdPeriph_Driver/src/stm32f4xx_gpio.c ****     currentpin = (GPIO_InitStruct->GPIO_Pin) & pos;
 268              		.loc 1 198 0
 269 00dc 0F68     		ldr	r7, [r1, #0]	@ D.5640, GPIO_InitStruct_8(D)->GPIO_Pin
 194:../../STM32F4-Discovery_FW_V1.1.0/Libraries/STM32F4xx_StdPeriph_Driver/src/stm32f4xx_gpio.c ****   for (pinpos = 0x00; pinpos < 0x10; pinpos++)
 270              		.loc 1 194 0
 271 00de 0023     		movs	r3, #0	@ pinpos,
 272              	.LVL29:
 273              	.L18:
 196:../../STM32F4-Discovery_FW_V1.1.0/Libraries/STM32F4xx_StdPeriph_Driver/src/stm32f4xx_gpio.c ****     pos = ((uint32_t)0x01) << pinpos;
 274              		.loc 1 196 0
 275 00e0 0122     		movs	r2, #1	@ tmp184,
 276 00e2 02FA03F2 		lsl	r2, r2, r3	@ pos, tmp184, pinpos
 277              	.LVL30:
 278              		.loc 1 198 0
 279 00e6 02EA0705 		and	r5, r2, r7	@ currentpin, pos, D.5640
 280              	.LVL31:
 199:../../STM32F4-Discovery_FW_V1.1.0/Libraries/STM32F4xx_StdPeriph_Driver/src/stm32f4xx_gpio.c **** 
 200:../../STM32F4-Discovery_FW_V1.1.0/Libraries/STM32F4xx_StdPeriph_Driver/src/stm32f4xx_gpio.c ****     if (currentpin == pos)
 281              		.loc 1 200 0
 282 00ea 9542     		cmp	r5, r2	@ currentpin, pos
 283 00ec 32D1     		bne	.L16	@,
 182:../../STM32F4-Discovery_FW_V1.1.0/Libraries/STM32F4xx_StdPeriph_Driver/src/stm32f4xx_gpio.c **** void GPIO_Init(GPIO_TypeDef* GPIOx, GPIO_InitTypeDef* GPIO_InitStruct)
 284              		.loc 1 182 0
 285 00ee 5A00     		lsls	r2, r3, #1	@ D.5764, pinpos,
 286              	.LVL32:
 201:../../STM32F4-Discovery_FW_V1.1.0/Libraries/STM32F4xx_StdPeriph_Driver/src/stm32f4xx_gpio.c ****     {
 202:../../STM32F4-Discovery_FW_V1.1.0/Libraries/STM32F4xx_StdPeriph_Driver/src/stm32f4xx_gpio.c ****       GPIOx->MODER  &= ~(GPIO_MODER_MODER0 << (pinpos * 2));
 287              		.loc 1 202 0
 288 00f0 0324     		movs	r4, #3	@ tmp186,
 289 00f2 0668     		ldr	r6, [r0, #0]	@ D.5643, GPIOx_11(D)->MODER
 290 00f4 04FA02F4 		lsl	r4, r4, r2	@ tmp185, tmp186, D.5764
 291 00f8 E443     		mvns	r4, r4	@ D.5647, tmp185
 292 00fa 2640     		ands	r6, r6, r4	@, D.5648, D.5643, D.5647
 293 00fc 0660     		str	r6, [r0, #0]	@ D.5648, GPIOx_11(D)->MODER
 203:../../STM32F4-Discovery_FW_V1.1.0/Libraries/STM32F4xx_StdPeriph_Driver/src/stm32f4xx_gpio.c ****       GPIOx->MODER |= (((uint32_t)GPIO_InitStruct->GPIO_Mode) << (pinpos * 2));
 294              		.loc 1 203 0
 295 00fe 0E79     		ldrb	r6, [r1, #4]	@ zero_extendqisi2	@ D.5650, GPIO_InitStruct_8(D)->GPIO_Mode
 296 0100 D0F800C0 		ldr	ip, [r0, #0]	@ D.5649, GPIOx_11(D)->MODER
 297 0104 06FA02F8 		lsl	r8, r6, r2	@ tmp187, D.5650, D.5764
 204:../../STM32F4-Discovery_FW_V1.1.0/Libraries/STM32F4xx_StdPeriph_Driver/src/stm32f4xx_gpio.c **** 
 205:../../STM32F4-Discovery_FW_V1.1.0/Libraries/STM32F4xx_StdPeriph_Driver/src/stm32f4xx_gpio.c ****       if ((GPIO_InitStruct->GPIO_Mode == GPIO_Mode_OUT) || (GPIO_InitStruct->GPIO_Mode == GPIO_Mode
 298              		.loc 1 205 0
 299 0108 013E     		subs	r6, r6, #1	@ tmp189, D.5650,
 203:../../STM32F4-Discovery_FW_V1.1.0/Libraries/STM32F4xx_StdPeriph_Driver/src/stm32f4xx_gpio.c ****       GPIOx->MODER |= (((uint32_t)GPIO_InitStruct->GPIO_Mode) << (pinpos * 2));
 300              		.loc 1 203 0
 301 010a 48EA0C0C 		orr	ip, r8, ip	@ D.5653, tmp187, D.5649
 302              		.loc 1 205 0
 303 010e 012E     		cmp	r6, #1	@ tmp189,
ARM GAS  /tmp/cccCAPpj.s 			page 10


 203:../../STM32F4-Discovery_FW_V1.1.0/Libraries/STM32F4xx_StdPeriph_Driver/src/stm32f4xx_gpio.c ****       GPIOx->MODER |= (((uint32_t)GPIO_InitStruct->GPIO_Mode) << (pinpos * 2));
 304              		.loc 1 203 0
 305 0110 C0F800C0 		str	ip, [r0, #0]	@ D.5653, GPIOx_11(D)->MODER
 306              		.loc 1 205 0
 307 0114 15D8     		bhi	.L17	@,
 206:../../STM32F4-Discovery_FW_V1.1.0/Libraries/STM32F4xx_StdPeriph_Driver/src/stm32f4xx_gpio.c ****       {
 207:../../STM32F4-Discovery_FW_V1.1.0/Libraries/STM32F4xx_StdPeriph_Driver/src/stm32f4xx_gpio.c ****         /* Check Speed mode parameters */
 208:../../STM32F4-Discovery_FW_V1.1.0/Libraries/STM32F4xx_StdPeriph_Driver/src/stm32f4xx_gpio.c ****         assert_param(IS_GPIO_SPEED(GPIO_InitStruct->GPIO_Speed));
 209:../../STM32F4-Discovery_FW_V1.1.0/Libraries/STM32F4xx_StdPeriph_Driver/src/stm32f4xx_gpio.c **** 
 210:../../STM32F4-Discovery_FW_V1.1.0/Libraries/STM32F4xx_StdPeriph_Driver/src/stm32f4xx_gpio.c ****         /* Speed mode configuration */
 211:../../STM32F4-Discovery_FW_V1.1.0/Libraries/STM32F4xx_StdPeriph_Driver/src/stm32f4xx_gpio.c ****         GPIOx->OSPEEDR &= ~(GPIO_OSPEEDER_OSPEEDR0 << (pinpos * 2));
 308              		.loc 1 211 0
 309 0116 8668     		ldr	r6, [r0, #8]	@ D.5657, GPIOx_11(D)->OSPEEDR
 212:../../STM32F4-Discovery_FW_V1.1.0/Libraries/STM32F4xx_StdPeriph_Driver/src/stm32f4xx_gpio.c ****         GPIOx->OSPEEDR |= ((uint32_t)(GPIO_InitStruct->GPIO_Speed) << (pinpos * 2));
 310              		.loc 1 212 0
 311 0118 91F805C0 		ldrb	ip, [r1, #5]	@ zero_extendqisi2	@ GPIO_InitStruct_8(D)->GPIO_Speed, GPIO_InitStruct_8(D)->GPI
 211:../../STM32F4-Discovery_FW_V1.1.0/Libraries/STM32F4xx_StdPeriph_Driver/src/stm32f4xx_gpio.c ****         GPIOx->OSPEEDR &= ~(GPIO_OSPEEDER_OSPEEDR0 << (pinpos * 2));
 312              		.loc 1 211 0
 313 011c 2640     		ands	r6, r6, r4	@, D.5658, D.5657, D.5647
 314 011e 8660     		str	r6, [r0, #8]	@ D.5658, GPIOx_11(D)->OSPEEDR
 315              		.loc 1 212 0
 316 0120 8668     		ldr	r6, [r0, #8]	@ D.5659, GPIOx_11(D)->OSPEEDR
 317 0122 0CFA02FC 		lsl	ip, ip, r2	@ tmp191, GPIO_InitStruct_8(D)->GPIO_Speed, D.5764
 318 0126 4CEA0606 		orr	r6, ip, r6	@ D.5663, tmp191, D.5659
 319 012a 8660     		str	r6, [r0, #8]	@ D.5663, GPIOx_11(D)->OSPEEDR
 213:../../STM32F4-Discovery_FW_V1.1.0/Libraries/STM32F4xx_StdPeriph_Driver/src/stm32f4xx_gpio.c **** 
 214:../../STM32F4-Discovery_FW_V1.1.0/Libraries/STM32F4xx_StdPeriph_Driver/src/stm32f4xx_gpio.c ****         /* Check Output mode parameters */
 215:../../STM32F4-Discovery_FW_V1.1.0/Libraries/STM32F4xx_StdPeriph_Driver/src/stm32f4xx_gpio.c ****         assert_param(IS_GPIO_OTYPE(GPIO_InitStruct->GPIO_OType));
 216:../../STM32F4-Discovery_FW_V1.1.0/Libraries/STM32F4xx_StdPeriph_Driver/src/stm32f4xx_gpio.c **** 
 217:../../STM32F4-Discovery_FW_V1.1.0/Libraries/STM32F4xx_StdPeriph_Driver/src/stm32f4xx_gpio.c ****         /* Output mode configuration*/
 218:../../STM32F4-Discovery_FW_V1.1.0/Libraries/STM32F4xx_StdPeriph_Driver/src/stm32f4xx_gpio.c ****         GPIOx->OTYPER  &= ~((GPIO_OTYPER_OT_0) << ((uint16_t)pinpos)) ;
 320              		.loc 1 218 0
 321 012c 4668     		ldr	r6, [r0, #4]	@ D.5664, GPIOx_11(D)->OTYPER
 322 012e 26EA0505 		bic	r5, r6, r5	@ D.5669, D.5664, currentpin
 323              	.LVL33:
 324 0132 4560     		str	r5, [r0, #4]	@ D.5669, GPIOx_11(D)->OTYPER
 219:../../STM32F4-Discovery_FW_V1.1.0/Libraries/STM32F4xx_StdPeriph_Driver/src/stm32f4xx_gpio.c ****         GPIOx->OTYPER |= (uint16_t)(((uint16_t)GPIO_InitStruct->GPIO_OType) << ((uint16_t)pinpos));
 325              		.loc 1 219 0
 326 0134 8D79     		ldrb	r5, [r1, #6]	@ zero_extendqisi2	@ GPIO_InitStruct_8(D)->GPIO_OType, GPIO_InitStruct_8(D)->GPI
 327 0136 4668     		ldr	r6, [r0, #4]	@ D.5670, GPIOx_11(D)->OTYPER
 328 0138 05FA03F5 		lsl	r5, r5, r3	@ tmp194, GPIO_InitStruct_8(D)->GPIO_OType, pinpos
 220:../../STM32F4-Discovery_FW_V1.1.0/Libraries/STM32F4xx_StdPeriph_Driver/src/stm32f4xx_gpio.c ****       }
 221:../../STM32F4-Discovery_FW_V1.1.0/Libraries/STM32F4xx_StdPeriph_Driver/src/stm32f4xx_gpio.c **** 
 222:../../STM32F4-Discovery_FW_V1.1.0/Libraries/STM32F4xx_StdPeriph_Driver/src/stm32f4xx_gpio.c ****       /* Pull-up Pull down resistor configuration*/
 223:../../STM32F4-Discovery_FW_V1.1.0/Libraries/STM32F4xx_StdPeriph_Driver/src/stm32f4xx_gpio.c ****       GPIOx->PUPDR &= ~(GPIO_PUPDR_PUPDR0 << ((uint16_t)pinpos * 2));
 224:../../STM32F4-Discovery_FW_V1.1.0/Libraries/STM32F4xx_StdPeriph_Driver/src/stm32f4xx_gpio.c ****       GPIOx->PUPDR |= (((uint32_t)GPIO_InitStruct->GPIO_PuPd) << (pinpos * 2));
 225:../../STM32F4-Discovery_FW_V1.1.0/Libraries/STM32F4xx_StdPeriph_Driver/src/stm32f4xx_gpio.c ****     }
 226:../../STM32F4-Discovery_FW_V1.1.0/Libraries/STM32F4xx_StdPeriph_Driver/src/stm32f4xx_gpio.c ****   }
 227:../../STM32F4-Discovery_FW_V1.1.0/Libraries/STM32F4xx_StdPeriph_Driver/src/stm32f4xx_gpio.c **** }
 228:../../STM32F4-Discovery_FW_V1.1.0/Libraries/STM32F4xx_StdPeriph_Driver/src/stm32f4xx_gpio.c **** 
 229:../../STM32F4-Discovery_FW_V1.1.0/Libraries/STM32F4xx_StdPeriph_Driver/src/stm32f4xx_gpio.c **** /**
 230:../../STM32F4-Discovery_FW_V1.1.0/Libraries/STM32F4xx_StdPeriph_Driver/src/stm32f4xx_gpio.c ****   * @brief  Fills each GPIO_InitStruct member with its default value.
 231:../../STM32F4-Discovery_FW_V1.1.0/Libraries/STM32F4xx_StdPeriph_Driver/src/stm32f4xx_gpio.c ****   * @param  GPIO_InitStruct : pointer to a GPIO_InitTypeDef structure which will be initialized.
 232:../../STM32F4-Discovery_FW_V1.1.0/Libraries/STM32F4xx_StdPeriph_Driver/src/stm32f4xx_gpio.c ****   * @retval None
 233:../../STM32F4-Discovery_FW_V1.1.0/Libraries/STM32F4xx_StdPeriph_Driver/src/stm32f4xx_gpio.c ****   */
 234:../../STM32F4-Discovery_FW_V1.1.0/Libraries/STM32F4xx_StdPeriph_Driver/src/stm32f4xx_gpio.c **** void GPIO_StructInit(GPIO_InitTypeDef* GPIO_InitStruct)
 235:../../STM32F4-Discovery_FW_V1.1.0/Libraries/STM32F4xx_StdPeriph_Driver/src/stm32f4xx_gpio.c **** {
ARM GAS  /tmp/cccCAPpj.s 			page 11


 236:../../STM32F4-Discovery_FW_V1.1.0/Libraries/STM32F4xx_StdPeriph_Driver/src/stm32f4xx_gpio.c ****   /* Reset GPIO init structure parameters values */
 237:../../STM32F4-Discovery_FW_V1.1.0/Libraries/STM32F4xx_StdPeriph_Driver/src/stm32f4xx_gpio.c ****   GPIO_InitStruct->GPIO_Pin  = GPIO_Pin_All;
 238:../../STM32F4-Discovery_FW_V1.1.0/Libraries/STM32F4xx_StdPeriph_Driver/src/stm32f4xx_gpio.c ****   GPIO_InitStruct->GPIO_Mode = GPIO_Mode_IN;
 239:../../STM32F4-Discovery_FW_V1.1.0/Libraries/STM32F4xx_StdPeriph_Driver/src/stm32f4xx_gpio.c ****   GPIO_InitStruct->GPIO_Speed = GPIO_Speed_2MHz;
 240:../../STM32F4-Discovery_FW_V1.1.0/Libraries/STM32F4xx_StdPeriph_Driver/src/stm32f4xx_gpio.c ****   GPIO_InitStruct->GPIO_OType = GPIO_OType_PP;
 241:../../STM32F4-Discovery_FW_V1.1.0/Libraries/STM32F4xx_StdPeriph_Driver/src/stm32f4xx_gpio.c ****   GPIO_InitStruct->GPIO_PuPd = GPIO_PuPd_NOPULL;
 242:../../STM32F4-Discovery_FW_V1.1.0/Libraries/STM32F4xx_StdPeriph_Driver/src/stm32f4xx_gpio.c **** }
 243:../../STM32F4-Discovery_FW_V1.1.0/Libraries/STM32F4xx_StdPeriph_Driver/src/stm32f4xx_gpio.c **** 
 244:../../STM32F4-Discovery_FW_V1.1.0/Libraries/STM32F4xx_StdPeriph_Driver/src/stm32f4xx_gpio.c **** /**
 245:../../STM32F4-Discovery_FW_V1.1.0/Libraries/STM32F4xx_StdPeriph_Driver/src/stm32f4xx_gpio.c ****   * @brief  Locks GPIO Pins configuration registers.
 246:../../STM32F4-Discovery_FW_V1.1.0/Libraries/STM32F4xx_StdPeriph_Driver/src/stm32f4xx_gpio.c ****   * @note   The locked registers are GPIOx_MODER, GPIOx_OTYPER, GPIOx_OSPEEDR,
 247:../../STM32F4-Discovery_FW_V1.1.0/Libraries/STM32F4xx_StdPeriph_Driver/src/stm32f4xx_gpio.c ****   *         GPIOx_PUPDR, GPIOx_AFRL and GPIOx_AFRH.
 248:../../STM32F4-Discovery_FW_V1.1.0/Libraries/STM32F4xx_StdPeriph_Driver/src/stm32f4xx_gpio.c ****   * @note   The configuration of the locked GPIO pins can no longer be modified
 249:../../STM32F4-Discovery_FW_V1.1.0/Libraries/STM32F4xx_StdPeriph_Driver/src/stm32f4xx_gpio.c ****   *         until the next reset.
 250:../../STM32F4-Discovery_FW_V1.1.0/Libraries/STM32F4xx_StdPeriph_Driver/src/stm32f4xx_gpio.c ****   * @param  GPIOx: where x can be (A..I) to select the GPIO peripheral.
 251:../../STM32F4-Discovery_FW_V1.1.0/Libraries/STM32F4xx_StdPeriph_Driver/src/stm32f4xx_gpio.c ****   * @param  GPIO_Pin: specifies the port bit to be locked.
 252:../../STM32F4-Discovery_FW_V1.1.0/Libraries/STM32F4xx_StdPeriph_Driver/src/stm32f4xx_gpio.c ****   *          This parameter can be any combination of GPIO_Pin_x where x can be (0..15).
 253:../../STM32F4-Discovery_FW_V1.1.0/Libraries/STM32F4xx_StdPeriph_Driver/src/stm32f4xx_gpio.c ****   * @retval None
 254:../../STM32F4-Discovery_FW_V1.1.0/Libraries/STM32F4xx_StdPeriph_Driver/src/stm32f4xx_gpio.c ****   */
 255:../../STM32F4-Discovery_FW_V1.1.0/Libraries/STM32F4xx_StdPeriph_Driver/src/stm32f4xx_gpio.c **** void GPIO_PinLockConfig(GPIO_TypeDef* GPIOx, uint16_t GPIO_Pin)
 256:../../STM32F4-Discovery_FW_V1.1.0/Libraries/STM32F4xx_StdPeriph_Driver/src/stm32f4xx_gpio.c **** {
 257:../../STM32F4-Discovery_FW_V1.1.0/Libraries/STM32F4xx_StdPeriph_Driver/src/stm32f4xx_gpio.c ****   __IO uint32_t tmp = 0x00010000;
 258:../../STM32F4-Discovery_FW_V1.1.0/Libraries/STM32F4xx_StdPeriph_Driver/src/stm32f4xx_gpio.c **** 
 259:../../STM32F4-Discovery_FW_V1.1.0/Libraries/STM32F4xx_StdPeriph_Driver/src/stm32f4xx_gpio.c ****   /* Check the parameters */
 260:../../STM32F4-Discovery_FW_V1.1.0/Libraries/STM32F4xx_StdPeriph_Driver/src/stm32f4xx_gpio.c ****   assert_param(IS_GPIO_ALL_PERIPH(GPIOx));
 261:../../STM32F4-Discovery_FW_V1.1.0/Libraries/STM32F4xx_StdPeriph_Driver/src/stm32f4xx_gpio.c ****   assert_param(IS_GPIO_PIN(GPIO_Pin));
 262:../../STM32F4-Discovery_FW_V1.1.0/Libraries/STM32F4xx_StdPeriph_Driver/src/stm32f4xx_gpio.c **** 
 263:../../STM32F4-Discovery_FW_V1.1.0/Libraries/STM32F4xx_StdPeriph_Driver/src/stm32f4xx_gpio.c ****   tmp |= GPIO_Pin;
 264:../../STM32F4-Discovery_FW_V1.1.0/Libraries/STM32F4xx_StdPeriph_Driver/src/stm32f4xx_gpio.c ****   /* Set LCKK bit */
 265:../../STM32F4-Discovery_FW_V1.1.0/Libraries/STM32F4xx_StdPeriph_Driver/src/stm32f4xx_gpio.c ****   GPIOx->LCKR = tmp;
 266:../../STM32F4-Discovery_FW_V1.1.0/Libraries/STM32F4xx_StdPeriph_Driver/src/stm32f4xx_gpio.c ****   /* Reset LCKK bit */
 267:../../STM32F4-Discovery_FW_V1.1.0/Libraries/STM32F4xx_StdPeriph_Driver/src/stm32f4xx_gpio.c ****   GPIOx->LCKR =  GPIO_Pin;
 268:../../STM32F4-Discovery_FW_V1.1.0/Libraries/STM32F4xx_StdPeriph_Driver/src/stm32f4xx_gpio.c ****   /* Set LCKK bit */
 269:../../STM32F4-Discovery_FW_V1.1.0/Libraries/STM32F4xx_StdPeriph_Driver/src/stm32f4xx_gpio.c ****   GPIOx->LCKR = tmp;
 270:../../STM32F4-Discovery_FW_V1.1.0/Libraries/STM32F4xx_StdPeriph_Driver/src/stm32f4xx_gpio.c ****   /* Read LCKK bit*/
 271:../../STM32F4-Discovery_FW_V1.1.0/Libraries/STM32F4xx_StdPeriph_Driver/src/stm32f4xx_gpio.c ****   tmp = GPIOx->LCKR;
 272:../../STM32F4-Discovery_FW_V1.1.0/Libraries/STM32F4xx_StdPeriph_Driver/src/stm32f4xx_gpio.c ****   /* Read LCKK bit*/
 273:../../STM32F4-Discovery_FW_V1.1.0/Libraries/STM32F4xx_StdPeriph_Driver/src/stm32f4xx_gpio.c ****   tmp = GPIOx->LCKR;
 274:../../STM32F4-Discovery_FW_V1.1.0/Libraries/STM32F4xx_StdPeriph_Driver/src/stm32f4xx_gpio.c **** }
 275:../../STM32F4-Discovery_FW_V1.1.0/Libraries/STM32F4xx_StdPeriph_Driver/src/stm32f4xx_gpio.c **** 
 276:../../STM32F4-Discovery_FW_V1.1.0/Libraries/STM32F4xx_StdPeriph_Driver/src/stm32f4xx_gpio.c **** /**
 277:../../STM32F4-Discovery_FW_V1.1.0/Libraries/STM32F4xx_StdPeriph_Driver/src/stm32f4xx_gpio.c ****   * @}
 278:../../STM32F4-Discovery_FW_V1.1.0/Libraries/STM32F4xx_StdPeriph_Driver/src/stm32f4xx_gpio.c ****   */
 279:../../STM32F4-Discovery_FW_V1.1.0/Libraries/STM32F4xx_StdPeriph_Driver/src/stm32f4xx_gpio.c **** 
 280:../../STM32F4-Discovery_FW_V1.1.0/Libraries/STM32F4xx_StdPeriph_Driver/src/stm32f4xx_gpio.c **** /** @defgroup GPIO_Group2 GPIO Read and Write
 281:../../STM32F4-Discovery_FW_V1.1.0/Libraries/STM32F4xx_StdPeriph_Driver/src/stm32f4xx_gpio.c ****  *  @brief   GPIO Read and Write
 282:../../STM32F4-Discovery_FW_V1.1.0/Libraries/STM32F4xx_StdPeriph_Driver/src/stm32f4xx_gpio.c ****  *
 283:../../STM32F4-Discovery_FW_V1.1.0/Libraries/STM32F4xx_StdPeriph_Driver/src/stm32f4xx_gpio.c **** @verbatim   
 284:../../STM32F4-Discovery_FW_V1.1.0/Libraries/STM32F4xx_StdPeriph_Driver/src/stm32f4xx_gpio.c ****  ===============================================================================
 285:../../STM32F4-Discovery_FW_V1.1.0/Libraries/STM32F4xx_StdPeriph_Driver/src/stm32f4xx_gpio.c ****                               GPIO Read and Write
 286:../../STM32F4-Discovery_FW_V1.1.0/Libraries/STM32F4xx_StdPeriph_Driver/src/stm32f4xx_gpio.c ****  ===============================================================================  
 287:../../STM32F4-Discovery_FW_V1.1.0/Libraries/STM32F4xx_StdPeriph_Driver/src/stm32f4xx_gpio.c **** 
 288:../../STM32F4-Discovery_FW_V1.1.0/Libraries/STM32F4xx_StdPeriph_Driver/src/stm32f4xx_gpio.c **** @endverbatim
 289:../../STM32F4-Discovery_FW_V1.1.0/Libraries/STM32F4xx_StdPeriph_Driver/src/stm32f4xx_gpio.c ****   * @{
 290:../../STM32F4-Discovery_FW_V1.1.0/Libraries/STM32F4xx_StdPeriph_Driver/src/stm32f4xx_gpio.c ****   */
 291:../../STM32F4-Discovery_FW_V1.1.0/Libraries/STM32F4xx_StdPeriph_Driver/src/stm32f4xx_gpio.c **** 
 292:../../STM32F4-Discovery_FW_V1.1.0/Libraries/STM32F4xx_StdPeriph_Driver/src/stm32f4xx_gpio.c **** /**
ARM GAS  /tmp/cccCAPpj.s 			page 12


 293:../../STM32F4-Discovery_FW_V1.1.0/Libraries/STM32F4xx_StdPeriph_Driver/src/stm32f4xx_gpio.c ****   * @brief  Reads the specified input port pin.
 294:../../STM32F4-Discovery_FW_V1.1.0/Libraries/STM32F4xx_StdPeriph_Driver/src/stm32f4xx_gpio.c ****   * @param  GPIOx: where x can be (A..I) to select the GPIO peripheral.
 295:../../STM32F4-Discovery_FW_V1.1.0/Libraries/STM32F4xx_StdPeriph_Driver/src/stm32f4xx_gpio.c ****   * @param  GPIO_Pin: specifies the port bit to read.
 296:../../STM32F4-Discovery_FW_V1.1.0/Libraries/STM32F4xx_StdPeriph_Driver/src/stm32f4xx_gpio.c ****   *         This parameter can be GPIO_Pin_x where x can be (0..15).
 297:../../STM32F4-Discovery_FW_V1.1.0/Libraries/STM32F4xx_StdPeriph_Driver/src/stm32f4xx_gpio.c ****   * @retval The input port pin value.
 298:../../STM32F4-Discovery_FW_V1.1.0/Libraries/STM32F4xx_StdPeriph_Driver/src/stm32f4xx_gpio.c ****   */
 299:../../STM32F4-Discovery_FW_V1.1.0/Libraries/STM32F4xx_StdPeriph_Driver/src/stm32f4xx_gpio.c **** uint8_t GPIO_ReadInputDataBit(GPIO_TypeDef* GPIOx, uint16_t GPIO_Pin)
 300:../../STM32F4-Discovery_FW_V1.1.0/Libraries/STM32F4xx_StdPeriph_Driver/src/stm32f4xx_gpio.c **** {
 301:../../STM32F4-Discovery_FW_V1.1.0/Libraries/STM32F4xx_StdPeriph_Driver/src/stm32f4xx_gpio.c ****   uint8_t bitstatus = 0x00;
 302:../../STM32F4-Discovery_FW_V1.1.0/Libraries/STM32F4xx_StdPeriph_Driver/src/stm32f4xx_gpio.c **** 
 303:../../STM32F4-Discovery_FW_V1.1.0/Libraries/STM32F4xx_StdPeriph_Driver/src/stm32f4xx_gpio.c ****   /* Check the parameters */
 304:../../STM32F4-Discovery_FW_V1.1.0/Libraries/STM32F4xx_StdPeriph_Driver/src/stm32f4xx_gpio.c ****   assert_param(IS_GPIO_ALL_PERIPH(GPIOx));
 305:../../STM32F4-Discovery_FW_V1.1.0/Libraries/STM32F4xx_StdPeriph_Driver/src/stm32f4xx_gpio.c ****   assert_param(IS_GET_GPIO_PIN(GPIO_Pin));
 306:../../STM32F4-Discovery_FW_V1.1.0/Libraries/STM32F4xx_StdPeriph_Driver/src/stm32f4xx_gpio.c **** 
 307:../../STM32F4-Discovery_FW_V1.1.0/Libraries/STM32F4xx_StdPeriph_Driver/src/stm32f4xx_gpio.c ****   if ((GPIOx->IDR & GPIO_Pin) != (uint32_t)Bit_RESET)
 308:../../STM32F4-Discovery_FW_V1.1.0/Libraries/STM32F4xx_StdPeriph_Driver/src/stm32f4xx_gpio.c ****   {
 309:../../STM32F4-Discovery_FW_V1.1.0/Libraries/STM32F4xx_StdPeriph_Driver/src/stm32f4xx_gpio.c ****     bitstatus = (uint8_t)Bit_SET;
 310:../../STM32F4-Discovery_FW_V1.1.0/Libraries/STM32F4xx_StdPeriph_Driver/src/stm32f4xx_gpio.c ****   }
 311:../../STM32F4-Discovery_FW_V1.1.0/Libraries/STM32F4xx_StdPeriph_Driver/src/stm32f4xx_gpio.c ****   else
 312:../../STM32F4-Discovery_FW_V1.1.0/Libraries/STM32F4xx_StdPeriph_Driver/src/stm32f4xx_gpio.c ****   {
 313:../../STM32F4-Discovery_FW_V1.1.0/Libraries/STM32F4xx_StdPeriph_Driver/src/stm32f4xx_gpio.c ****     bitstatus = (uint8_t)Bit_RESET;
 314:../../STM32F4-Discovery_FW_V1.1.0/Libraries/STM32F4xx_StdPeriph_Driver/src/stm32f4xx_gpio.c ****   }
 315:../../STM32F4-Discovery_FW_V1.1.0/Libraries/STM32F4xx_StdPeriph_Driver/src/stm32f4xx_gpio.c ****   return bitstatus;
 316:../../STM32F4-Discovery_FW_V1.1.0/Libraries/STM32F4xx_StdPeriph_Driver/src/stm32f4xx_gpio.c **** }
 317:../../STM32F4-Discovery_FW_V1.1.0/Libraries/STM32F4xx_StdPeriph_Driver/src/stm32f4xx_gpio.c **** 
 318:../../STM32F4-Discovery_FW_V1.1.0/Libraries/STM32F4xx_StdPeriph_Driver/src/stm32f4xx_gpio.c **** /**
 319:../../STM32F4-Discovery_FW_V1.1.0/Libraries/STM32F4xx_StdPeriph_Driver/src/stm32f4xx_gpio.c ****   * @brief  Reads the specified GPIO input data port.
 320:../../STM32F4-Discovery_FW_V1.1.0/Libraries/STM32F4xx_StdPeriph_Driver/src/stm32f4xx_gpio.c ****   * @param  GPIOx: where x can be (A..I) to select the GPIO peripheral.
 321:../../STM32F4-Discovery_FW_V1.1.0/Libraries/STM32F4xx_StdPeriph_Driver/src/stm32f4xx_gpio.c ****   * @retval GPIO input data port value.
 322:../../STM32F4-Discovery_FW_V1.1.0/Libraries/STM32F4xx_StdPeriph_Driver/src/stm32f4xx_gpio.c ****   */
 323:../../STM32F4-Discovery_FW_V1.1.0/Libraries/STM32F4xx_StdPeriph_Driver/src/stm32f4xx_gpio.c **** uint16_t GPIO_ReadInputData(GPIO_TypeDef* GPIOx)
 324:../../STM32F4-Discovery_FW_V1.1.0/Libraries/STM32F4xx_StdPeriph_Driver/src/stm32f4xx_gpio.c **** {
 325:../../STM32F4-Discovery_FW_V1.1.0/Libraries/STM32F4xx_StdPeriph_Driver/src/stm32f4xx_gpio.c ****   /* Check the parameters */
 326:../../STM32F4-Discovery_FW_V1.1.0/Libraries/STM32F4xx_StdPeriph_Driver/src/stm32f4xx_gpio.c ****   assert_param(IS_GPIO_ALL_PERIPH(GPIOx));
 327:../../STM32F4-Discovery_FW_V1.1.0/Libraries/STM32F4xx_StdPeriph_Driver/src/stm32f4xx_gpio.c **** 
 328:../../STM32F4-Discovery_FW_V1.1.0/Libraries/STM32F4xx_StdPeriph_Driver/src/stm32f4xx_gpio.c ****   return ((uint16_t)GPIOx->IDR);
 329:../../STM32F4-Discovery_FW_V1.1.0/Libraries/STM32F4xx_StdPeriph_Driver/src/stm32f4xx_gpio.c **** }
 330:../../STM32F4-Discovery_FW_V1.1.0/Libraries/STM32F4xx_StdPeriph_Driver/src/stm32f4xx_gpio.c **** 
 331:../../STM32F4-Discovery_FW_V1.1.0/Libraries/STM32F4xx_StdPeriph_Driver/src/stm32f4xx_gpio.c **** /**
 332:../../STM32F4-Discovery_FW_V1.1.0/Libraries/STM32F4xx_StdPeriph_Driver/src/stm32f4xx_gpio.c ****   * @brief  Reads the specified output data port bit.
 333:../../STM32F4-Discovery_FW_V1.1.0/Libraries/STM32F4xx_StdPeriph_Driver/src/stm32f4xx_gpio.c ****   * @param  GPIOx: where x can be (A..I) to select the GPIO peripheral.
 334:../../STM32F4-Discovery_FW_V1.1.0/Libraries/STM32F4xx_StdPeriph_Driver/src/stm32f4xx_gpio.c ****   * @param  GPIO_Pin: specifies the port bit to read.
 335:../../STM32F4-Discovery_FW_V1.1.0/Libraries/STM32F4xx_StdPeriph_Driver/src/stm32f4xx_gpio.c ****   *          This parameter can be GPIO_Pin_x where x can be (0..15).
 336:../../STM32F4-Discovery_FW_V1.1.0/Libraries/STM32F4xx_StdPeriph_Driver/src/stm32f4xx_gpio.c ****   * @retval The output port pin value.
 337:../../STM32F4-Discovery_FW_V1.1.0/Libraries/STM32F4xx_StdPeriph_Driver/src/stm32f4xx_gpio.c ****   */
 338:../../STM32F4-Discovery_FW_V1.1.0/Libraries/STM32F4xx_StdPeriph_Driver/src/stm32f4xx_gpio.c **** uint8_t GPIO_ReadOutputDataBit(GPIO_TypeDef* GPIOx, uint16_t GPIO_Pin)
 339:../../STM32F4-Discovery_FW_V1.1.0/Libraries/STM32F4xx_StdPeriph_Driver/src/stm32f4xx_gpio.c **** {
 340:../../STM32F4-Discovery_FW_V1.1.0/Libraries/STM32F4xx_StdPeriph_Driver/src/stm32f4xx_gpio.c ****   uint8_t bitstatus = 0x00;
 341:../../STM32F4-Discovery_FW_V1.1.0/Libraries/STM32F4xx_StdPeriph_Driver/src/stm32f4xx_gpio.c **** 
 342:../../STM32F4-Discovery_FW_V1.1.0/Libraries/STM32F4xx_StdPeriph_Driver/src/stm32f4xx_gpio.c ****   /* Check the parameters */
 343:../../STM32F4-Discovery_FW_V1.1.0/Libraries/STM32F4xx_StdPeriph_Driver/src/stm32f4xx_gpio.c ****   assert_param(IS_GPIO_ALL_PERIPH(GPIOx));
 344:../../STM32F4-Discovery_FW_V1.1.0/Libraries/STM32F4xx_StdPeriph_Driver/src/stm32f4xx_gpio.c ****   assert_param(IS_GET_GPIO_PIN(GPIO_Pin));
 345:../../STM32F4-Discovery_FW_V1.1.0/Libraries/STM32F4xx_StdPeriph_Driver/src/stm32f4xx_gpio.c **** 
 346:../../STM32F4-Discovery_FW_V1.1.0/Libraries/STM32F4xx_StdPeriph_Driver/src/stm32f4xx_gpio.c ****   if ((GPIOx->ODR & GPIO_Pin) != (uint32_t)Bit_RESET)
 347:../../STM32F4-Discovery_FW_V1.1.0/Libraries/STM32F4xx_StdPeriph_Driver/src/stm32f4xx_gpio.c ****   {
 348:../../STM32F4-Discovery_FW_V1.1.0/Libraries/STM32F4xx_StdPeriph_Driver/src/stm32f4xx_gpio.c ****     bitstatus = (uint8_t)Bit_SET;
 349:../../STM32F4-Discovery_FW_V1.1.0/Libraries/STM32F4xx_StdPeriph_Driver/src/stm32f4xx_gpio.c ****   }
ARM GAS  /tmp/cccCAPpj.s 			page 13


 350:../../STM32F4-Discovery_FW_V1.1.0/Libraries/STM32F4xx_StdPeriph_Driver/src/stm32f4xx_gpio.c ****   else
 351:../../STM32F4-Discovery_FW_V1.1.0/Libraries/STM32F4xx_StdPeriph_Driver/src/stm32f4xx_gpio.c ****   {
 352:../../STM32F4-Discovery_FW_V1.1.0/Libraries/STM32F4xx_StdPeriph_Driver/src/stm32f4xx_gpio.c ****     bitstatus = (uint8_t)Bit_RESET;
 353:../../STM32F4-Discovery_FW_V1.1.0/Libraries/STM32F4xx_StdPeriph_Driver/src/stm32f4xx_gpio.c ****   }
 354:../../STM32F4-Discovery_FW_V1.1.0/Libraries/STM32F4xx_StdPeriph_Driver/src/stm32f4xx_gpio.c ****   return bitstatus;
 355:../../STM32F4-Discovery_FW_V1.1.0/Libraries/STM32F4xx_StdPeriph_Driver/src/stm32f4xx_gpio.c **** }
 356:../../STM32F4-Discovery_FW_V1.1.0/Libraries/STM32F4xx_StdPeriph_Driver/src/stm32f4xx_gpio.c **** 
 357:../../STM32F4-Discovery_FW_V1.1.0/Libraries/STM32F4xx_StdPeriph_Driver/src/stm32f4xx_gpio.c **** /**
 358:../../STM32F4-Discovery_FW_V1.1.0/Libraries/STM32F4xx_StdPeriph_Driver/src/stm32f4xx_gpio.c ****   * @brief  Reads the specified GPIO output data port.
 359:../../STM32F4-Discovery_FW_V1.1.0/Libraries/STM32F4xx_StdPeriph_Driver/src/stm32f4xx_gpio.c ****   * @param  GPIOx: where x can be (A..I) to select the GPIO peripheral.
 360:../../STM32F4-Discovery_FW_V1.1.0/Libraries/STM32F4xx_StdPeriph_Driver/src/stm32f4xx_gpio.c ****   * @retval GPIO output data port value.
 361:../../STM32F4-Discovery_FW_V1.1.0/Libraries/STM32F4xx_StdPeriph_Driver/src/stm32f4xx_gpio.c ****   */
 362:../../STM32F4-Discovery_FW_V1.1.0/Libraries/STM32F4xx_StdPeriph_Driver/src/stm32f4xx_gpio.c **** uint16_t GPIO_ReadOutputData(GPIO_TypeDef* GPIOx)
 363:../../STM32F4-Discovery_FW_V1.1.0/Libraries/STM32F4xx_StdPeriph_Driver/src/stm32f4xx_gpio.c **** {
 364:../../STM32F4-Discovery_FW_V1.1.0/Libraries/STM32F4xx_StdPeriph_Driver/src/stm32f4xx_gpio.c ****   /* Check the parameters */
 365:../../STM32F4-Discovery_FW_V1.1.0/Libraries/STM32F4xx_StdPeriph_Driver/src/stm32f4xx_gpio.c ****   assert_param(IS_GPIO_ALL_PERIPH(GPIOx));
 366:../../STM32F4-Discovery_FW_V1.1.0/Libraries/STM32F4xx_StdPeriph_Driver/src/stm32f4xx_gpio.c **** 
 367:../../STM32F4-Discovery_FW_V1.1.0/Libraries/STM32F4xx_StdPeriph_Driver/src/stm32f4xx_gpio.c ****   return ((uint16_t)GPIOx->ODR);
 368:../../STM32F4-Discovery_FW_V1.1.0/Libraries/STM32F4xx_StdPeriph_Driver/src/stm32f4xx_gpio.c **** }
 369:../../STM32F4-Discovery_FW_V1.1.0/Libraries/STM32F4xx_StdPeriph_Driver/src/stm32f4xx_gpio.c **** 
 370:../../STM32F4-Discovery_FW_V1.1.0/Libraries/STM32F4xx_StdPeriph_Driver/src/stm32f4xx_gpio.c **** /**
 371:../../STM32F4-Discovery_FW_V1.1.0/Libraries/STM32F4xx_StdPeriph_Driver/src/stm32f4xx_gpio.c ****   * @brief  Sets the selected data port bits.
 372:../../STM32F4-Discovery_FW_V1.1.0/Libraries/STM32F4xx_StdPeriph_Driver/src/stm32f4xx_gpio.c ****   * @note   This functions uses GPIOx_BSRR register to allow atomic read/modify 
 373:../../STM32F4-Discovery_FW_V1.1.0/Libraries/STM32F4xx_StdPeriph_Driver/src/stm32f4xx_gpio.c ****   *         accesses. In this way, there is no risk of an IRQ occurring between
 374:../../STM32F4-Discovery_FW_V1.1.0/Libraries/STM32F4xx_StdPeriph_Driver/src/stm32f4xx_gpio.c ****   *         the read and the modify access.
 375:../../STM32F4-Discovery_FW_V1.1.0/Libraries/STM32F4xx_StdPeriph_Driver/src/stm32f4xx_gpio.c ****   * @param  GPIOx: where x can be (A..I) to select the GPIO peripheral.
 376:../../STM32F4-Discovery_FW_V1.1.0/Libraries/STM32F4xx_StdPeriph_Driver/src/stm32f4xx_gpio.c ****   * @param  GPIO_Pin: specifies the port bits to be written.
 377:../../STM32F4-Discovery_FW_V1.1.0/Libraries/STM32F4xx_StdPeriph_Driver/src/stm32f4xx_gpio.c ****   *          This parameter can be any combination of GPIO_Pin_x where x can be (0..15).
 378:../../STM32F4-Discovery_FW_V1.1.0/Libraries/STM32F4xx_StdPeriph_Driver/src/stm32f4xx_gpio.c ****   * @retval None
 379:../../STM32F4-Discovery_FW_V1.1.0/Libraries/STM32F4xx_StdPeriph_Driver/src/stm32f4xx_gpio.c ****   */
 380:../../STM32F4-Discovery_FW_V1.1.0/Libraries/STM32F4xx_StdPeriph_Driver/src/stm32f4xx_gpio.c **** void GPIO_SetBits(GPIO_TypeDef* GPIOx, uint16_t GPIO_Pin)
 381:../../STM32F4-Discovery_FW_V1.1.0/Libraries/STM32F4xx_StdPeriph_Driver/src/stm32f4xx_gpio.c **** {
 382:../../STM32F4-Discovery_FW_V1.1.0/Libraries/STM32F4xx_StdPeriph_Driver/src/stm32f4xx_gpio.c ****   /* Check the parameters */
 383:../../STM32F4-Discovery_FW_V1.1.0/Libraries/STM32F4xx_StdPeriph_Driver/src/stm32f4xx_gpio.c ****   assert_param(IS_GPIO_ALL_PERIPH(GPIOx));
 384:../../STM32F4-Discovery_FW_V1.1.0/Libraries/STM32F4xx_StdPeriph_Driver/src/stm32f4xx_gpio.c ****   assert_param(IS_GPIO_PIN(GPIO_Pin));
 385:../../STM32F4-Discovery_FW_V1.1.0/Libraries/STM32F4xx_StdPeriph_Driver/src/stm32f4xx_gpio.c **** 
 386:../../STM32F4-Discovery_FW_V1.1.0/Libraries/STM32F4xx_StdPeriph_Driver/src/stm32f4xx_gpio.c ****   GPIOx->BSRRL = GPIO_Pin;
 387:../../STM32F4-Discovery_FW_V1.1.0/Libraries/STM32F4xx_StdPeriph_Driver/src/stm32f4xx_gpio.c **** }
 388:../../STM32F4-Discovery_FW_V1.1.0/Libraries/STM32F4xx_StdPeriph_Driver/src/stm32f4xx_gpio.c **** 
 389:../../STM32F4-Discovery_FW_V1.1.0/Libraries/STM32F4xx_StdPeriph_Driver/src/stm32f4xx_gpio.c **** /**
 390:../../STM32F4-Discovery_FW_V1.1.0/Libraries/STM32F4xx_StdPeriph_Driver/src/stm32f4xx_gpio.c ****   * @brief  Clears the selected data port bits.
 391:../../STM32F4-Discovery_FW_V1.1.0/Libraries/STM32F4xx_StdPeriph_Driver/src/stm32f4xx_gpio.c ****   * @note   This functions uses GPIOx_BSRR register to allow atomic read/modify 
 392:../../STM32F4-Discovery_FW_V1.1.0/Libraries/STM32F4xx_StdPeriph_Driver/src/stm32f4xx_gpio.c ****   *         accesses. In this way, there is no risk of an IRQ occurring between
 393:../../STM32F4-Discovery_FW_V1.1.0/Libraries/STM32F4xx_StdPeriph_Driver/src/stm32f4xx_gpio.c ****   *         the read and the modify access.
 394:../../STM32F4-Discovery_FW_V1.1.0/Libraries/STM32F4xx_StdPeriph_Driver/src/stm32f4xx_gpio.c ****   * @param  GPIOx: where x can be (A..I) to select the GPIO peripheral.
 395:../../STM32F4-Discovery_FW_V1.1.0/Libraries/STM32F4xx_StdPeriph_Driver/src/stm32f4xx_gpio.c ****   * @param  GPIO_Pin: specifies the port bits to be written.
 396:../../STM32F4-Discovery_FW_V1.1.0/Libraries/STM32F4xx_StdPeriph_Driver/src/stm32f4xx_gpio.c ****   *          This parameter can be any combination of GPIO_Pin_x where x can be (0..15).
 397:../../STM32F4-Discovery_FW_V1.1.0/Libraries/STM32F4xx_StdPeriph_Driver/src/stm32f4xx_gpio.c ****   * @retval None
 398:../../STM32F4-Discovery_FW_V1.1.0/Libraries/STM32F4xx_StdPeriph_Driver/src/stm32f4xx_gpio.c ****   */
 399:../../STM32F4-Discovery_FW_V1.1.0/Libraries/STM32F4xx_StdPeriph_Driver/src/stm32f4xx_gpio.c **** void GPIO_ResetBits(GPIO_TypeDef* GPIOx, uint16_t GPIO_Pin)
 400:../../STM32F4-Discovery_FW_V1.1.0/Libraries/STM32F4xx_StdPeriph_Driver/src/stm32f4xx_gpio.c **** {
 401:../../STM32F4-Discovery_FW_V1.1.0/Libraries/STM32F4xx_StdPeriph_Driver/src/stm32f4xx_gpio.c ****   /* Check the parameters */
 402:../../STM32F4-Discovery_FW_V1.1.0/Libraries/STM32F4xx_StdPeriph_Driver/src/stm32f4xx_gpio.c ****   assert_param(IS_GPIO_ALL_PERIPH(GPIOx));
 403:../../STM32F4-Discovery_FW_V1.1.0/Libraries/STM32F4xx_StdPeriph_Driver/src/stm32f4xx_gpio.c ****   assert_param(IS_GPIO_PIN(GPIO_Pin));
 404:../../STM32F4-Discovery_FW_V1.1.0/Libraries/STM32F4xx_StdPeriph_Driver/src/stm32f4xx_gpio.c **** 
 405:../../STM32F4-Discovery_FW_V1.1.0/Libraries/STM32F4xx_StdPeriph_Driver/src/stm32f4xx_gpio.c ****   GPIOx->BSRRH = GPIO_Pin;
 406:../../STM32F4-Discovery_FW_V1.1.0/Libraries/STM32F4xx_StdPeriph_Driver/src/stm32f4xx_gpio.c **** }
ARM GAS  /tmp/cccCAPpj.s 			page 14


 407:../../STM32F4-Discovery_FW_V1.1.0/Libraries/STM32F4xx_StdPeriph_Driver/src/stm32f4xx_gpio.c **** 
 408:../../STM32F4-Discovery_FW_V1.1.0/Libraries/STM32F4xx_StdPeriph_Driver/src/stm32f4xx_gpio.c **** /**
 409:../../STM32F4-Discovery_FW_V1.1.0/Libraries/STM32F4xx_StdPeriph_Driver/src/stm32f4xx_gpio.c ****   * @brief  Sets or clears the selected data port bit.
 410:../../STM32F4-Discovery_FW_V1.1.0/Libraries/STM32F4xx_StdPeriph_Driver/src/stm32f4xx_gpio.c ****   * @param  GPIOx: where x can be (A..I) to select the GPIO peripheral.
 411:../../STM32F4-Discovery_FW_V1.1.0/Libraries/STM32F4xx_StdPeriph_Driver/src/stm32f4xx_gpio.c ****   * @param  GPIO_Pin: specifies the port bit to be written.
 412:../../STM32F4-Discovery_FW_V1.1.0/Libraries/STM32F4xx_StdPeriph_Driver/src/stm32f4xx_gpio.c ****   *          This parameter can be one of GPIO_Pin_x where x can be (0..15).
 413:../../STM32F4-Discovery_FW_V1.1.0/Libraries/STM32F4xx_StdPeriph_Driver/src/stm32f4xx_gpio.c ****   * @param  BitVal: specifies the value to be written to the selected bit.
 414:../../STM32F4-Discovery_FW_V1.1.0/Libraries/STM32F4xx_StdPeriph_Driver/src/stm32f4xx_gpio.c ****   *          This parameter can be one of the BitAction enum values:
 415:../../STM32F4-Discovery_FW_V1.1.0/Libraries/STM32F4xx_StdPeriph_Driver/src/stm32f4xx_gpio.c ****   *            @arg Bit_RESET: to clear the port pin
 416:../../STM32F4-Discovery_FW_V1.1.0/Libraries/STM32F4xx_StdPeriph_Driver/src/stm32f4xx_gpio.c ****   *            @arg Bit_SET: to set the port pin
 417:../../STM32F4-Discovery_FW_V1.1.0/Libraries/STM32F4xx_StdPeriph_Driver/src/stm32f4xx_gpio.c ****   * @retval None
 418:../../STM32F4-Discovery_FW_V1.1.0/Libraries/STM32F4xx_StdPeriph_Driver/src/stm32f4xx_gpio.c ****   */
 419:../../STM32F4-Discovery_FW_V1.1.0/Libraries/STM32F4xx_StdPeriph_Driver/src/stm32f4xx_gpio.c **** void GPIO_WriteBit(GPIO_TypeDef* GPIOx, uint16_t GPIO_Pin, BitAction BitVal)
 420:../../STM32F4-Discovery_FW_V1.1.0/Libraries/STM32F4xx_StdPeriph_Driver/src/stm32f4xx_gpio.c **** {
 421:../../STM32F4-Discovery_FW_V1.1.0/Libraries/STM32F4xx_StdPeriph_Driver/src/stm32f4xx_gpio.c ****   /* Check the parameters */
 422:../../STM32F4-Discovery_FW_V1.1.0/Libraries/STM32F4xx_StdPeriph_Driver/src/stm32f4xx_gpio.c ****   assert_param(IS_GPIO_ALL_PERIPH(GPIOx));
 423:../../STM32F4-Discovery_FW_V1.1.0/Libraries/STM32F4xx_StdPeriph_Driver/src/stm32f4xx_gpio.c ****   assert_param(IS_GET_GPIO_PIN(GPIO_Pin));
 424:../../STM32F4-Discovery_FW_V1.1.0/Libraries/STM32F4xx_StdPeriph_Driver/src/stm32f4xx_gpio.c ****   assert_param(IS_GPIO_BIT_ACTION(BitVal));
 425:../../STM32F4-Discovery_FW_V1.1.0/Libraries/STM32F4xx_StdPeriph_Driver/src/stm32f4xx_gpio.c **** 
 426:../../STM32F4-Discovery_FW_V1.1.0/Libraries/STM32F4xx_StdPeriph_Driver/src/stm32f4xx_gpio.c ****   if (BitVal != Bit_RESET)
 427:../../STM32F4-Discovery_FW_V1.1.0/Libraries/STM32F4xx_StdPeriph_Driver/src/stm32f4xx_gpio.c ****   {
 428:../../STM32F4-Discovery_FW_V1.1.0/Libraries/STM32F4xx_StdPeriph_Driver/src/stm32f4xx_gpio.c ****     GPIOx->BSRRL = GPIO_Pin;
 429:../../STM32F4-Discovery_FW_V1.1.0/Libraries/STM32F4xx_StdPeriph_Driver/src/stm32f4xx_gpio.c ****   }
 430:../../STM32F4-Discovery_FW_V1.1.0/Libraries/STM32F4xx_StdPeriph_Driver/src/stm32f4xx_gpio.c ****   else
 431:../../STM32F4-Discovery_FW_V1.1.0/Libraries/STM32F4xx_StdPeriph_Driver/src/stm32f4xx_gpio.c ****   {
 432:../../STM32F4-Discovery_FW_V1.1.0/Libraries/STM32F4xx_StdPeriph_Driver/src/stm32f4xx_gpio.c ****     GPIOx->BSRRH = GPIO_Pin ;
 433:../../STM32F4-Discovery_FW_V1.1.0/Libraries/STM32F4xx_StdPeriph_Driver/src/stm32f4xx_gpio.c ****   }
 434:../../STM32F4-Discovery_FW_V1.1.0/Libraries/STM32F4xx_StdPeriph_Driver/src/stm32f4xx_gpio.c **** }
 435:../../STM32F4-Discovery_FW_V1.1.0/Libraries/STM32F4xx_StdPeriph_Driver/src/stm32f4xx_gpio.c **** 
 436:../../STM32F4-Discovery_FW_V1.1.0/Libraries/STM32F4xx_StdPeriph_Driver/src/stm32f4xx_gpio.c **** /**
 437:../../STM32F4-Discovery_FW_V1.1.0/Libraries/STM32F4xx_StdPeriph_Driver/src/stm32f4xx_gpio.c ****   * @brief  Writes data to the specified GPIO data port.
 438:../../STM32F4-Discovery_FW_V1.1.0/Libraries/STM32F4xx_StdPeriph_Driver/src/stm32f4xx_gpio.c ****   * @param  GPIOx: where x can be (A..I) to select the GPIO peripheral.
 439:../../STM32F4-Discovery_FW_V1.1.0/Libraries/STM32F4xx_StdPeriph_Driver/src/stm32f4xx_gpio.c ****   * @param  PortVal: specifies the value to be written to the port output data register.
 440:../../STM32F4-Discovery_FW_V1.1.0/Libraries/STM32F4xx_StdPeriph_Driver/src/stm32f4xx_gpio.c ****   * @retval None
 441:../../STM32F4-Discovery_FW_V1.1.0/Libraries/STM32F4xx_StdPeriph_Driver/src/stm32f4xx_gpio.c ****   */
 442:../../STM32F4-Discovery_FW_V1.1.0/Libraries/STM32F4xx_StdPeriph_Driver/src/stm32f4xx_gpio.c **** void GPIO_Write(GPIO_TypeDef* GPIOx, uint16_t PortVal)
 443:../../STM32F4-Discovery_FW_V1.1.0/Libraries/STM32F4xx_StdPeriph_Driver/src/stm32f4xx_gpio.c **** {
 444:../../STM32F4-Discovery_FW_V1.1.0/Libraries/STM32F4xx_StdPeriph_Driver/src/stm32f4xx_gpio.c ****   /* Check the parameters */
 445:../../STM32F4-Discovery_FW_V1.1.0/Libraries/STM32F4xx_StdPeriph_Driver/src/stm32f4xx_gpio.c ****   assert_param(IS_GPIO_ALL_PERIPH(GPIOx));
 446:../../STM32F4-Discovery_FW_V1.1.0/Libraries/STM32F4xx_StdPeriph_Driver/src/stm32f4xx_gpio.c **** 
 447:../../STM32F4-Discovery_FW_V1.1.0/Libraries/STM32F4xx_StdPeriph_Driver/src/stm32f4xx_gpio.c ****   GPIOx->ODR = PortVal;
 448:../../STM32F4-Discovery_FW_V1.1.0/Libraries/STM32F4xx_StdPeriph_Driver/src/stm32f4xx_gpio.c **** }
 449:../../STM32F4-Discovery_FW_V1.1.0/Libraries/STM32F4xx_StdPeriph_Driver/src/stm32f4xx_gpio.c **** 
 450:../../STM32F4-Discovery_FW_V1.1.0/Libraries/STM32F4xx_StdPeriph_Driver/src/stm32f4xx_gpio.c **** /**
 451:../../STM32F4-Discovery_FW_V1.1.0/Libraries/STM32F4xx_StdPeriph_Driver/src/stm32f4xx_gpio.c ****   * @brief  Toggles the specified GPIO pins..
 452:../../STM32F4-Discovery_FW_V1.1.0/Libraries/STM32F4xx_StdPeriph_Driver/src/stm32f4xx_gpio.c ****   * @param  GPIOx: where x can be (A..I) to select the GPIO peripheral.
 453:../../STM32F4-Discovery_FW_V1.1.0/Libraries/STM32F4xx_StdPeriph_Driver/src/stm32f4xx_gpio.c ****   * @param  GPIO_Pin: Specifies the pins to be toggled.
 454:../../STM32F4-Discovery_FW_V1.1.0/Libraries/STM32F4xx_StdPeriph_Driver/src/stm32f4xx_gpio.c ****   * @retval None
 455:../../STM32F4-Discovery_FW_V1.1.0/Libraries/STM32F4xx_StdPeriph_Driver/src/stm32f4xx_gpio.c ****   */
 456:../../STM32F4-Discovery_FW_V1.1.0/Libraries/STM32F4xx_StdPeriph_Driver/src/stm32f4xx_gpio.c **** void GPIO_ToggleBits(GPIO_TypeDef* GPIOx, uint16_t GPIO_Pin)
 457:../../STM32F4-Discovery_FW_V1.1.0/Libraries/STM32F4xx_StdPeriph_Driver/src/stm32f4xx_gpio.c **** {
 458:../../STM32F4-Discovery_FW_V1.1.0/Libraries/STM32F4xx_StdPeriph_Driver/src/stm32f4xx_gpio.c ****   /* Check the parameters */
 459:../../STM32F4-Discovery_FW_V1.1.0/Libraries/STM32F4xx_StdPeriph_Driver/src/stm32f4xx_gpio.c ****   assert_param(IS_GPIO_ALL_PERIPH(GPIOx));
 460:../../STM32F4-Discovery_FW_V1.1.0/Libraries/STM32F4xx_StdPeriph_Driver/src/stm32f4xx_gpio.c **** 
 461:../../STM32F4-Discovery_FW_V1.1.0/Libraries/STM32F4xx_StdPeriph_Driver/src/stm32f4xx_gpio.c ****   GPIOx->ODR ^= GPIO_Pin;
 462:../../STM32F4-Discovery_FW_V1.1.0/Libraries/STM32F4xx_StdPeriph_Driver/src/stm32f4xx_gpio.c **** }
 463:../../STM32F4-Discovery_FW_V1.1.0/Libraries/STM32F4xx_StdPeriph_Driver/src/stm32f4xx_gpio.c **** 
ARM GAS  /tmp/cccCAPpj.s 			page 15


 464:../../STM32F4-Discovery_FW_V1.1.0/Libraries/STM32F4xx_StdPeriph_Driver/src/stm32f4xx_gpio.c **** /**
 465:../../STM32F4-Discovery_FW_V1.1.0/Libraries/STM32F4xx_StdPeriph_Driver/src/stm32f4xx_gpio.c ****   * @}
 466:../../STM32F4-Discovery_FW_V1.1.0/Libraries/STM32F4xx_StdPeriph_Driver/src/stm32f4xx_gpio.c ****   */
 467:../../STM32F4-Discovery_FW_V1.1.0/Libraries/STM32F4xx_StdPeriph_Driver/src/stm32f4xx_gpio.c **** 
 468:../../STM32F4-Discovery_FW_V1.1.0/Libraries/STM32F4xx_StdPeriph_Driver/src/stm32f4xx_gpio.c **** /** @defgroup GPIO_Group3 GPIO Alternate functions configuration function
 469:../../STM32F4-Discovery_FW_V1.1.0/Libraries/STM32F4xx_StdPeriph_Driver/src/stm32f4xx_gpio.c ****  *  @brief   GPIO Alternate functions configuration function
 470:../../STM32F4-Discovery_FW_V1.1.0/Libraries/STM32F4xx_StdPeriph_Driver/src/stm32f4xx_gpio.c ****  *
 471:../../STM32F4-Discovery_FW_V1.1.0/Libraries/STM32F4xx_StdPeriph_Driver/src/stm32f4xx_gpio.c **** @verbatim   
 472:../../STM32F4-Discovery_FW_V1.1.0/Libraries/STM32F4xx_StdPeriph_Driver/src/stm32f4xx_gpio.c ****  ===============================================================================
 473:../../STM32F4-Discovery_FW_V1.1.0/Libraries/STM32F4xx_StdPeriph_Driver/src/stm32f4xx_gpio.c ****                GPIO Alternate functions configuration function
 474:../../STM32F4-Discovery_FW_V1.1.0/Libraries/STM32F4xx_StdPeriph_Driver/src/stm32f4xx_gpio.c ****  ===============================================================================  
 475:../../STM32F4-Discovery_FW_V1.1.0/Libraries/STM32F4xx_StdPeriph_Driver/src/stm32f4xx_gpio.c **** 
 476:../../STM32F4-Discovery_FW_V1.1.0/Libraries/STM32F4xx_StdPeriph_Driver/src/stm32f4xx_gpio.c **** @endverbatim
 477:../../STM32F4-Discovery_FW_V1.1.0/Libraries/STM32F4xx_StdPeriph_Driver/src/stm32f4xx_gpio.c ****   * @{
 478:../../STM32F4-Discovery_FW_V1.1.0/Libraries/STM32F4xx_StdPeriph_Driver/src/stm32f4xx_gpio.c ****   */
 479:../../STM32F4-Discovery_FW_V1.1.0/Libraries/STM32F4xx_StdPeriph_Driver/src/stm32f4xx_gpio.c **** 
 480:../../STM32F4-Discovery_FW_V1.1.0/Libraries/STM32F4xx_StdPeriph_Driver/src/stm32f4xx_gpio.c **** /**
 481:../../STM32F4-Discovery_FW_V1.1.0/Libraries/STM32F4xx_StdPeriph_Driver/src/stm32f4xx_gpio.c ****   * @brief  Changes the mapping of the specified pin.
 482:../../STM32F4-Discovery_FW_V1.1.0/Libraries/STM32F4xx_StdPeriph_Driver/src/stm32f4xx_gpio.c ****   * @param  GPIOx: where x can be (A..I) to select the GPIO peripheral.
 483:../../STM32F4-Discovery_FW_V1.1.0/Libraries/STM32F4xx_StdPeriph_Driver/src/stm32f4xx_gpio.c ****   * @param  GPIO_PinSource: specifies the pin for the Alternate function.
 484:../../STM32F4-Discovery_FW_V1.1.0/Libraries/STM32F4xx_StdPeriph_Driver/src/stm32f4xx_gpio.c ****   *         This parameter can be GPIO_PinSourcex where x can be (0..15).
 485:../../STM32F4-Discovery_FW_V1.1.0/Libraries/STM32F4xx_StdPeriph_Driver/src/stm32f4xx_gpio.c ****   * @param  GPIO_AFSelection: selects the pin to used as Alternate function.
 486:../../STM32F4-Discovery_FW_V1.1.0/Libraries/STM32F4xx_StdPeriph_Driver/src/stm32f4xx_gpio.c ****   *          This parameter can be one of the following values:
 487:../../STM32F4-Discovery_FW_V1.1.0/Libraries/STM32F4xx_StdPeriph_Driver/src/stm32f4xx_gpio.c ****   *            @arg GPIO_AF_RTC_50Hz: Connect RTC_50Hz pin to AF0 (default after reset) 
 488:../../STM32F4-Discovery_FW_V1.1.0/Libraries/STM32F4xx_StdPeriph_Driver/src/stm32f4xx_gpio.c ****   *            @arg GPIO_AF_MCO: Connect MCO pin (MCO1 and MCO2) to AF0 (default after reset) 
 489:../../STM32F4-Discovery_FW_V1.1.0/Libraries/STM32F4xx_StdPeriph_Driver/src/stm32f4xx_gpio.c ****   *            @arg GPIO_AF_TAMPER: Connect TAMPER pins (TAMPER_1 and TAMPER_2) to AF0 (default aft
 490:../../STM32F4-Discovery_FW_V1.1.0/Libraries/STM32F4xx_StdPeriph_Driver/src/stm32f4xx_gpio.c ****   *            @arg GPIO_AF_SWJ: Connect SWJ pins (SWD and JTAG)to AF0 (default after reset) 
 491:../../STM32F4-Discovery_FW_V1.1.0/Libraries/STM32F4xx_StdPeriph_Driver/src/stm32f4xx_gpio.c ****   *            @arg GPIO_AF_TRACE: Connect TRACE pins to AF0 (default after reset)
 492:../../STM32F4-Discovery_FW_V1.1.0/Libraries/STM32F4xx_StdPeriph_Driver/src/stm32f4xx_gpio.c ****   *            @arg GPIO_AF_TIM1: Connect TIM1 pins to AF1
 493:../../STM32F4-Discovery_FW_V1.1.0/Libraries/STM32F4xx_StdPeriph_Driver/src/stm32f4xx_gpio.c ****   *            @arg GPIO_AF_TIM2: Connect TIM2 pins to AF1
 494:../../STM32F4-Discovery_FW_V1.1.0/Libraries/STM32F4xx_StdPeriph_Driver/src/stm32f4xx_gpio.c ****   *            @arg GPIO_AF_TIM3: Connect TIM3 pins to AF2
 495:../../STM32F4-Discovery_FW_V1.1.0/Libraries/STM32F4xx_StdPeriph_Driver/src/stm32f4xx_gpio.c ****   *            @arg GPIO_AF_TIM4: Connect TIM4 pins to AF2
 496:../../STM32F4-Discovery_FW_V1.1.0/Libraries/STM32F4xx_StdPeriph_Driver/src/stm32f4xx_gpio.c ****   *            @arg GPIO_AF_TIM5: Connect TIM5 pins to AF2
 497:../../STM32F4-Discovery_FW_V1.1.0/Libraries/STM32F4xx_StdPeriph_Driver/src/stm32f4xx_gpio.c ****   *            @arg GPIO_AF_TIM8: Connect TIM8 pins to AF3
 498:../../STM32F4-Discovery_FW_V1.1.0/Libraries/STM32F4xx_StdPeriph_Driver/src/stm32f4xx_gpio.c ****   *            @arg GPIO_AF_TIM9: Connect TIM9 pins to AF3
 499:../../STM32F4-Discovery_FW_V1.1.0/Libraries/STM32F4xx_StdPeriph_Driver/src/stm32f4xx_gpio.c ****   *            @arg GPIO_AF_TIM10: Connect TIM10 pins to AF3
 500:../../STM32F4-Discovery_FW_V1.1.0/Libraries/STM32F4xx_StdPeriph_Driver/src/stm32f4xx_gpio.c ****   *            @arg GPIO_AF_TIM11: Connect TIM11 pins to AF3
 501:../../STM32F4-Discovery_FW_V1.1.0/Libraries/STM32F4xx_StdPeriph_Driver/src/stm32f4xx_gpio.c ****   *            @arg GPIO_AF_I2C1: Connect I2C1 pins to AF4
 502:../../STM32F4-Discovery_FW_V1.1.0/Libraries/STM32F4xx_StdPeriph_Driver/src/stm32f4xx_gpio.c ****   *            @arg GPIO_AF_I2C2: Connect I2C2 pins to AF4
 503:../../STM32F4-Discovery_FW_V1.1.0/Libraries/STM32F4xx_StdPeriph_Driver/src/stm32f4xx_gpio.c ****   *            @arg GPIO_AF_I2C3: Connect I2C3 pins to AF4
 504:../../STM32F4-Discovery_FW_V1.1.0/Libraries/STM32F4xx_StdPeriph_Driver/src/stm32f4xx_gpio.c ****   *            @arg GPIO_AF_SPI1: Connect SPI1 pins to AF5
 505:../../STM32F4-Discovery_FW_V1.1.0/Libraries/STM32F4xx_StdPeriph_Driver/src/stm32f4xx_gpio.c ****   *            @arg GPIO_AF_SPI2: Connect SPI2/I2S2 pins to AF5
 506:../../STM32F4-Discovery_FW_V1.1.0/Libraries/STM32F4xx_StdPeriph_Driver/src/stm32f4xx_gpio.c ****   *            @arg GPIO_AF_SPI3: Connect SPI3/I2S3 pins to AF6
 507:../../STM32F4-Discovery_FW_V1.1.0/Libraries/STM32F4xx_StdPeriph_Driver/src/stm32f4xx_gpio.c ****   *            @arg GPIO_AF_I2S3ext: Connect I2S3ext pins to AF7
 508:../../STM32F4-Discovery_FW_V1.1.0/Libraries/STM32F4xx_StdPeriph_Driver/src/stm32f4xx_gpio.c ****   *            @arg GPIO_AF_USART1: Connect USART1 pins to AF7
 509:../../STM32F4-Discovery_FW_V1.1.0/Libraries/STM32F4xx_StdPeriph_Driver/src/stm32f4xx_gpio.c ****   *            @arg GPIO_AF_USART2: Connect USART2 pins to AF7
 510:../../STM32F4-Discovery_FW_V1.1.0/Libraries/STM32F4xx_StdPeriph_Driver/src/stm32f4xx_gpio.c ****   *            @arg GPIO_AF_USART3: Connect USART3 pins to AF7
 511:../../STM32F4-Discovery_FW_V1.1.0/Libraries/STM32F4xx_StdPeriph_Driver/src/stm32f4xx_gpio.c ****   *            @arg GPIO_AF_UART4: Connect UART4 pins to AF8
 512:../../STM32F4-Discovery_FW_V1.1.0/Libraries/STM32F4xx_StdPeriph_Driver/src/stm32f4xx_gpio.c ****   *            @arg GPIO_AF_UART5: Connect UART5 pins to AF8
 513:../../STM32F4-Discovery_FW_V1.1.0/Libraries/STM32F4xx_StdPeriph_Driver/src/stm32f4xx_gpio.c ****   *            @arg GPIO_AF_USART6: Connect USART6 pins to AF8
 514:../../STM32F4-Discovery_FW_V1.1.0/Libraries/STM32F4xx_StdPeriph_Driver/src/stm32f4xx_gpio.c ****   *            @arg GPIO_AF_CAN1: Connect CAN1 pins to AF9
 515:../../STM32F4-Discovery_FW_V1.1.0/Libraries/STM32F4xx_StdPeriph_Driver/src/stm32f4xx_gpio.c ****   *            @arg GPIO_AF_CAN2: Connect CAN2 pins to AF9
 516:../../STM32F4-Discovery_FW_V1.1.0/Libraries/STM32F4xx_StdPeriph_Driver/src/stm32f4xx_gpio.c ****   *            @arg GPIO_AF_TIM12: Connect TIM12 pins to AF9
 517:../../STM32F4-Discovery_FW_V1.1.0/Libraries/STM32F4xx_StdPeriph_Driver/src/stm32f4xx_gpio.c ****   *            @arg GPIO_AF_TIM13: Connect TIM13 pins to AF9
 518:../../STM32F4-Discovery_FW_V1.1.0/Libraries/STM32F4xx_StdPeriph_Driver/src/stm32f4xx_gpio.c ****   *            @arg GPIO_AF_TIM14: Connect TIM14 pins to AF9
 519:../../STM32F4-Discovery_FW_V1.1.0/Libraries/STM32F4xx_StdPeriph_Driver/src/stm32f4xx_gpio.c ****   *            @arg GPIO_AF_OTG_FS: Connect OTG_FS pins to AF10
 520:../../STM32F4-Discovery_FW_V1.1.0/Libraries/STM32F4xx_StdPeriph_Driver/src/stm32f4xx_gpio.c ****   *            @arg GPIO_AF_OTG_HS: Connect OTG_HS pins to AF10
ARM GAS  /tmp/cccCAPpj.s 			page 16


 521:../../STM32F4-Discovery_FW_V1.1.0/Libraries/STM32F4xx_StdPeriph_Driver/src/stm32f4xx_gpio.c ****   *            @arg GPIO_AF_ETH: Connect ETHERNET pins to AF11
 522:../../STM32F4-Discovery_FW_V1.1.0/Libraries/STM32F4xx_StdPeriph_Driver/src/stm32f4xx_gpio.c ****   *            @arg GPIO_AF_FSMC: Connect FSMC pins to AF12
 523:../../STM32F4-Discovery_FW_V1.1.0/Libraries/STM32F4xx_StdPeriph_Driver/src/stm32f4xx_gpio.c ****   *            @arg GPIO_AF_OTG_HS_FS: Connect OTG HS (configured in FS) pins to AF12
 524:../../STM32F4-Discovery_FW_V1.1.0/Libraries/STM32F4xx_StdPeriph_Driver/src/stm32f4xx_gpio.c ****   *            @arg GPIO_AF_SDIO: Connect SDIO pins to AF12
 525:../../STM32F4-Discovery_FW_V1.1.0/Libraries/STM32F4xx_StdPeriph_Driver/src/stm32f4xx_gpio.c ****   *            @arg GPIO_AF_DCMI: Connect DCMI pins to AF13
 526:../../STM32F4-Discovery_FW_V1.1.0/Libraries/STM32F4xx_StdPeriph_Driver/src/stm32f4xx_gpio.c ****   *            @arg GPIO_AF_EVENTOUT: Connect EVENTOUT pins to AF15
 527:../../STM32F4-Discovery_FW_V1.1.0/Libraries/STM32F4xx_StdPeriph_Driver/src/stm32f4xx_gpio.c ****   * @retval None
 528:../../STM32F4-Discovery_FW_V1.1.0/Libraries/STM32F4xx_StdPeriph_Driver/src/stm32f4xx_gpio.c ****   */
 529:../../STM32F4-Discovery_FW_V1.1.0/Libraries/STM32F4xx_StdPeriph_Driver/src/stm32f4xx_gpio.c **** void GPIO_PinAFConfig(GPIO_TypeDef* GPIOx, uint16_t GPIO_PinSource, uint8_t GPIO_AF)
 530:../../STM32F4-Discovery_FW_V1.1.0/Libraries/STM32F4xx_StdPeriph_Driver/src/stm32f4xx_gpio.c **** {
 531:../../STM32F4-Discovery_FW_V1.1.0/Libraries/STM32F4xx_StdPeriph_Driver/src/stm32f4xx_gpio.c ****   uint32_t temp = 0x00;
 532:../../STM32F4-Discovery_FW_V1.1.0/Libraries/STM32F4xx_StdPeriph_Driver/src/stm32f4xx_gpio.c ****   uint32_t temp_2 = 0x00;
 533:../../STM32F4-Discovery_FW_V1.1.0/Libraries/STM32F4xx_StdPeriph_Driver/src/stm32f4xx_gpio.c ****   
 534:../../STM32F4-Discovery_FW_V1.1.0/Libraries/STM32F4xx_StdPeriph_Driver/src/stm32f4xx_gpio.c ****   /* Check the parameters */
 535:../../STM32F4-Discovery_FW_V1.1.0/Libraries/STM32F4xx_StdPeriph_Driver/src/stm32f4xx_gpio.c ****   assert_param(IS_GPIO_ALL_PERIPH(GPIOx));
 536:../../STM32F4-Discovery_FW_V1.1.0/Libraries/STM32F4xx_StdPeriph_Driver/src/stm32f4xx_gpio.c ****   assert_param(IS_GPIO_PIN_SOURCE(GPIO_PinSource));
 537:../../STM32F4-Discovery_FW_V1.1.0/Libraries/STM32F4xx_StdPeriph_Driver/src/stm32f4xx_gpio.c ****   assert_param(IS_GPIO_AF(GPIO_AF));
 538:../../STM32F4-Discovery_FW_V1.1.0/Libraries/STM32F4xx_StdPeriph_Driver/src/stm32f4xx_gpio.c ****   
 539:../../STM32F4-Discovery_FW_V1.1.0/Libraries/STM32F4xx_StdPeriph_Driver/src/stm32f4xx_gpio.c ****   temp = ((uint32_t)(GPIO_AF) << ((uint32_t)((uint32_t)GPIO_PinSource & (uint32_t)0x07) * 4)) ;
 540:../../STM32F4-Discovery_FW_V1.1.0/Libraries/STM32F4xx_StdPeriph_Driver/src/stm32f4xx_gpio.c ****   GPIOx->AFR[GPIO_PinSource >> 0x03] &= ~((uint32_t)0xF << ((uint32_t)((uint32_t)GPIO_PinSource & (
 541:../../STM32F4-Discovery_FW_V1.1.0/Libraries/STM32F4xx_StdPeriph_Driver/src/stm32f4xx_gpio.c ****   temp_2 = GPIOx->AFR[GPIO_PinSource >> 0x03] | temp;
 542:../../STM32F4-Discovery_FW_V1.1.0/Libraries/STM32F4xx_StdPeriph_Driver/src/stm32f4xx_gpio.c ****   GPIOx->AFR[GPIO_PinSource >> 0x03] = temp_2;
 543:../../STM32F4-Discovery_FW_V1.1.0/Libraries/STM32F4xx_StdPeriph_Driver/src/stm32f4xx_gpio.c **** }
 329              		.loc 1 543 0
 330 013c ADB2     		uxth	r5, r5	@ tmp195, tmp194
 219:../../STM32F4-Discovery_FW_V1.1.0/Libraries/STM32F4xx_StdPeriph_Driver/src/stm32f4xx_gpio.c ****         GPIOx->OTYPER |= (uint16_t)(((uint16_t)GPIO_InitStruct->GPIO_OType) << ((uint16_t)pinpos));
 331              		.loc 1 219 0
 332 013e 3543     		orrs	r5, r5, r6	@, D.5676, tmp195, D.5670
 333 0140 4560     		str	r5, [r0, #4]	@ D.5676, GPIOx_11(D)->OTYPER
 334              	.L17:
 223:../../STM32F4-Discovery_FW_V1.1.0/Libraries/STM32F4xx_StdPeriph_Driver/src/stm32f4xx_gpio.c ****       GPIOx->PUPDR &= ~(GPIO_PUPDR_PUPDR0 << ((uint16_t)pinpos * 2));
 335              		.loc 1 223 0
 336 0142 C568     		ldr	r5, [r0, #12]	@ D.5677, GPIOx_11(D)->PUPDR
 337 0144 2C40     		ands	r4, r4, r5	@, D.5681, D.5647, D.5677
 338 0146 C460     		str	r4, [r0, #12]	@ D.5681, GPIOx_11(D)->PUPDR
 224:../../STM32F4-Discovery_FW_V1.1.0/Libraries/STM32F4xx_StdPeriph_Driver/src/stm32f4xx_gpio.c ****       GPIOx->PUPDR |= (((uint32_t)GPIO_InitStruct->GPIO_PuPd) << (pinpos * 2));
 339              		.loc 1 224 0
 340 0148 CD79     		ldrb	r5, [r1, #7]	@ zero_extendqisi2	@ GPIO_InitStruct_8(D)->GPIO_PuPd, GPIO_InitStruct_8(D)->GPIO
 341 014a C468     		ldr	r4, [r0, #12]	@ D.5682, GPIOx_11(D)->PUPDR
 342 014c 05FA02F2 		lsl	r2, r5, r2	@ tmp198, GPIO_InitStruct_8(D)->GPIO_PuPd, D.5764
 343 0150 2243     		orrs	r2, r2, r4	@, D.5686, tmp198, D.5682
 344 0152 C260     		str	r2, [r0, #12]	@ D.5686, GPIOx_11(D)->PUPDR
 345              	.L16:
 194:../../STM32F4-Discovery_FW_V1.1.0/Libraries/STM32F4xx_StdPeriph_Driver/src/stm32f4xx_gpio.c ****   for (pinpos = 0x00; pinpos < 0x10; pinpos++)
 346              		.loc 1 194 0
 347 0154 0133     		adds	r3, r3, #1	@ pinpos, pinpos,
 348              	.LVL34:
 349 0156 102B     		cmp	r3, #16	@ pinpos,
 350 0158 C2D1     		bne	.L18	@,
 227:../../STM32F4-Discovery_FW_V1.1.0/Libraries/STM32F4xx_StdPeriph_Driver/src/stm32f4xx_gpio.c **** }
 351              		.loc 1 227 0
 352 015a BDE8F081 		pop	{r4, r5, r6, r7, r8, pc}	@
 353              		.cfi_endproc
 354              	.LFE111:
 355              		.size	GPIO_Init, .-GPIO_Init
 356              		.align	1
 357              		.global	GPIO_StructInit
ARM GAS  /tmp/cccCAPpj.s 			page 17


 358              		.thumb
 359              		.thumb_func
 360              		.type	GPIO_StructInit, %function
 361              	GPIO_StructInit:
 362              	.LFB112:
 235:../../STM32F4-Discovery_FW_V1.1.0/Libraries/STM32F4xx_StdPeriph_Driver/src/stm32f4xx_gpio.c **** {
 363              		.loc 1 235 0
 364              		.cfi_startproc
 365              		@ args = 0, pretend = 0, frame = 0
 366              		@ frame_needed = 0, uses_anonymous_args = 0
 367              		@ link register save eliminated.
 368              	.LVL35:
 238:../../STM32F4-Discovery_FW_V1.1.0/Libraries/STM32F4xx_StdPeriph_Driver/src/stm32f4xx_gpio.c ****   GPIO_InitStruct->GPIO_Mode = GPIO_Mode_IN;
 369              		.loc 1 238 0
 370 015e 0021     		movs	r1, #0	@ tmp136,
 237:../../STM32F4-Discovery_FW_V1.1.0/Libraries/STM32F4xx_StdPeriph_Driver/src/stm32f4xx_gpio.c ****   GPIO_InitStruct->GPIO_Pin  = GPIO_Pin_All;
 371              		.loc 1 237 0
 372 0160 4FF6FF73 		movw	r3, #65535	@ tmp135,
 373 0164 0360     		str	r3, [r0, #0]	@ tmp135, GPIO_InitStruct_1(D)->GPIO_Pin
 238:../../STM32F4-Discovery_FW_V1.1.0/Libraries/STM32F4xx_StdPeriph_Driver/src/stm32f4xx_gpio.c ****   GPIO_InitStruct->GPIO_Mode = GPIO_Mode_IN;
 374              		.loc 1 238 0
 375 0166 0171     		strb	r1, [r0, #4]	@ tmp136, GPIO_InitStruct_1(D)->GPIO_Mode
 239:../../STM32F4-Discovery_FW_V1.1.0/Libraries/STM32F4xx_StdPeriph_Driver/src/stm32f4xx_gpio.c ****   GPIO_InitStruct->GPIO_Speed = GPIO_Speed_2MHz;
 376              		.loc 1 239 0
 377 0168 4171     		strb	r1, [r0, #5]	@ tmp136, GPIO_InitStruct_1(D)->GPIO_Speed
 240:../../STM32F4-Discovery_FW_V1.1.0/Libraries/STM32F4xx_StdPeriph_Driver/src/stm32f4xx_gpio.c ****   GPIO_InitStruct->GPIO_OType = GPIO_OType_PP;
 378              		.loc 1 240 0
 379 016a 8171     		strb	r1, [r0, #6]	@ tmp136, GPIO_InitStruct_1(D)->GPIO_OType
 241:../../STM32F4-Discovery_FW_V1.1.0/Libraries/STM32F4xx_StdPeriph_Driver/src/stm32f4xx_gpio.c ****   GPIO_InitStruct->GPIO_PuPd = GPIO_PuPd_NOPULL;
 380              		.loc 1 241 0
 381 016c C171     		strb	r1, [r0, #7]	@ tmp136, GPIO_InitStruct_1(D)->GPIO_PuPd
 382 016e 7047     		bx	lr	@
 383              		.cfi_endproc
 384              	.LFE112:
 385              		.size	GPIO_StructInit, .-GPIO_StructInit
 386              		.align	1
 387              		.global	GPIO_PinLockConfig
 388              		.thumb
 389              		.thumb_func
 390              		.type	GPIO_PinLockConfig, %function
 391              	GPIO_PinLockConfig:
 392              	.LFB113:
 256:../../STM32F4-Discovery_FW_V1.1.0/Libraries/STM32F4xx_StdPeriph_Driver/src/stm32f4xx_gpio.c **** {
 393              		.loc 1 256 0
 394              		.cfi_startproc
 395              		@ args = 0, pretend = 0, frame = 8
 396              		@ frame_needed = 0, uses_anonymous_args = 0
 397              		@ link register save eliminated.
 398              	.LVL36:
 399 0170 82B0     		sub	sp, sp, #8	@,,
 400              	.LCFI2:
 401              		.cfi_def_cfa_offset 8
 257:../../STM32F4-Discovery_FW_V1.1.0/Libraries/STM32F4xx_StdPeriph_Driver/src/stm32f4xx_gpio.c ****   __IO uint32_t tmp = 0x00010000;
 402              		.loc 1 257 0
 403 0172 4FF48033 		mov	r3, #65536	@ tmp143,
 404 0176 0193     		str	r3, [sp, #4]	@ tmp143, tmp
 405              	.LVL37:
ARM GAS  /tmp/cccCAPpj.s 			page 18


 263:../../STM32F4-Discovery_FW_V1.1.0/Libraries/STM32F4xx_StdPeriph_Driver/src/stm32f4xx_gpio.c ****   tmp |= GPIO_Pin;
 406              		.loc 1 263 0
 407 0178 019A     		ldr	r2, [sp, #4]	@ tmp.0, tmp
 408 017a 41EA0203 		orr	r3, r1, r2	@ tmp.1, GPIO_Pin, tmp.0
 409              	.LVL38:
 410 017e 0193     		str	r3, [sp, #4]	@ tmp.1, tmp
 411              	.LVL39:
 265:../../STM32F4-Discovery_FW_V1.1.0/Libraries/STM32F4xx_StdPeriph_Driver/src/stm32f4xx_gpio.c ****   GPIOx->LCKR = tmp;
 412              		.loc 1 265 0
 413 0180 019A     		ldr	r2, [sp, #4]	@ tmp.2, tmp
 414 0182 C261     		str	r2, [r0, #28]	@ tmp.2, GPIOx_6(D)->LCKR
 267:../../STM32F4-Discovery_FW_V1.1.0/Libraries/STM32F4xx_StdPeriph_Driver/src/stm32f4xx_gpio.c ****   GPIOx->LCKR =  GPIO_Pin;
 415              		.loc 1 267 0
 416 0184 C161     		str	r1, [r0, #28]	@ GPIO_Pin, GPIOx_6(D)->LCKR
 269:../../STM32F4-Discovery_FW_V1.1.0/Libraries/STM32F4xx_StdPeriph_Driver/src/stm32f4xx_gpio.c ****   GPIOx->LCKR = tmp;
 417              		.loc 1 269 0
 418 0186 0199     		ldr	r1, [sp, #4]	@ tmp.3, tmp
 419              	.LVL40:
 420 0188 C161     		str	r1, [r0, #28]	@ tmp.3, GPIOx_6(D)->LCKR
 271:../../STM32F4-Discovery_FW_V1.1.0/Libraries/STM32F4xx_StdPeriph_Driver/src/stm32f4xx_gpio.c ****   tmp = GPIOx->LCKR;
 421              		.loc 1 271 0
 422 018a C369     		ldr	r3, [r0, #28]	@ tmp.4, GPIOx_6(D)->LCKR
 423 018c 0193     		str	r3, [sp, #4]	@ tmp.4, tmp
 273:../../STM32F4-Discovery_FW_V1.1.0/Libraries/STM32F4xx_StdPeriph_Driver/src/stm32f4xx_gpio.c ****   tmp = GPIOx->LCKR;
 424              		.loc 1 273 0
 425 018e C069     		ldr	r0, [r0, #28]	@ tmp.5, GPIOx_6(D)->LCKR
 426              	.LVL41:
 427 0190 0190     		str	r0, [sp, #4]	@ tmp.5, tmp
 274:../../STM32F4-Discovery_FW_V1.1.0/Libraries/STM32F4xx_StdPeriph_Driver/src/stm32f4xx_gpio.c **** }
 428              		.loc 1 274 0
 429 0192 02B0     		add	sp, sp, #8	@,,
 430 0194 7047     		bx	lr
 431              		.cfi_endproc
 432              	.LFE113:
 433              		.size	GPIO_PinLockConfig, .-GPIO_PinLockConfig
 434              		.align	1
 435              		.global	GPIO_ReadInputDataBit
 436              		.thumb
 437              		.thumb_func
 438              		.type	GPIO_ReadInputDataBit, %function
 439              	GPIO_ReadInputDataBit:
 440              	.LFB114:
 300:../../STM32F4-Discovery_FW_V1.1.0/Libraries/STM32F4xx_StdPeriph_Driver/src/stm32f4xx_gpio.c **** {
 441              		.loc 1 300 0
 442              		.cfi_startproc
 443              		@ args = 0, pretend = 0, frame = 0
 444              		@ frame_needed = 0, uses_anonymous_args = 0
 445              		@ link register save eliminated.
 446              	.LVL42:
 307:../../STM32F4-Discovery_FW_V1.1.0/Libraries/STM32F4xx_StdPeriph_Driver/src/stm32f4xx_gpio.c ****   if ((GPIOx->IDR & GPIO_Pin) != (uint32_t)Bit_RESET)
 447              		.loc 1 307 0
 448 0196 0369     		ldr	r3, [r0, #16]	@ D.5623, GPIOx_3(D)->IDR
 449              	.LVL43:
 450 0198 1942     		tst	r1, r3	@ GPIO_Pin, D.5623
 316:../../STM32F4-Discovery_FW_V1.1.0/Libraries/STM32F4xx_StdPeriph_Driver/src/stm32f4xx_gpio.c **** }
 451              		.loc 1 316 0
 452 019a 0CBF     		ite	eq	@
ARM GAS  /tmp/cccCAPpj.s 			page 19


 453 019c 0020     		moveq	r0, #0	@,
 454 019e 0120     		movne	r0, #1	@,
 455              	.LVL44:
 456 01a0 7047     		bx	lr	@
 457              		.cfi_endproc
 458              	.LFE114:
 459              		.size	GPIO_ReadInputDataBit, .-GPIO_ReadInputDataBit
 460              		.align	1
 461              		.global	GPIO_ReadInputData
 462              		.thumb
 463              		.thumb_func
 464              		.type	GPIO_ReadInputData, %function
 465              	GPIO_ReadInputData:
 466              	.LFB115:
 324:../../STM32F4-Discovery_FW_V1.1.0/Libraries/STM32F4xx_StdPeriph_Driver/src/stm32f4xx_gpio.c **** {
 467              		.loc 1 324 0
 468              		.cfi_startproc
 469              		@ args = 0, pretend = 0, frame = 0
 470              		@ frame_needed = 0, uses_anonymous_args = 0
 471              		@ link register save eliminated.
 472              	.LVL45:
 328:../../STM32F4-Discovery_FW_V1.1.0/Libraries/STM32F4xx_StdPeriph_Driver/src/stm32f4xx_gpio.c ****   return ((uint16_t)GPIOx->IDR);
 473              		.loc 1 328 0
 474 01a2 0069     		ldr	r0, [r0, #16]	@ D.5621, GPIOx_1(D)->IDR
 475              	.LVL46:
 329:../../STM32F4-Discovery_FW_V1.1.0/Libraries/STM32F4xx_StdPeriph_Driver/src/stm32f4xx_gpio.c **** }
 476              		.loc 1 329 0
 477 01a4 80B2     		uxth	r0, r0	@, D.5621
 478 01a6 7047     		bx	lr	@
 479              		.cfi_endproc
 480              	.LFE115:
 481              		.size	GPIO_ReadInputData, .-GPIO_ReadInputData
 482              		.align	1
 483              		.global	GPIO_ReadOutputDataBit
 484              		.thumb
 485              		.thumb_func
 486              		.type	GPIO_ReadOutputDataBit, %function
 487              	GPIO_ReadOutputDataBit:
 488              	.LFB116:
 339:../../STM32F4-Discovery_FW_V1.1.0/Libraries/STM32F4xx_StdPeriph_Driver/src/stm32f4xx_gpio.c **** {
 489              		.loc 1 339 0
 490              		.cfi_startproc
 491              		@ args = 0, pretend = 0, frame = 0
 492              		@ frame_needed = 0, uses_anonymous_args = 0
 493              		@ link register save eliminated.
 494              	.LVL47:
 346:../../STM32F4-Discovery_FW_V1.1.0/Libraries/STM32F4xx_StdPeriph_Driver/src/stm32f4xx_gpio.c ****   if ((GPIOx->ODR & GPIO_Pin) != (uint32_t)Bit_RESET)
 495              		.loc 1 346 0
 496 01a8 4369     		ldr	r3, [r0, #20]	@ D.5612, GPIOx_3(D)->ODR
 497              	.LVL48:
 498 01aa 1942     		tst	r1, r3	@ GPIO_Pin, D.5612
 355:../../STM32F4-Discovery_FW_V1.1.0/Libraries/STM32F4xx_StdPeriph_Driver/src/stm32f4xx_gpio.c **** }
 499              		.loc 1 355 0
 500 01ac 0CBF     		ite	eq	@
 501 01ae 0020     		moveq	r0, #0	@,
 502 01b0 0120     		movne	r0, #1	@,
 503              	.LVL49:
ARM GAS  /tmp/cccCAPpj.s 			page 20


 504 01b2 7047     		bx	lr	@
 505              		.cfi_endproc
 506              	.LFE116:
 507              		.size	GPIO_ReadOutputDataBit, .-GPIO_ReadOutputDataBit
 508              		.align	1
 509              		.global	GPIO_ReadOutputData
 510              		.thumb
 511              		.thumb_func
 512              		.type	GPIO_ReadOutputData, %function
 513              	GPIO_ReadOutputData:
 514              	.LFB117:
 363:../../STM32F4-Discovery_FW_V1.1.0/Libraries/STM32F4xx_StdPeriph_Driver/src/stm32f4xx_gpio.c **** {
 515              		.loc 1 363 0
 516              		.cfi_startproc
 517              		@ args = 0, pretend = 0, frame = 0
 518              		@ frame_needed = 0, uses_anonymous_args = 0
 519              		@ link register save eliminated.
 520              	.LVL50:
 367:../../STM32F4-Discovery_FW_V1.1.0/Libraries/STM32F4xx_StdPeriph_Driver/src/stm32f4xx_gpio.c ****   return ((uint16_t)GPIOx->ODR);
 521              		.loc 1 367 0
 522 01b4 4069     		ldr	r0, [r0, #20]	@ D.5610, GPIOx_1(D)->ODR
 523              	.LVL51:
 368:../../STM32F4-Discovery_FW_V1.1.0/Libraries/STM32F4xx_StdPeriph_Driver/src/stm32f4xx_gpio.c **** }
 524              		.loc 1 368 0
 525 01b6 80B2     		uxth	r0, r0	@, D.5610
 526 01b8 7047     		bx	lr	@
 527              		.cfi_endproc
 528              	.LFE117:
 529              		.size	GPIO_ReadOutputData, .-GPIO_ReadOutputData
 530              		.align	1
 531              		.global	GPIO_SetBits
 532              		.thumb
 533              		.thumb_func
 534              		.type	GPIO_SetBits, %function
 535              	GPIO_SetBits:
 536              	.LFB118:
 381:../../STM32F4-Discovery_FW_V1.1.0/Libraries/STM32F4xx_StdPeriph_Driver/src/stm32f4xx_gpio.c **** {
 537              		.loc 1 381 0
 538              		.cfi_startproc
 539              		@ args = 0, pretend = 0, frame = 0
 540              		@ frame_needed = 0, uses_anonymous_args = 0
 541              		@ link register save eliminated.
 542              	.LVL52:
 386:../../STM32F4-Discovery_FW_V1.1.0/Libraries/STM32F4xx_StdPeriph_Driver/src/stm32f4xx_gpio.c ****   GPIOx->BSRRL = GPIO_Pin;
 543              		.loc 1 386 0
 544 01ba 0183     		strh	r1, [r0, #24]	@ movhi	@ GPIO_Pin, GPIOx_1(D)->BSRRL
 545 01bc 7047     		bx	lr	@
 546              		.cfi_endproc
 547              	.LFE118:
 548              		.size	GPIO_SetBits, .-GPIO_SetBits
 549              		.align	1
 550              		.global	GPIO_ResetBits
 551              		.thumb
 552              		.thumb_func
 553              		.type	GPIO_ResetBits, %function
 554              	GPIO_ResetBits:
 555              	.LFB119:
ARM GAS  /tmp/cccCAPpj.s 			page 21


 400:../../STM32F4-Discovery_FW_V1.1.0/Libraries/STM32F4xx_StdPeriph_Driver/src/stm32f4xx_gpio.c **** {
 556              		.loc 1 400 0
 557              		.cfi_startproc
 558              		@ args = 0, pretend = 0, frame = 0
 559              		@ frame_needed = 0, uses_anonymous_args = 0
 560              		@ link register save eliminated.
 561              	.LVL53:
 405:../../STM32F4-Discovery_FW_V1.1.0/Libraries/STM32F4xx_StdPeriph_Driver/src/stm32f4xx_gpio.c ****   GPIOx->BSRRH = GPIO_Pin;
 562              		.loc 1 405 0
 563 01be 4183     		strh	r1, [r0, #26]	@ movhi	@ GPIO_Pin, GPIOx_1(D)->BSRRH
 564 01c0 7047     		bx	lr	@
 565              		.cfi_endproc
 566              	.LFE119:
 567              		.size	GPIO_ResetBits, .-GPIO_ResetBits
 568              		.align	1
 569              		.global	GPIO_WriteBit
 570              		.thumb
 571              		.thumb_func
 572              		.type	GPIO_WriteBit, %function
 573              	GPIO_WriteBit:
 574              	.LFB120:
 420:../../STM32F4-Discovery_FW_V1.1.0/Libraries/STM32F4xx_StdPeriph_Driver/src/stm32f4xx_gpio.c **** {
 575              		.loc 1 420 0
 576              		.cfi_startproc
 577              		@ args = 0, pretend = 0, frame = 0
 578              		@ frame_needed = 0, uses_anonymous_args = 0
 579              		@ link register save eliminated.
 580              	.LVL54:
 426:../../STM32F4-Discovery_FW_V1.1.0/Libraries/STM32F4xx_StdPeriph_Driver/src/stm32f4xx_gpio.c ****   if (BitVal != Bit_RESET)
 581              		.loc 1 426 0
 582 01c2 0AB1     		cbz	r2, .L29	@ BitVal,
 428:../../STM32F4-Discovery_FW_V1.1.0/Libraries/STM32F4xx_StdPeriph_Driver/src/stm32f4xx_gpio.c ****     GPIOx->BSRRL = GPIO_Pin;
 583              		.loc 1 428 0
 584 01c4 0183     		strh	r1, [r0, #24]	@ movhi	@ GPIO_Pin, GPIOx_2(D)->BSRRL
 585 01c6 7047     		bx	lr	@
 586              	.L29:
 432:../../STM32F4-Discovery_FW_V1.1.0/Libraries/STM32F4xx_StdPeriph_Driver/src/stm32f4xx_gpio.c ****     GPIOx->BSRRH = GPIO_Pin ;
 587              		.loc 1 432 0
 588 01c8 4183     		strh	r1, [r0, #26]	@ movhi	@ GPIO_Pin, GPIOx_2(D)->BSRRH
 589 01ca 7047     		bx	lr	@
 590              		.cfi_endproc
 591              	.LFE120:
 592              		.size	GPIO_WriteBit, .-GPIO_WriteBit
 593              		.align	1
 594              		.global	GPIO_Write
 595              		.thumb
 596              		.thumb_func
 597              		.type	GPIO_Write, %function
 598              	GPIO_Write:
 599              	.LFB121:
 443:../../STM32F4-Discovery_FW_V1.1.0/Libraries/STM32F4xx_StdPeriph_Driver/src/stm32f4xx_gpio.c **** {
 600              		.loc 1 443 0
 601              		.cfi_startproc
 602              		@ args = 0, pretend = 0, frame = 0
 603              		@ frame_needed = 0, uses_anonymous_args = 0
 604              		@ link register save eliminated.
 605              	.LVL55:
ARM GAS  /tmp/cccCAPpj.s 			page 22


 447:../../STM32F4-Discovery_FW_V1.1.0/Libraries/STM32F4xx_StdPeriph_Driver/src/stm32f4xx_gpio.c ****   GPIOx->ODR = PortVal;
 606              		.loc 1 447 0
 607 01cc 4161     		str	r1, [r0, #20]	@ PortVal, GPIOx_3(D)->ODR
 608 01ce 7047     		bx	lr	@
 609              		.cfi_endproc
 610              	.LFE121:
 611              		.size	GPIO_Write, .-GPIO_Write
 612              		.align	1
 613              		.global	GPIO_ToggleBits
 614              		.thumb
 615              		.thumb_func
 616              		.type	GPIO_ToggleBits, %function
 617              	GPIO_ToggleBits:
 618              	.LFB122:
 457:../../STM32F4-Discovery_FW_V1.1.0/Libraries/STM32F4xx_StdPeriph_Driver/src/stm32f4xx_gpio.c **** {
 619              		.loc 1 457 0
 620              		.cfi_startproc
 621              		@ args = 0, pretend = 0, frame = 0
 622              		@ frame_needed = 0, uses_anonymous_args = 0
 623              		@ link register save eliminated.
 624              	.LVL56:
 461:../../STM32F4-Discovery_FW_V1.1.0/Libraries/STM32F4xx_StdPeriph_Driver/src/stm32f4xx_gpio.c ****   GPIOx->ODR ^= GPIO_Pin;
 625              		.loc 1 461 0
 626 01d0 4369     		ldr	r3, [r0, #20]	@ D.5602, GPIOx_1(D)->ODR
 627 01d2 5940     		eors	r1, r1, r3	@, D.5604, GPIO_Pin, D.5602
 628              	.LVL57:
 629 01d4 4161     		str	r1, [r0, #20]	@ D.5604, GPIOx_1(D)->ODR
 630 01d6 7047     		bx	lr	@
 631              		.cfi_endproc
 632              	.LFE122:
 633              		.size	GPIO_ToggleBits, .-GPIO_ToggleBits
 634              		.align	1
 635              		.global	GPIO_PinAFConfig
 636              		.thumb
 637              		.thumb_func
 638              		.type	GPIO_PinAFConfig, %function
 639              	GPIO_PinAFConfig:
 640              	.LFB123:
 530:../../STM32F4-Discovery_FW_V1.1.0/Libraries/STM32F4xx_StdPeriph_Driver/src/stm32f4xx_gpio.c **** {
 641              		.loc 1 530 0
 642              		.cfi_startproc
 643              		@ args = 0, pretend = 0, frame = 0
 644              		@ frame_needed = 0, uses_anonymous_args = 0
 645              	.LVL58:
 539:../../STM32F4-Discovery_FW_V1.1.0/Libraries/STM32F4xx_StdPeriph_Driver/src/stm32f4xx_gpio.c ****   temp = ((uint32_t)(GPIO_AF) << ((uint32_t)((uint32_t)GPIO_PinSource & (uint32_t)0x07) * 4)) ;
 646              		.loc 1 539 0
 647 01d8 01F00703 		and	r3, r1, #7	@ tmp152, GPIO_PinSource,
 540:../../STM32F4-Discovery_FW_V1.1.0/Libraries/STM32F4xx_StdPeriph_Driver/src/stm32f4xx_gpio.c ****   GPIOx->AFR[GPIO_PinSource >> 0x03] &= ~((uint32_t)0xF << ((uint32_t)((uint32_t)GPIO_PinSource & (
 648              		.loc 1 540 0
 649 01dc C908     		lsrs	r1, r1, #3	@ D.5596, GPIO_PinSource,
 650              	.LVL59:
 651 01de 0831     		adds	r1, r1, #8	@ tmp154, D.5596,
 530:../../STM32F4-Discovery_FW_V1.1.0/Libraries/STM32F4xx_StdPeriph_Driver/src/stm32f4xx_gpio.c **** {
 652              		.loc 1 530 0
 653 01e0 30B5     		push	{r4, r5, lr}	@
 654              	.LCFI3:
 655              		.cfi_def_cfa_offset 12
ARM GAS  /tmp/cccCAPpj.s 			page 23


 656              		.cfi_offset 4, -12
 657              		.cfi_offset 5, -8
 658              		.cfi_offset 14, -4
 539:../../STM32F4-Discovery_FW_V1.1.0/Libraries/STM32F4xx_StdPeriph_Driver/src/stm32f4xx_gpio.c ****   temp = ((uint32_t)(GPIO_AF) << ((uint32_t)((uint32_t)GPIO_PinSource & (uint32_t)0x07) * 4)) ;
 659              		.loc 1 539 0
 660 01e2 9B00     		lsls	r3, r3, #2	@ D.5594, tmp152,
 661              	.LVL60:
 540:../../STM32F4-Discovery_FW_V1.1.0/Libraries/STM32F4xx_StdPeriph_Driver/src/stm32f4xx_gpio.c ****   GPIOx->AFR[GPIO_PinSource >> 0x03] &= ~((uint32_t)0xF << ((uint32_t)((uint32_t)GPIO_PinSource & (
 662              		.loc 1 540 0
 663 01e4 50F82150 		ldr	r5, [r0, r1, lsl #2]	@ D.5597, GPIOx_15(D)->AFR
 664 01e8 0F24     		movs	r4, #15	@ tmp156,
 665 01ea 04FA03F4 		lsl	r4, r4, r3	@ tmp155, tmp156, D.5594
 666 01ee 25EA0404 		bic	r4, r5, r4	@ D.5600, D.5597, tmp155
 667 01f2 40F82140 		str	r4, [r0, r1, lsl #2]	@ D.5600, GPIOx_15(D)->AFR
 541:../../STM32F4-Discovery_FW_V1.1.0/Libraries/STM32F4xx_StdPeriph_Driver/src/stm32f4xx_gpio.c ****   temp_2 = GPIOx->AFR[GPIO_PinSource >> 0x03] | temp;
 668              		.loc 1 541 0
 669 01f6 50F82140 		ldr	r4, [r0, r1, lsl #2]	@ D.5601, GPIOx_15(D)->AFR
 539:../../STM32F4-Discovery_FW_V1.1.0/Libraries/STM32F4xx_StdPeriph_Driver/src/stm32f4xx_gpio.c ****   temp = ((uint32_t)(GPIO_AF) << ((uint32_t)((uint32_t)GPIO_PinSource & (uint32_t)0x07) * 4)) ;
 670              		.loc 1 539 0
 671 01fa 02FA03F2 		lsl	r2, r2, r3	@ tmp160, GPIO_AF, D.5594
 672              	.LVL61:
 541:../../STM32F4-Discovery_FW_V1.1.0/Libraries/STM32F4xx_StdPeriph_Driver/src/stm32f4xx_gpio.c ****   temp_2 = GPIOx->AFR[GPIO_PinSource >> 0x03] | temp;
 673              		.loc 1 541 0
 674 01fe 1443     		orrs	r4, r4, r2	@, temp_2, D.5601, tmp160
 675              	.LVL62:
 542:../../STM32F4-Discovery_FW_V1.1.0/Libraries/STM32F4xx_StdPeriph_Driver/src/stm32f4xx_gpio.c ****   GPIOx->AFR[GPIO_PinSource >> 0x03] = temp_2;
 676              		.loc 1 542 0
 677 0200 40F82140 		str	r4, [r0, r1, lsl #2]	@ temp_2, GPIOx_15(D)->AFR
 678 0204 30BD     		pop	{r4, r5, pc}	@
 679              		.cfi_endproc
 680              	.LFE123:
 681              		.size	GPIO_PinAFConfig, .-GPIO_PinAFConfig
 682              	.Letext0:
 683              		.file 2 "/home/jarhmander/Code/CC/ARM/gcc/gcc-arm-none-eabi-4_7-2012q4/bin/../lib/gcc/arm-none-eab
 684              		.file 3 "../../STM32F4-Discovery_FW_V1.1.0/Libraries/CMSIS/ST/STM32F4xx/Include/stm32f4xx.h"
 685              		.file 4 "../../STM32F4-Discovery_FW_V1.1.0/Libraries/STM32F4xx_StdPeriph_Driver/inc/stm32f4xx_gpio
 686              		.file 5 "../../STM32F4-Discovery_FW_V1.1.0/Libraries/CMSIS/Include/core_cm4.h"
 687              		.file 6 "../../STM32F4-Discovery_FW_V1.1.0/Libraries/STM32F4xx_StdPeriph_Driver/inc/stm32f4xx_rcc.
 688 0206 00BF     		.section	.debug_info,"",%progbits
 689              	.Ldebug_info0:
 690 0000 43070000 		.4byte	0x743
 691 0004 0200     		.2byte	0x2
 692 0006 00000000 		.4byte	.Ldebug_abbrev0
 693 000a 04       		.byte	0x4
 694 000b 01       		.uleb128 0x1
 695 000c 82030000 		.4byte	.LASF76
 696 0010 01       		.byte	0x1
 697 0011 2A020000 		.4byte	.LASF77
 698 0015 1C040000 		.4byte	.LASF78
 699 0019 00000000 		.4byte	.Ltext0
 700 001d 06020000 		.4byte	.Letext0
 701 0021 00000000 		.4byte	.Ldebug_line0
 702 0025 02       		.uleb128 0x2
 703 0026 01       		.byte	0x1
 704 0027 06       		.byte	0x6
 705 0028 44010000 		.4byte	.LASF0
 706 002c 03       		.uleb128 0x3
ARM GAS  /tmp/cccCAPpj.s 			page 24


 707 002d 14040000 		.4byte	.LASF3
 708 0031 02       		.byte	0x2
 709 0032 2A       		.byte	0x2a
 710 0033 37000000 		.4byte	0x37
 711 0037 02       		.uleb128 0x2
 712 0038 01       		.byte	0x1
 713 0039 08       		.byte	0x8
 714 003a E3010000 		.4byte	.LASF1
 715 003e 02       		.uleb128 0x2
 716 003f 02       		.byte	0x2
 717 0040 05       		.byte	0x5
 718 0041 60000000 		.4byte	.LASF2
 719 0045 03       		.uleb128 0x3
 720 0046 C4020000 		.4byte	.LASF4
 721 004a 02       		.byte	0x2
 722 004b 36       		.byte	0x36
 723 004c 50000000 		.4byte	0x50
 724 0050 02       		.uleb128 0x2
 725 0051 02       		.byte	0x2
 726 0052 07       		.byte	0x7
 727 0053 3D030000 		.4byte	.LASF5
 728 0057 03       		.uleb128 0x3
 729 0058 22030000 		.4byte	.LASF6
 730 005c 02       		.byte	0x2
 731 005d 4F       		.byte	0x4f
 732 005e 62000000 		.4byte	0x62
 733 0062 02       		.uleb128 0x2
 734 0063 04       		.byte	0x4
 735 0064 05       		.byte	0x5
 736 0065 81010000 		.4byte	.LASF7
 737 0069 03       		.uleb128 0x3
 738 006a 9D020000 		.4byte	.LASF8
 739 006e 02       		.byte	0x2
 740 006f 50       		.byte	0x50
 741 0070 74000000 		.4byte	0x74
 742 0074 02       		.uleb128 0x2
 743 0075 04       		.byte	0x4
 744 0076 07       		.byte	0x7
 745 0077 D5020000 		.4byte	.LASF9
 746 007b 02       		.uleb128 0x2
 747 007c 08       		.byte	0x8
 748 007d 05       		.byte	0x5
 749 007e 5F010000 		.4byte	.LASF10
 750 0082 02       		.uleb128 0x2
 751 0083 08       		.byte	0x8
 752 0084 07       		.byte	0x7
 753 0085 86020000 		.4byte	.LASF11
 754 0089 04       		.uleb128 0x4
 755 008a 04       		.byte	0x4
 756 008b 05       		.byte	0x5
 757 008c 696E7400 		.ascii	"int\000"
 758 0090 02       		.uleb128 0x2
 759 0091 04       		.byte	0x4
 760 0092 07       		.byte	0x7
 761 0093 B7020000 		.4byte	.LASF12
 762 0097 02       		.uleb128 0x2
 763 0098 04       		.byte	0x4
ARM GAS  /tmp/cccCAPpj.s 			page 25


 764 0099 07       		.byte	0x7
 765 009a 7A000000 		.4byte	.LASF13
 766 009e 05       		.uleb128 0x5
 767 009f 69000000 		.4byte	0x69
 768 00a3 06       		.uleb128 0x6
 769 00a4 69000000 		.4byte	0x69
 770 00a8 B3000000 		.4byte	0xb3
 771 00ac 07       		.uleb128 0x7
 772 00ad 97000000 		.4byte	0x97
 773 00b1 01       		.byte	0x1
 774 00b2 00       		.byte	0
 775 00b3 05       		.uleb128 0x5
 776 00b4 45000000 		.4byte	0x45
 777 00b8 05       		.uleb128 0x5
 778 00b9 57000000 		.4byte	0x57
 779 00bd 08       		.uleb128 0x8
 780 00be 01       		.byte	0x1
 781 00bf 03       		.byte	0x3
 782 00c0 1F01     		.2byte	0x11f
 783 00c2 D3000000 		.4byte	0xd3
 784 00c6 09       		.uleb128 0x9
 785 00c7 1A030000 		.4byte	.LASF14
 786 00cb 00       		.sleb128 0
 787 00cc 09       		.uleb128 0x9
 788 00cd E7000000 		.4byte	.LASF15
 789 00d1 01       		.sleb128 1
 790 00d2 00       		.byte	0
 791 00d3 0A       		.uleb128 0xa
 792 00d4 DD030000 		.4byte	.LASF16
 793 00d8 03       		.byte	0x3
 794 00d9 1F01     		.2byte	0x11f
 795 00db BD000000 		.4byte	0xbd
 796 00df 0B       		.uleb128 0xb
 797 00e0 28       		.byte	0x28
 798 00e1 03       		.byte	0x3
 799 00e2 8E02     		.2byte	0x28e
 800 00e4 7F010000 		.4byte	0x17f
 801 00e8 0C       		.uleb128 0xc
 802 00e9 A9010000 		.4byte	.LASF17
 803 00ed 03       		.byte	0x3
 804 00ee 9002     		.2byte	0x290
 805 00f0 9E000000 		.4byte	0x9e
 806 00f4 02       		.byte	0x2
 807 00f5 23       		.byte	0x23
 808 00f6 00       		.uleb128 0
 809 00f7 0C       		.uleb128 0xc
 810 00f8 3D010000 		.4byte	.LASF18
 811 00fc 03       		.byte	0x3
 812 00fd 9102     		.2byte	0x291
 813 00ff 9E000000 		.4byte	0x9e
 814 0103 02       		.byte	0x2
 815 0104 23       		.byte	0x23
 816 0105 04       		.uleb128 0x4
 817 0106 0C       		.uleb128 0xc
 818 0107 66030000 		.4byte	.LASF19
 819 010b 03       		.byte	0x3
 820 010c 9202     		.2byte	0x292
ARM GAS  /tmp/cccCAPpj.s 			page 26


 821 010e 9E000000 		.4byte	0x9e
 822 0112 02       		.byte	0x2
 823 0113 23       		.byte	0x23
 824 0114 08       		.uleb128 0x8
 825 0115 0C       		.uleb128 0xc
 826 0116 7B010000 		.4byte	.LASF20
 827 011a 03       		.byte	0x3
 828 011b 9302     		.2byte	0x293
 829 011d 9E000000 		.4byte	0x9e
 830 0121 02       		.byte	0x2
 831 0122 23       		.byte	0x23
 832 0123 0C       		.uleb128 0xc
 833 0124 0D       		.uleb128 0xd
 834 0125 49445200 		.ascii	"IDR\000"
 835 0129 03       		.byte	0x3
 836 012a 9402     		.2byte	0x294
 837 012c 9E000000 		.4byte	0x9e
 838 0130 02       		.byte	0x2
 839 0131 23       		.byte	0x23
 840 0132 10       		.uleb128 0x10
 841 0133 0D       		.uleb128 0xd
 842 0134 4F445200 		.ascii	"ODR\000"
 843 0138 03       		.byte	0x3
 844 0139 9502     		.2byte	0x295
 845 013b 9E000000 		.4byte	0x9e
 846 013f 02       		.byte	0x2
 847 0140 23       		.byte	0x23
 848 0141 14       		.uleb128 0x14
 849 0142 0C       		.uleb128 0xc
 850 0143 AF010000 		.4byte	.LASF21
 851 0147 03       		.byte	0x3
 852 0148 9602     		.2byte	0x296
 853 014a B3000000 		.4byte	0xb3
 854 014e 02       		.byte	0x2
 855 014f 23       		.byte	0x23
 856 0150 18       		.uleb128 0x18
 857 0151 0C       		.uleb128 0xc
 858 0152 A3010000 		.4byte	.LASF22
 859 0156 03       		.byte	0x3
 860 0157 9702     		.2byte	0x297
 861 0159 B3000000 		.4byte	0xb3
 862 015d 02       		.byte	0x2
 863 015e 23       		.byte	0x23
 864 015f 1A       		.uleb128 0x1a
 865 0160 0C       		.uleb128 0xc
 866 0161 1F010000 		.4byte	.LASF23
 867 0165 03       		.byte	0x3
 868 0166 9802     		.2byte	0x298
 869 0168 9E000000 		.4byte	0x9e
 870 016c 02       		.byte	0x2
 871 016d 23       		.byte	0x23
 872 016e 1C       		.uleb128 0x1c
 873 016f 0D       		.uleb128 0xd
 874 0170 41465200 		.ascii	"AFR\000"
 875 0174 03       		.byte	0x3
 876 0175 9902     		.2byte	0x299
 877 0177 7F010000 		.4byte	0x17f
ARM GAS  /tmp/cccCAPpj.s 			page 27


 878 017b 02       		.byte	0x2
 879 017c 23       		.byte	0x23
 880 017d 20       		.uleb128 0x20
 881 017e 00       		.byte	0
 882 017f 05       		.uleb128 0x5
 883 0180 A3000000 		.4byte	0xa3
 884 0184 0A       		.uleb128 0xa
 885 0185 00000000 		.4byte	.LASF24
 886 0189 03       		.byte	0x3
 887 018a 9A02     		.2byte	0x29a
 888 018c DF000000 		.4byte	0xdf
 889 0190 0E       		.uleb128 0xe
 890 0191 01       		.byte	0x1
 891 0192 04       		.byte	0x4
 892 0193 3A       		.byte	0x3a
 893 0194 B1010000 		.4byte	0x1b1
 894 0198 09       		.uleb128 0x9
 895 0199 8A010000 		.4byte	.LASF25
 896 019d 00       		.sleb128 0
 897 019e 09       		.uleb128 0x9
 898 019f 6D010000 		.4byte	.LASF26
 899 01a3 01       		.sleb128 1
 900 01a4 09       		.uleb128 0x9
 901 01a5 CD000000 		.4byte	.LASF27
 902 01a9 02       		.sleb128 2
 903 01aa 09       		.uleb128 0x9
 904 01ab 03010000 		.4byte	.LASF28
 905 01af 03       		.sleb128 3
 906 01b0 00       		.byte	0
 907 01b1 03       		.uleb128 0x3
 908 01b2 39000000 		.4byte	.LASF29
 909 01b6 04       		.byte	0x4
 910 01b7 3F       		.byte	0x3f
 911 01b8 90010000 		.4byte	0x190
 912 01bc 0E       		.uleb128 0xe
 913 01bd 01       		.byte	0x1
 914 01be 04       		.byte	0x4
 915 01bf 47       		.byte	0x47
 916 01c0 D1010000 		.4byte	0x1d1
 917 01c4 09       		.uleb128 0x9
 918 01c5 CB010000 		.4byte	.LASF30
 919 01c9 00       		.sleb128 0
 920 01ca 09       		.uleb128 0x9
 921 01cb 8A000000 		.4byte	.LASF31
 922 01cf 01       		.sleb128 1
 923 01d0 00       		.byte	0
 924 01d1 03       		.uleb128 0x3
 925 01d2 B0000000 		.4byte	.LASF32
 926 01d6 04       		.byte	0x4
 927 01d7 4A       		.byte	0x4a
 928 01d8 BC010000 		.4byte	0x1bc
 929 01dc 0E       		.uleb128 0xe
 930 01dd 01       		.byte	0x1
 931 01de 04       		.byte	0x4
 932 01df 52       		.byte	0x52
 933 01e0 FD010000 		.4byte	0x1fd
 934 01e4 09       		.uleb128 0x9
ARM GAS  /tmp/cccCAPpj.s 			page 28


 935 01e5 1A020000 		.4byte	.LASF33
 936 01e9 00       		.sleb128 0
 937 01ea 09       		.uleb128 0x9
 938 01eb 4A000000 		.4byte	.LASF34
 939 01ef 01       		.sleb128 1
 940 01f0 09       		.uleb128 0x9
 941 01f1 03040000 		.4byte	.LASF35
 942 01f5 02       		.sleb128 2
 943 01f6 09       		.uleb128 0x9
 944 01f7 24010000 		.4byte	.LASF36
 945 01fb 03       		.sleb128 3
 946 01fc 00       		.byte	0
 947 01fd 03       		.uleb128 0x3
 948 01fe CB030000 		.4byte	.LASF37
 949 0202 04       		.byte	0x4
 950 0203 57       		.byte	0x57
 951 0204 DC010000 		.4byte	0x1dc
 952 0208 0E       		.uleb128 0xe
 953 0209 01       		.byte	0x1
 954 020a 04       		.byte	0x4
 955 020b 5F       		.byte	0x5f
 956 020c 23020000 		.4byte	0x223
 957 0210 09       		.uleb128 0x9
 958 0211 09030000 		.4byte	.LASF38
 959 0215 00       		.sleb128 0
 960 0216 09       		.uleb128 0x9
 961 0217 60040000 		.4byte	.LASF39
 962 021b 01       		.sleb128 1
 963 021c 09       		.uleb128 0x9
 964 021d 50010000 		.4byte	.LASF40
 965 0221 02       		.sleb128 2
 966 0222 00       		.byte	0
 967 0223 03       		.uleb128 0x3
 968 0224 4F040000 		.4byte	.LASF41
 969 0228 04       		.byte	0x4
 970 0229 63       		.byte	0x63
 971 022a 08020000 		.4byte	0x208
 972 022e 0E       		.uleb128 0xe
 973 022f 01       		.byte	0x1
 974 0230 04       		.byte	0x4
 975 0231 6B       		.byte	0x6b
 976 0232 43020000 		.4byte	0x243
 977 0236 09       		.uleb128 0x9
 978 0237 98000000 		.4byte	.LASF42
 979 023b 00       		.sleb128 0
 980 023c 09       		.uleb128 0x9
 981 023d 1D000000 		.4byte	.LASF43
 982 0241 01       		.sleb128 1
 983 0242 00       		.byte	0
 984 0243 03       		.uleb128 0x3
 985 0244 78030000 		.4byte	.LASF44
 986 0248 04       		.byte	0x4
 987 0249 6E       		.byte	0x6e
 988 024a 2E020000 		.4byte	0x22e
 989 024e 0F       		.uleb128 0xf
 990 024f 08       		.byte	0x8
 991 0250 04       		.byte	0x4
ARM GAS  /tmp/cccCAPpj.s 			page 29


 992 0251 75       		.byte	0x75
 993 0252 9D020000 		.4byte	0x29d
 994 0256 10       		.uleb128 0x10
 995 0257 14000000 		.4byte	.LASF45
 996 025b 04       		.byte	0x4
 997 025c 77       		.byte	0x77
 998 025d 69000000 		.4byte	0x69
 999 0261 02       		.byte	0x2
 1000 0262 23       		.byte	0x23
 1001 0263 00       		.uleb128 0
 1002 0264 10       		.uleb128 0x10
 1003 0265 6E030000 		.4byte	.LASF46
 1004 0269 04       		.byte	0x4
 1005 026a 7A       		.byte	0x7a
 1006 026b B1010000 		.4byte	0x1b1
 1007 026f 02       		.byte	0x2
 1008 0270 23       		.byte	0x23
 1009 0271 04       		.uleb128 0x4
 1010 0272 10       		.uleb128 0x10
 1011 0273 EE000000 		.4byte	.LASF47
 1012 0277 04       		.byte	0x4
 1013 0278 7D       		.byte	0x7d
 1014 0279 FD010000 		.4byte	0x1fd
 1015 027d 02       		.byte	0x2
 1016 027e 23       		.byte	0x23
 1017 027f 05       		.uleb128 0x5
 1018 0280 10       		.uleb128 0x10
 1019 0281 C2000000 		.4byte	.LASF48
 1020 0285 04       		.byte	0x4
 1021 0286 80       		.byte	0x80
 1022 0287 D1010000 		.4byte	0x1d1
 1023 028b 02       		.byte	0x2
 1024 028c 23       		.byte	0x23
 1025 028d 06       		.uleb128 0x6
 1026 028e 10       		.uleb128 0x10
 1027 028f 10020000 		.4byte	.LASF49
 1028 0293 04       		.byte	0x4
 1029 0294 83       		.byte	0x83
 1030 0295 23020000 		.4byte	0x223
 1031 0299 02       		.byte	0x2
 1032 029a 23       		.byte	0x23
 1033 029b 07       		.uleb128 0x7
 1034 029c 00       		.byte	0
 1035 029d 03       		.uleb128 0x3
 1036 029e A6020000 		.4byte	.LASF50
 1037 02a2 04       		.byte	0x4
 1038 02a3 85       		.byte	0x85
 1039 02a4 4E020000 		.4byte	0x24e
 1040 02a8 11       		.uleb128 0x11
 1041 02a9 01       		.byte	0x1
 1042 02aa 97010000 		.4byte	.LASF51
 1043 02ae 01       		.byte	0x1
 1044 02af 78       		.byte	0x78
 1045 02b0 01       		.byte	0x1
 1046 02b1 00000000 		.4byte	.LFB110
 1047 02b5 D8000000 		.4byte	.LFE110
 1048 02b9 00000000 		.4byte	.LLST0
ARM GAS  /tmp/cccCAPpj.s 			page 30


 1049 02bd 01       		.byte	0x1
 1050 02be BF030000 		.4byte	0x3bf
 1051 02c2 12       		.uleb128 0x12
 1052 02c3 ED030000 		.4byte	.LASF53
 1053 02c7 01       		.byte	0x1
 1054 02c8 78       		.byte	0x78
 1055 02c9 BF030000 		.4byte	0x3bf
 1056 02cd 20000000 		.4byte	.LLST1
 1057 02d1 13       		.uleb128 0x13
 1058 02d2 10000000 		.4byte	.LVL2
 1059 02d6 30070000 		.4byte	0x730
 1060 02da E9020000 		.4byte	0x2e9
 1061 02de 14       		.uleb128 0x14
 1062 02df 01       		.byte	0x1
 1063 02e0 51       		.byte	0x51
 1064 02e1 01       		.byte	0x1
 1065 02e2 31       		.byte	0x31
 1066 02e3 14       		.uleb128 0x14
 1067 02e4 01       		.byte	0x1
 1068 02e5 50       		.byte	0x50
 1069 02e6 01       		.byte	0x1
 1070 02e7 31       		.byte	0x31
 1071 02e8 00       		.byte	0
 1072 02e9 13       		.uleb128 0x13
 1073 02ea 22000000 		.4byte	.LVL5
 1074 02ee 30070000 		.4byte	0x730
 1075 02f2 01030000 		.4byte	0x301
 1076 02f6 14       		.uleb128 0x14
 1077 02f7 01       		.byte	0x1
 1078 02f8 51       		.byte	0x51
 1079 02f9 01       		.byte	0x1
 1080 02fa 31       		.byte	0x31
 1081 02fb 14       		.uleb128 0x14
 1082 02fc 01       		.byte	0x1
 1083 02fd 50       		.byte	0x50
 1084 02fe 01       		.byte	0x1
 1085 02ff 32       		.byte	0x32
 1086 0300 00       		.byte	0
 1087 0301 13       		.uleb128 0x13
 1088 0302 34000000 		.4byte	.LVL8
 1089 0306 30070000 		.4byte	0x730
 1090 030a 19030000 		.4byte	0x319
 1091 030e 14       		.uleb128 0x14
 1092 030f 01       		.byte	0x1
 1093 0310 51       		.byte	0x51
 1094 0311 01       		.byte	0x1
 1095 0312 31       		.byte	0x31
 1096 0313 14       		.uleb128 0x14
 1097 0314 01       		.byte	0x1
 1098 0315 50       		.byte	0x50
 1099 0316 01       		.byte	0x1
 1100 0317 34       		.byte	0x34
 1101 0318 00       		.byte	0
 1102 0319 13       		.uleb128 0x13
 1103 031a 46000000 		.4byte	.LVL11
 1104 031e 30070000 		.4byte	0x730
 1105 0322 31030000 		.4byte	0x331
ARM GAS  /tmp/cccCAPpj.s 			page 31


 1106 0326 14       		.uleb128 0x14
 1107 0327 01       		.byte	0x1
 1108 0328 51       		.byte	0x51
 1109 0329 01       		.byte	0x1
 1110 032a 31       		.byte	0x31
 1111 032b 14       		.uleb128 0x14
 1112 032c 01       		.byte	0x1
 1113 032d 50       		.byte	0x50
 1114 032e 01       		.byte	0x1
 1115 032f 38       		.byte	0x38
 1116 0330 00       		.byte	0
 1117 0331 13       		.uleb128 0x13
 1118 0332 58000000 		.4byte	.LVL14
 1119 0336 30070000 		.4byte	0x730
 1120 033a 49030000 		.4byte	0x349
 1121 033e 14       		.uleb128 0x14
 1122 033f 01       		.byte	0x1
 1123 0340 51       		.byte	0x51
 1124 0341 01       		.byte	0x1
 1125 0342 31       		.byte	0x31
 1126 0343 14       		.uleb128 0x14
 1127 0344 01       		.byte	0x1
 1128 0345 50       		.byte	0x50
 1129 0346 01       		.byte	0x1
 1130 0347 40       		.byte	0x40
 1131 0348 00       		.byte	0
 1132 0349 13       		.uleb128 0x13
 1133 034a 6A000000 		.4byte	.LVL17
 1134 034e 30070000 		.4byte	0x730
 1135 0352 62030000 		.4byte	0x362
 1136 0356 14       		.uleb128 0x14
 1137 0357 01       		.byte	0x1
 1138 0358 51       		.byte	0x51
 1139 0359 01       		.byte	0x1
 1140 035a 31       		.byte	0x31
 1141 035b 14       		.uleb128 0x14
 1142 035c 01       		.byte	0x1
 1143 035d 50       		.byte	0x50
 1144 035e 02       		.byte	0x2
 1145 035f 08       		.byte	0x8
 1146 0360 20       		.byte	0x20
 1147 0361 00       		.byte	0
 1148 0362 13       		.uleb128 0x13
 1149 0363 7C000000 		.4byte	.LVL20
 1150 0367 30070000 		.4byte	0x730
 1151 036b 7B030000 		.4byte	0x37b
 1152 036f 14       		.uleb128 0x14
 1153 0370 01       		.byte	0x1
 1154 0371 51       		.byte	0x51
 1155 0372 01       		.byte	0x1
 1156 0373 31       		.byte	0x31
 1157 0374 14       		.uleb128 0x14
 1158 0375 01       		.byte	0x1
 1159 0376 50       		.byte	0x50
 1160 0377 02       		.byte	0x2
 1161 0378 08       		.byte	0x8
 1162 0379 40       		.byte	0x40
ARM GAS  /tmp/cccCAPpj.s 			page 32


 1163 037a 00       		.byte	0
 1164 037b 13       		.uleb128 0x13
 1165 037c 8E000000 		.4byte	.LVL23
 1166 0380 30070000 		.4byte	0x730
 1167 0384 94030000 		.4byte	0x394
 1168 0388 14       		.uleb128 0x14
 1169 0389 01       		.byte	0x1
 1170 038a 51       		.byte	0x51
 1171 038b 01       		.byte	0x1
 1172 038c 31       		.byte	0x31
 1173 038d 14       		.uleb128 0x14
 1174 038e 01       		.byte	0x1
 1175 038f 50       		.byte	0x50
 1176 0390 02       		.byte	0x2
 1177 0391 08       		.byte	0x8
 1178 0392 80       		.byte	0x80
 1179 0393 00       		.byte	0
 1180 0394 13       		.uleb128 0x13
 1181 0395 A2000000 		.4byte	.LVL26
 1182 0399 30070000 		.4byte	0x730
 1183 039d AE030000 		.4byte	0x3ae
 1184 03a1 14       		.uleb128 0x14
 1185 03a2 01       		.byte	0x1
 1186 03a3 51       		.byte	0x51
 1187 03a4 01       		.byte	0x1
 1188 03a5 31       		.byte	0x31
 1189 03a6 14       		.uleb128 0x14
 1190 03a7 01       		.byte	0x1
 1191 03a8 50       		.byte	0x50
 1192 03a9 03       		.byte	0x3
 1193 03aa 0A       		.byte	0xa
 1194 03ab 0001     		.2byte	0x100
 1195 03ad 00       		.byte	0
 1196 03ae 15       		.uleb128 0x15
 1197 03af B0000000 		.4byte	.LVL27
 1198 03b3 01       		.byte	0x1
 1199 03b4 30070000 		.4byte	0x730
 1200 03b8 14       		.uleb128 0x14
 1201 03b9 01       		.byte	0x1
 1202 03ba 51       		.byte	0x51
 1203 03bb 01       		.byte	0x1
 1204 03bc 30       		.byte	0x30
 1205 03bd 00       		.byte	0
 1206 03be 00       		.byte	0
 1207 03bf 16       		.uleb128 0x16
 1208 03c0 04       		.byte	0x4
 1209 03c1 84010000 		.4byte	0x184
 1210 03c5 11       		.uleb128 0x11
 1211 03c6 01       		.byte	0x1
 1212 03c7 F9000000 		.4byte	.LASF52
 1213 03cb 01       		.byte	0x1
 1214 03cc B6       		.byte	0xb6
 1215 03cd 01       		.byte	0x1
 1216 03ce D8000000 		.4byte	.LFB111
 1217 03d2 5E010000 		.4byte	.LFE111
 1218 03d6 14010000 		.4byte	.LLST2
 1219 03da 01       		.byte	0x1
ARM GAS  /tmp/cccCAPpj.s 			page 33


 1220 03db 27040000 		.4byte	0x427
 1221 03df 17       		.uleb128 0x17
 1222 03e0 ED030000 		.4byte	.LASF53
 1223 03e4 01       		.byte	0x1
 1224 03e5 B6       		.byte	0xb6
 1225 03e6 BF030000 		.4byte	0x3bf
 1226 03ea 01       		.byte	0x1
 1227 03eb 50       		.byte	0x50
 1228 03ec 17       		.uleb128 0x17
 1229 03ed A2040000 		.4byte	.LASF54
 1230 03f1 01       		.byte	0x1
 1231 03f2 B6       		.byte	0xb6
 1232 03f3 27040000 		.4byte	0x427
 1233 03f7 01       		.byte	0x1
 1234 03f8 51       		.byte	0x51
 1235 03f9 18       		.uleb128 0x18
 1236 03fa 0D000000 		.4byte	.LASF55
 1237 03fe 01       		.byte	0x1
 1238 03ff B8       		.byte	0xb8
 1239 0400 69000000 		.4byte	0x69
 1240 0404 34010000 		.4byte	.LLST3
 1241 0408 19       		.uleb128 0x19
 1242 0409 706F7300 		.ascii	"pos\000"
 1243 040d 01       		.byte	0x1
 1244 040e B8       		.byte	0xb8
 1245 040f 69000000 		.4byte	0x69
 1246 0413 53010000 		.4byte	.LLST4
 1247 0417 18       		.uleb128 0x18
 1248 0418 50030000 		.4byte	.LASF56
 1249 041c 01       		.byte	0x1
 1250 041d B8       		.byte	0xb8
 1251 041e 69000000 		.4byte	0x69
 1252 0422 90010000 		.4byte	.LLST5
 1253 0426 00       		.byte	0
 1254 0427 16       		.uleb128 0x16
 1255 0428 04       		.byte	0x4
 1256 0429 9D020000 		.4byte	0x29d
 1257 042d 1A       		.uleb128 0x1a
 1258 042e 01       		.byte	0x1
 1259 042f 6A000000 		.4byte	.LASF57
 1260 0433 01       		.byte	0x1
 1261 0434 EA       		.byte	0xea
 1262 0435 01       		.byte	0x1
 1263 0436 5E010000 		.4byte	.LFB112
 1264 043a 70010000 		.4byte	.LFE112
 1265 043e 02       		.byte	0x2
 1266 043f 7D       		.byte	0x7d
 1267 0440 00       		.sleb128 0
 1268 0441 01       		.byte	0x1
 1269 0442 54040000 		.4byte	0x454
 1270 0446 17       		.uleb128 0x17
 1271 0447 A2040000 		.4byte	.LASF54
 1272 044b 01       		.byte	0x1
 1273 044c EA       		.byte	0xea
 1274 044d 27040000 		.4byte	0x427
 1275 0451 01       		.byte	0x1
 1276 0452 50       		.byte	0x50
ARM GAS  /tmp/cccCAPpj.s 			page 34


 1277 0453 00       		.byte	0
 1278 0454 11       		.uleb128 0x11
 1279 0455 01       		.byte	0x1
 1280 0456 2A030000 		.4byte	.LASF58
 1281 045a 01       		.byte	0x1
 1282 045b FF       		.byte	0xff
 1283 045c 01       		.byte	0x1
 1284 045d 70010000 		.4byte	.LFB113
 1285 0461 96010000 		.4byte	.LFE113
 1286 0465 D3010000 		.4byte	.LLST6
 1287 0469 01       		.byte	0x1
 1288 046a 9D040000 		.4byte	0x49d
 1289 046e 12       		.uleb128 0x12
 1290 046f ED030000 		.4byte	.LASF53
 1291 0473 01       		.byte	0x1
 1292 0474 FF       		.byte	0xff
 1293 0475 BF030000 		.4byte	0x3bf
 1294 0479 F3010000 		.4byte	.LLST7
 1295 047d 12       		.uleb128 0x12
 1296 047e 14000000 		.4byte	.LASF45
 1297 0482 01       		.byte	0x1
 1298 0483 FF       		.byte	0xff
 1299 0484 45000000 		.4byte	0x45
 1300 0488 14020000 		.4byte	.LLST8
 1301 048c 1B       		.uleb128 0x1b
 1302 048d 746D7000 		.ascii	"tmp\000"
 1303 0491 01       		.byte	0x1
 1304 0492 0101     		.2byte	0x101
 1305 0494 9E000000 		.4byte	0x9e
 1306 0498 35020000 		.4byte	.LLST9
 1307 049c 00       		.byte	0
 1308 049d 1C       		.uleb128 0x1c
 1309 049e 01       		.byte	0x1
 1310 049f B5010000 		.4byte	.LASF60
 1311 04a3 01       		.byte	0x1
 1312 04a4 2B01     		.2byte	0x12b
 1313 04a6 01       		.byte	0x1
 1314 04a7 2C000000 		.4byte	0x2c
 1315 04ab 96010000 		.4byte	.LFB114
 1316 04af A2010000 		.4byte	.LFE114
 1317 04b3 02       		.byte	0x2
 1318 04b4 7D       		.byte	0x7d
 1319 04b5 00       		.sleb128 0
 1320 04b6 01       		.byte	0x1
 1321 04b7 EA040000 		.4byte	0x4ea
 1322 04bb 1D       		.uleb128 0x1d
 1323 04bc ED030000 		.4byte	.LASF53
 1324 04c0 01       		.byte	0x1
 1325 04c1 2B01     		.2byte	0x12b
 1326 04c3 BF030000 		.4byte	0x3bf
 1327 04c7 5F020000 		.4byte	.LLST10
 1328 04cb 1E       		.uleb128 0x1e
 1329 04cc 14000000 		.4byte	.LASF45
 1330 04d0 01       		.byte	0x1
 1331 04d1 2B01     		.2byte	0x12b
 1332 04d3 45000000 		.4byte	0x45
 1333 04d7 01       		.byte	0x1
ARM GAS  /tmp/cccCAPpj.s 			page 35


 1334 04d8 51       		.byte	0x51
 1335 04d9 1F       		.uleb128 0x1f
 1336 04da D9010000 		.4byte	.LASF59
 1337 04de 01       		.byte	0x1
 1338 04df 2D01     		.2byte	0x12d
 1339 04e1 2C000000 		.4byte	0x2c
 1340 04e5 80020000 		.4byte	.LLST11
 1341 04e9 00       		.byte	0
 1342 04ea 1C       		.uleb128 0x1c
 1343 04eb 01       		.byte	0x1
 1344 04ec F6020000 		.4byte	.LASF61
 1345 04f0 01       		.byte	0x1
 1346 04f1 4301     		.2byte	0x143
 1347 04f3 01       		.byte	0x1
 1348 04f4 45000000 		.4byte	0x45
 1349 04f8 A2010000 		.4byte	.LFB115
 1350 04fc A8010000 		.4byte	.LFE115
 1351 0500 02       		.byte	0x2
 1352 0501 7D       		.byte	0x7d
 1353 0502 00       		.sleb128 0
 1354 0503 01       		.byte	0x1
 1355 0504 19050000 		.4byte	0x519
 1356 0508 1D       		.uleb128 0x1d
 1357 0509 ED030000 		.4byte	.LASF53
 1358 050d 01       		.byte	0x1
 1359 050e 4301     		.2byte	0x143
 1360 0510 BF030000 		.4byte	0x3bf
 1361 0514 AA020000 		.4byte	.LLST12
 1362 0518 00       		.byte	0
 1363 0519 1C       		.uleb128 0x1c
 1364 051a 01       		.byte	0x1
 1365 051b 8B040000 		.4byte	.LASF62
 1366 051f 01       		.byte	0x1
 1367 0520 5201     		.2byte	0x152
 1368 0522 01       		.byte	0x1
 1369 0523 2C000000 		.4byte	0x2c
 1370 0527 A8010000 		.4byte	.LFB116
 1371 052b B4010000 		.4byte	.LFE116
 1372 052f 02       		.byte	0x2
 1373 0530 7D       		.byte	0x7d
 1374 0531 00       		.sleb128 0
 1375 0532 01       		.byte	0x1
 1376 0533 66050000 		.4byte	0x566
 1377 0537 1D       		.uleb128 0x1d
 1378 0538 ED030000 		.4byte	.LASF53
 1379 053c 01       		.byte	0x1
 1380 053d 5201     		.2byte	0x152
 1381 053f BF030000 		.4byte	0x3bf
 1382 0543 CB020000 		.4byte	.LLST13
 1383 0547 1E       		.uleb128 0x1e
 1384 0548 14000000 		.4byte	.LASF45
 1385 054c 01       		.byte	0x1
 1386 054d 5201     		.2byte	0x152
 1387 054f 45000000 		.4byte	0x45
 1388 0553 01       		.byte	0x1
 1389 0554 51       		.byte	0x51
 1390 0555 1F       		.uleb128 0x1f
ARM GAS  /tmp/cccCAPpj.s 			page 36


 1391 0556 D9010000 		.4byte	.LASF59
 1392 055a 01       		.byte	0x1
 1393 055b 5401     		.2byte	0x154
 1394 055d 2C000000 		.4byte	0x2c
 1395 0561 EC020000 		.4byte	.LLST14
 1396 0565 00       		.byte	0
 1397 0566 1C       		.uleb128 0x1c
 1398 0567 01       		.byte	0x1
 1399 0568 25000000 		.4byte	.LASF63
 1400 056c 01       		.byte	0x1
 1401 056d 6A01     		.2byte	0x16a
 1402 056f 01       		.byte	0x1
 1403 0570 45000000 		.4byte	0x45
 1404 0574 B4010000 		.4byte	.LFB117
 1405 0578 BA010000 		.4byte	.LFE117
 1406 057c 02       		.byte	0x2
 1407 057d 7D       		.byte	0x7d
 1408 057e 00       		.sleb128 0
 1409 057f 01       		.byte	0x1
 1410 0580 95050000 		.4byte	0x595
 1411 0584 1D       		.uleb128 0x1d
 1412 0585 ED030000 		.4byte	.LASF53
 1413 0589 01       		.byte	0x1
 1414 058a 6A01     		.2byte	0x16a
 1415 058c BF030000 		.4byte	0x3bf
 1416 0590 16030000 		.4byte	.LLST15
 1417 0594 00       		.byte	0
 1418 0595 20       		.uleb128 0x20
 1419 0596 01       		.byte	0x1
 1420 0597 DA000000 		.4byte	.LASF64
 1421 059b 01       		.byte	0x1
 1422 059c 7C01     		.2byte	0x17c
 1423 059e 01       		.byte	0x1
 1424 059f BA010000 		.4byte	.LFB118
 1425 05a3 BE010000 		.4byte	.LFE118
 1426 05a7 02       		.byte	0x2
 1427 05a8 7D       		.byte	0x7d
 1428 05a9 00       		.sleb128 0
 1429 05aa 01       		.byte	0x1
 1430 05ab CC050000 		.4byte	0x5cc
 1431 05af 1E       		.uleb128 0x1e
 1432 05b0 ED030000 		.4byte	.LASF53
 1433 05b4 01       		.byte	0x1
 1434 05b5 7C01     		.2byte	0x17c
 1435 05b7 BF030000 		.4byte	0x3bf
 1436 05bb 01       		.byte	0x1
 1437 05bc 50       		.byte	0x50
 1438 05bd 1E       		.uleb128 0x1e
 1439 05be 14000000 		.4byte	.LASF45
 1440 05c2 01       		.byte	0x1
 1441 05c3 7C01     		.2byte	0x17c
 1442 05c5 45000000 		.4byte	0x45
 1443 05c9 01       		.byte	0x1
 1444 05ca 51       		.byte	0x51
 1445 05cb 00       		.byte	0
 1446 05cc 20       		.uleb128 0x20
 1447 05cd 01       		.byte	0x1
ARM GAS  /tmp/cccCAPpj.s 			page 37


 1448 05ce 10010000 		.4byte	.LASF65
 1449 05d2 01       		.byte	0x1
 1450 05d3 8F01     		.2byte	0x18f
 1451 05d5 01       		.byte	0x1
 1452 05d6 BE010000 		.4byte	.LFB119
 1453 05da C2010000 		.4byte	.LFE119
 1454 05de 02       		.byte	0x2
 1455 05df 7D       		.byte	0x7d
 1456 05e0 00       		.sleb128 0
 1457 05e1 01       		.byte	0x1
 1458 05e2 03060000 		.4byte	0x603
 1459 05e6 1E       		.uleb128 0x1e
 1460 05e7 ED030000 		.4byte	.LASF53
 1461 05eb 01       		.byte	0x1
 1462 05ec 8F01     		.2byte	0x18f
 1463 05ee BF030000 		.4byte	0x3bf
 1464 05f2 01       		.byte	0x1
 1465 05f3 50       		.byte	0x50
 1466 05f4 1E       		.uleb128 0x1e
 1467 05f5 14000000 		.4byte	.LASF45
 1468 05f9 01       		.byte	0x1
 1469 05fa 8F01     		.2byte	0x18f
 1470 05fc 45000000 		.4byte	0x45
 1471 0600 01       		.byte	0x1
 1472 0601 51       		.byte	0x51
 1473 0602 00       		.byte	0
 1474 0603 20       		.uleb128 0x20
 1475 0604 01       		.byte	0x1
 1476 0605 A2000000 		.4byte	.LASF66
 1477 0609 01       		.byte	0x1
 1478 060a A301     		.2byte	0x1a3
 1479 060c 01       		.byte	0x1
 1480 060d C2010000 		.4byte	.LFB120
 1481 0611 CC010000 		.4byte	.LFE120
 1482 0615 02       		.byte	0x2
 1483 0616 7D       		.byte	0x7d
 1484 0617 00       		.sleb128 0
 1485 0618 01       		.byte	0x1
 1486 0619 48060000 		.4byte	0x648
 1487 061d 1E       		.uleb128 0x1e
 1488 061e ED030000 		.4byte	.LASF53
 1489 0622 01       		.byte	0x1
 1490 0623 A301     		.2byte	0x1a3
 1491 0625 BF030000 		.4byte	0x3bf
 1492 0629 01       		.byte	0x1
 1493 062a 50       		.byte	0x50
 1494 062b 1E       		.uleb128 0x1e
 1495 062c 14000000 		.4byte	.LASF45
 1496 0630 01       		.byte	0x1
 1497 0631 A301     		.2byte	0x1a3
 1498 0633 45000000 		.4byte	0x45
 1499 0637 01       		.byte	0x1
 1500 0638 51       		.byte	0x51
 1501 0639 1E       		.uleb128 0x1e
 1502 063a 83000000 		.4byte	.LASF67
 1503 063e 01       		.byte	0x1
 1504 063f A301     		.2byte	0x1a3
ARM GAS  /tmp/cccCAPpj.s 			page 38


 1505 0641 43020000 		.4byte	0x243
 1506 0645 01       		.byte	0x1
 1507 0646 52       		.byte	0x52
 1508 0647 00       		.byte	0
 1509 0648 20       		.uleb128 0x20
 1510 0649 01       		.byte	0x1
 1511 064a 5B030000 		.4byte	.LASF68
 1512 064e 01       		.byte	0x1
 1513 064f BA01     		.2byte	0x1ba
 1514 0651 01       		.byte	0x1
 1515 0652 CC010000 		.4byte	.LFB121
 1516 0656 D0010000 		.4byte	.LFE121
 1517 065a 02       		.byte	0x2
 1518 065b 7D       		.byte	0x7d
 1519 065c 00       		.sleb128 0
 1520 065d 01       		.byte	0x1
 1521 065e 7F060000 		.4byte	0x67f
 1522 0662 1E       		.uleb128 0x1e
 1523 0663 ED030000 		.4byte	.LASF53
 1524 0667 01       		.byte	0x1
 1525 0668 BA01     		.2byte	0x1ba
 1526 066a BF030000 		.4byte	0x3bf
 1527 066e 01       		.byte	0x1
 1528 066f 50       		.byte	0x50
 1529 0670 1E       		.uleb128 0x1e
 1530 0671 CD020000 		.4byte	.LASF69
 1531 0675 01       		.byte	0x1
 1532 0676 BA01     		.2byte	0x1ba
 1533 0678 45000000 		.4byte	0x45
 1534 067c 01       		.byte	0x1
 1535 067d 51       		.byte	0x51
 1536 067e 00       		.byte	0
 1537 067f 20       		.uleb128 0x20
 1538 0680 01       		.byte	0x1
 1539 0681 F3030000 		.4byte	.LASF70
 1540 0685 01       		.byte	0x1
 1541 0686 C801     		.2byte	0x1c8
 1542 0688 01       		.byte	0x1
 1543 0689 D0010000 		.4byte	.LFB122
 1544 068d D8010000 		.4byte	.LFE122
 1545 0691 02       		.byte	0x2
 1546 0692 7D       		.byte	0x7d
 1547 0693 00       		.sleb128 0
 1548 0694 01       		.byte	0x1
 1549 0695 B8060000 		.4byte	0x6b8
 1550 0699 1E       		.uleb128 0x1e
 1551 069a ED030000 		.4byte	.LASF53
 1552 069e 01       		.byte	0x1
 1553 069f C801     		.2byte	0x1c8
 1554 06a1 BF030000 		.4byte	0x3bf
 1555 06a5 01       		.byte	0x1
 1556 06a6 50       		.byte	0x50
 1557 06a7 1D       		.uleb128 0x1d
 1558 06a8 14000000 		.4byte	.LASF45
 1559 06ac 01       		.byte	0x1
 1560 06ad C801     		.2byte	0x1c8
 1561 06af 45000000 		.4byte	0x45
ARM GAS  /tmp/cccCAPpj.s 			page 39


 1562 06b3 37030000 		.4byte	.LLST16
 1563 06b7 00       		.byte	0
 1564 06b8 21       		.uleb128 0x21
 1565 06b9 01       		.byte	0x1
 1566 06ba 6D040000 		.4byte	.LASF71
 1567 06be 01       		.byte	0x1
 1568 06bf 1102     		.2byte	0x211
 1569 06c1 01       		.byte	0x1
 1570 06c2 D8010000 		.4byte	.LFB123
 1571 06c6 06020000 		.4byte	.LFE123
 1572 06ca 58030000 		.4byte	.LLST17
 1573 06ce 01       		.byte	0x1
 1574 06cf 22070000 		.4byte	0x722
 1575 06d3 1E       		.uleb128 0x1e
 1576 06d4 ED030000 		.4byte	.LASF53
 1577 06d8 01       		.byte	0x1
 1578 06d9 1102     		.2byte	0x211
 1579 06db BF030000 		.4byte	0x3bf
 1580 06df 01       		.byte	0x1
 1581 06e0 50       		.byte	0x50
 1582 06e1 1D       		.uleb128 0x1d
 1583 06e2 E7020000 		.4byte	.LASF72
 1584 06e6 01       		.byte	0x1
 1585 06e7 1102     		.2byte	0x211
 1586 06e9 45000000 		.4byte	0x45
 1587 06ed 78030000 		.4byte	.LLST18
 1588 06f1 1D       		.uleb128 0x1d
 1589 06f2 F1010000 		.4byte	.LASF73
 1590 06f6 01       		.byte	0x1
 1591 06f7 1102     		.2byte	0x211
 1592 06f9 2C000000 		.4byte	0x2c
 1593 06fd 99030000 		.4byte	.LLST19
 1594 0701 1F       		.uleb128 0x1f
 1595 0702 5B000000 		.4byte	.LASF74
 1596 0706 01       		.byte	0x1
 1597 0707 1302     		.2byte	0x213
 1598 0709 69000000 		.4byte	0x69
 1599 070d BA030000 		.4byte	.LLST20
 1600 0711 1F       		.uleb128 0x1f
 1601 0712 36010000 		.4byte	.LASF75
 1602 0716 01       		.byte	0x1
 1603 0717 1402     		.2byte	0x214
 1604 0719 69000000 		.4byte	0x69
 1605 071d F5030000 		.4byte	.LLST21
 1606 0721 00       		.byte	0
 1607 0722 22       		.uleb128 0x22
 1608 0723 7E040000 		.4byte	.LASF79
 1609 0727 05       		.byte	0x5
 1610 0728 1A05     		.2byte	0x51a
 1611 072a B8000000 		.4byte	0xb8
 1612 072e 01       		.byte	0x1
 1613 072f 01       		.byte	0x1
 1614 0730 23       		.uleb128 0x23
 1615 0731 01       		.byte	0x1
 1616 0732 F9010000 		.4byte	.LASF80
 1617 0736 06       		.byte	0x6
 1618 0737 DD01     		.2byte	0x1dd
ARM GAS  /tmp/cccCAPpj.s 			page 40


 1619 0739 01       		.byte	0x1
 1620 073a 01       		.byte	0x1
 1621 073b 24       		.uleb128 0x24
 1622 073c 69000000 		.4byte	0x69
 1623 0740 24       		.uleb128 0x24
 1624 0741 D3000000 		.4byte	0xd3
 1625 0745 00       		.byte	0
 1626 0746 00       		.byte	0
 1627              		.section	.debug_abbrev,"",%progbits
 1628              	.Ldebug_abbrev0:
 1629 0000 01       		.uleb128 0x1
 1630 0001 11       		.uleb128 0x11
 1631 0002 01       		.byte	0x1
 1632 0003 25       		.uleb128 0x25
 1633 0004 0E       		.uleb128 0xe
 1634 0005 13       		.uleb128 0x13
 1635 0006 0B       		.uleb128 0xb
 1636 0007 03       		.uleb128 0x3
 1637 0008 0E       		.uleb128 0xe
 1638 0009 1B       		.uleb128 0x1b
 1639 000a 0E       		.uleb128 0xe
 1640 000b 11       		.uleb128 0x11
 1641 000c 01       		.uleb128 0x1
 1642 000d 12       		.uleb128 0x12
 1643 000e 01       		.uleb128 0x1
 1644 000f 10       		.uleb128 0x10
 1645 0010 06       		.uleb128 0x6
 1646 0011 00       		.byte	0
 1647 0012 00       		.byte	0
 1648 0013 02       		.uleb128 0x2
 1649 0014 24       		.uleb128 0x24
 1650 0015 00       		.byte	0
 1651 0016 0B       		.uleb128 0xb
 1652 0017 0B       		.uleb128 0xb
 1653 0018 3E       		.uleb128 0x3e
 1654 0019 0B       		.uleb128 0xb
 1655 001a 03       		.uleb128 0x3
 1656 001b 0E       		.uleb128 0xe
 1657 001c 00       		.byte	0
 1658 001d 00       		.byte	0
 1659 001e 03       		.uleb128 0x3
 1660 001f 16       		.uleb128 0x16
 1661 0020 00       		.byte	0
 1662 0021 03       		.uleb128 0x3
 1663 0022 0E       		.uleb128 0xe
 1664 0023 3A       		.uleb128 0x3a
 1665 0024 0B       		.uleb128 0xb
 1666 0025 3B       		.uleb128 0x3b
 1667 0026 0B       		.uleb128 0xb
 1668 0027 49       		.uleb128 0x49
 1669 0028 13       		.uleb128 0x13
 1670 0029 00       		.byte	0
 1671 002a 00       		.byte	0
 1672 002b 04       		.uleb128 0x4
 1673 002c 24       		.uleb128 0x24
 1674 002d 00       		.byte	0
 1675 002e 0B       		.uleb128 0xb
ARM GAS  /tmp/cccCAPpj.s 			page 41


 1676 002f 0B       		.uleb128 0xb
 1677 0030 3E       		.uleb128 0x3e
 1678 0031 0B       		.uleb128 0xb
 1679 0032 03       		.uleb128 0x3
 1680 0033 08       		.uleb128 0x8
 1681 0034 00       		.byte	0
 1682 0035 00       		.byte	0
 1683 0036 05       		.uleb128 0x5
 1684 0037 35       		.uleb128 0x35
 1685 0038 00       		.byte	0
 1686 0039 49       		.uleb128 0x49
 1687 003a 13       		.uleb128 0x13
 1688 003b 00       		.byte	0
 1689 003c 00       		.byte	0
 1690 003d 06       		.uleb128 0x6
 1691 003e 01       		.uleb128 0x1
 1692 003f 01       		.byte	0x1
 1693 0040 49       		.uleb128 0x49
 1694 0041 13       		.uleb128 0x13
 1695 0042 01       		.uleb128 0x1
 1696 0043 13       		.uleb128 0x13
 1697 0044 00       		.byte	0
 1698 0045 00       		.byte	0
 1699 0046 07       		.uleb128 0x7
 1700 0047 21       		.uleb128 0x21
 1701 0048 00       		.byte	0
 1702 0049 49       		.uleb128 0x49
 1703 004a 13       		.uleb128 0x13
 1704 004b 2F       		.uleb128 0x2f
 1705 004c 0B       		.uleb128 0xb
 1706 004d 00       		.byte	0
 1707 004e 00       		.byte	0
 1708 004f 08       		.uleb128 0x8
 1709 0050 04       		.uleb128 0x4
 1710 0051 01       		.byte	0x1
 1711 0052 0B       		.uleb128 0xb
 1712 0053 0B       		.uleb128 0xb
 1713 0054 3A       		.uleb128 0x3a
 1714 0055 0B       		.uleb128 0xb
 1715 0056 3B       		.uleb128 0x3b
 1716 0057 05       		.uleb128 0x5
 1717 0058 01       		.uleb128 0x1
 1718 0059 13       		.uleb128 0x13
 1719 005a 00       		.byte	0
 1720 005b 00       		.byte	0
 1721 005c 09       		.uleb128 0x9
 1722 005d 28       		.uleb128 0x28
 1723 005e 00       		.byte	0
 1724 005f 03       		.uleb128 0x3
 1725 0060 0E       		.uleb128 0xe
 1726 0061 1C       		.uleb128 0x1c
 1727 0062 0D       		.uleb128 0xd
 1728 0063 00       		.byte	0
 1729 0064 00       		.byte	0
 1730 0065 0A       		.uleb128 0xa
 1731 0066 16       		.uleb128 0x16
 1732 0067 00       		.byte	0
ARM GAS  /tmp/cccCAPpj.s 			page 42


 1733 0068 03       		.uleb128 0x3
 1734 0069 0E       		.uleb128 0xe
 1735 006a 3A       		.uleb128 0x3a
 1736 006b 0B       		.uleb128 0xb
 1737 006c 3B       		.uleb128 0x3b
 1738 006d 05       		.uleb128 0x5
 1739 006e 49       		.uleb128 0x49
 1740 006f 13       		.uleb128 0x13
 1741 0070 00       		.byte	0
 1742 0071 00       		.byte	0
 1743 0072 0B       		.uleb128 0xb
 1744 0073 13       		.uleb128 0x13
 1745 0074 01       		.byte	0x1
 1746 0075 0B       		.uleb128 0xb
 1747 0076 0B       		.uleb128 0xb
 1748 0077 3A       		.uleb128 0x3a
 1749 0078 0B       		.uleb128 0xb
 1750 0079 3B       		.uleb128 0x3b
 1751 007a 05       		.uleb128 0x5
 1752 007b 01       		.uleb128 0x1
 1753 007c 13       		.uleb128 0x13
 1754 007d 00       		.byte	0
 1755 007e 00       		.byte	0
 1756 007f 0C       		.uleb128 0xc
 1757 0080 0D       		.uleb128 0xd
 1758 0081 00       		.byte	0
 1759 0082 03       		.uleb128 0x3
 1760 0083 0E       		.uleb128 0xe
 1761 0084 3A       		.uleb128 0x3a
 1762 0085 0B       		.uleb128 0xb
 1763 0086 3B       		.uleb128 0x3b
 1764 0087 05       		.uleb128 0x5
 1765 0088 49       		.uleb128 0x49
 1766 0089 13       		.uleb128 0x13
 1767 008a 38       		.uleb128 0x38
 1768 008b 0A       		.uleb128 0xa
 1769 008c 00       		.byte	0
 1770 008d 00       		.byte	0
 1771 008e 0D       		.uleb128 0xd
 1772 008f 0D       		.uleb128 0xd
 1773 0090 00       		.byte	0
 1774 0091 03       		.uleb128 0x3
 1775 0092 08       		.uleb128 0x8
 1776 0093 3A       		.uleb128 0x3a
 1777 0094 0B       		.uleb128 0xb
 1778 0095 3B       		.uleb128 0x3b
 1779 0096 05       		.uleb128 0x5
 1780 0097 49       		.uleb128 0x49
 1781 0098 13       		.uleb128 0x13
 1782 0099 38       		.uleb128 0x38
 1783 009a 0A       		.uleb128 0xa
 1784 009b 00       		.byte	0
 1785 009c 00       		.byte	0
 1786 009d 0E       		.uleb128 0xe
 1787 009e 04       		.uleb128 0x4
 1788 009f 01       		.byte	0x1
 1789 00a0 0B       		.uleb128 0xb
ARM GAS  /tmp/cccCAPpj.s 			page 43


 1790 00a1 0B       		.uleb128 0xb
 1791 00a2 3A       		.uleb128 0x3a
 1792 00a3 0B       		.uleb128 0xb
 1793 00a4 3B       		.uleb128 0x3b
 1794 00a5 0B       		.uleb128 0xb
 1795 00a6 01       		.uleb128 0x1
 1796 00a7 13       		.uleb128 0x13
 1797 00a8 00       		.byte	0
 1798 00a9 00       		.byte	0
 1799 00aa 0F       		.uleb128 0xf
 1800 00ab 13       		.uleb128 0x13
 1801 00ac 01       		.byte	0x1
 1802 00ad 0B       		.uleb128 0xb
 1803 00ae 0B       		.uleb128 0xb
 1804 00af 3A       		.uleb128 0x3a
 1805 00b0 0B       		.uleb128 0xb
 1806 00b1 3B       		.uleb128 0x3b
 1807 00b2 0B       		.uleb128 0xb
 1808 00b3 01       		.uleb128 0x1
 1809 00b4 13       		.uleb128 0x13
 1810 00b5 00       		.byte	0
 1811 00b6 00       		.byte	0
 1812 00b7 10       		.uleb128 0x10
 1813 00b8 0D       		.uleb128 0xd
 1814 00b9 00       		.byte	0
 1815 00ba 03       		.uleb128 0x3
 1816 00bb 0E       		.uleb128 0xe
 1817 00bc 3A       		.uleb128 0x3a
 1818 00bd 0B       		.uleb128 0xb
 1819 00be 3B       		.uleb128 0x3b
 1820 00bf 0B       		.uleb128 0xb
 1821 00c0 49       		.uleb128 0x49
 1822 00c1 13       		.uleb128 0x13
 1823 00c2 38       		.uleb128 0x38
 1824 00c3 0A       		.uleb128 0xa
 1825 00c4 00       		.byte	0
 1826 00c5 00       		.byte	0
 1827 00c6 11       		.uleb128 0x11
 1828 00c7 2E       		.uleb128 0x2e
 1829 00c8 01       		.byte	0x1
 1830 00c9 3F       		.uleb128 0x3f
 1831 00ca 0C       		.uleb128 0xc
 1832 00cb 03       		.uleb128 0x3
 1833 00cc 0E       		.uleb128 0xe
 1834 00cd 3A       		.uleb128 0x3a
 1835 00ce 0B       		.uleb128 0xb
 1836 00cf 3B       		.uleb128 0x3b
 1837 00d0 0B       		.uleb128 0xb
 1838 00d1 27       		.uleb128 0x27
 1839 00d2 0C       		.uleb128 0xc
 1840 00d3 11       		.uleb128 0x11
 1841 00d4 01       		.uleb128 0x1
 1842 00d5 12       		.uleb128 0x12
 1843 00d6 01       		.uleb128 0x1
 1844 00d7 40       		.uleb128 0x40
 1845 00d8 06       		.uleb128 0x6
 1846 00d9 9742     		.uleb128 0x2117
ARM GAS  /tmp/cccCAPpj.s 			page 44


 1847 00db 0C       		.uleb128 0xc
 1848 00dc 01       		.uleb128 0x1
 1849 00dd 13       		.uleb128 0x13
 1850 00de 00       		.byte	0
 1851 00df 00       		.byte	0
 1852 00e0 12       		.uleb128 0x12
 1853 00e1 05       		.uleb128 0x5
 1854 00e2 00       		.byte	0
 1855 00e3 03       		.uleb128 0x3
 1856 00e4 0E       		.uleb128 0xe
 1857 00e5 3A       		.uleb128 0x3a
 1858 00e6 0B       		.uleb128 0xb
 1859 00e7 3B       		.uleb128 0x3b
 1860 00e8 0B       		.uleb128 0xb
 1861 00e9 49       		.uleb128 0x49
 1862 00ea 13       		.uleb128 0x13
 1863 00eb 02       		.uleb128 0x2
 1864 00ec 06       		.uleb128 0x6
 1865 00ed 00       		.byte	0
 1866 00ee 00       		.byte	0
 1867 00ef 13       		.uleb128 0x13
 1868 00f0 898201   		.uleb128 0x4109
 1869 00f3 01       		.byte	0x1
 1870 00f4 11       		.uleb128 0x11
 1871 00f5 01       		.uleb128 0x1
 1872 00f6 31       		.uleb128 0x31
 1873 00f7 13       		.uleb128 0x13
 1874 00f8 01       		.uleb128 0x1
 1875 00f9 13       		.uleb128 0x13
 1876 00fa 00       		.byte	0
 1877 00fb 00       		.byte	0
 1878 00fc 14       		.uleb128 0x14
 1879 00fd 8A8201   		.uleb128 0x410a
 1880 0100 00       		.byte	0
 1881 0101 02       		.uleb128 0x2
 1882 0102 0A       		.uleb128 0xa
 1883 0103 9142     		.uleb128 0x2111
 1884 0105 0A       		.uleb128 0xa
 1885 0106 00       		.byte	0
 1886 0107 00       		.byte	0
 1887 0108 15       		.uleb128 0x15
 1888 0109 898201   		.uleb128 0x4109
 1889 010c 01       		.byte	0x1
 1890 010d 11       		.uleb128 0x11
 1891 010e 01       		.uleb128 0x1
 1892 010f 9542     		.uleb128 0x2115
 1893 0111 0C       		.uleb128 0xc
 1894 0112 31       		.uleb128 0x31
 1895 0113 13       		.uleb128 0x13
 1896 0114 00       		.byte	0
 1897 0115 00       		.byte	0
 1898 0116 16       		.uleb128 0x16
 1899 0117 0F       		.uleb128 0xf
 1900 0118 00       		.byte	0
 1901 0119 0B       		.uleb128 0xb
 1902 011a 0B       		.uleb128 0xb
 1903 011b 49       		.uleb128 0x49
ARM GAS  /tmp/cccCAPpj.s 			page 45


 1904 011c 13       		.uleb128 0x13
 1905 011d 00       		.byte	0
 1906 011e 00       		.byte	0
 1907 011f 17       		.uleb128 0x17
 1908 0120 05       		.uleb128 0x5
 1909 0121 00       		.byte	0
 1910 0122 03       		.uleb128 0x3
 1911 0123 0E       		.uleb128 0xe
 1912 0124 3A       		.uleb128 0x3a
 1913 0125 0B       		.uleb128 0xb
 1914 0126 3B       		.uleb128 0x3b
 1915 0127 0B       		.uleb128 0xb
 1916 0128 49       		.uleb128 0x49
 1917 0129 13       		.uleb128 0x13
 1918 012a 02       		.uleb128 0x2
 1919 012b 0A       		.uleb128 0xa
 1920 012c 00       		.byte	0
 1921 012d 00       		.byte	0
 1922 012e 18       		.uleb128 0x18
 1923 012f 34       		.uleb128 0x34
 1924 0130 00       		.byte	0
 1925 0131 03       		.uleb128 0x3
 1926 0132 0E       		.uleb128 0xe
 1927 0133 3A       		.uleb128 0x3a
 1928 0134 0B       		.uleb128 0xb
 1929 0135 3B       		.uleb128 0x3b
 1930 0136 0B       		.uleb128 0xb
 1931 0137 49       		.uleb128 0x49
 1932 0138 13       		.uleb128 0x13
 1933 0139 02       		.uleb128 0x2
 1934 013a 06       		.uleb128 0x6
 1935 013b 00       		.byte	0
 1936 013c 00       		.byte	0
 1937 013d 19       		.uleb128 0x19
 1938 013e 34       		.uleb128 0x34
 1939 013f 00       		.byte	0
 1940 0140 03       		.uleb128 0x3
 1941 0141 08       		.uleb128 0x8
 1942 0142 3A       		.uleb128 0x3a
 1943 0143 0B       		.uleb128 0xb
 1944 0144 3B       		.uleb128 0x3b
 1945 0145 0B       		.uleb128 0xb
 1946 0146 49       		.uleb128 0x49
 1947 0147 13       		.uleb128 0x13
 1948 0148 02       		.uleb128 0x2
 1949 0149 06       		.uleb128 0x6
 1950 014a 00       		.byte	0
 1951 014b 00       		.byte	0
 1952 014c 1A       		.uleb128 0x1a
 1953 014d 2E       		.uleb128 0x2e
 1954 014e 01       		.byte	0x1
 1955 014f 3F       		.uleb128 0x3f
 1956 0150 0C       		.uleb128 0xc
 1957 0151 03       		.uleb128 0x3
 1958 0152 0E       		.uleb128 0xe
 1959 0153 3A       		.uleb128 0x3a
 1960 0154 0B       		.uleb128 0xb
ARM GAS  /tmp/cccCAPpj.s 			page 46


 1961 0155 3B       		.uleb128 0x3b
 1962 0156 0B       		.uleb128 0xb
 1963 0157 27       		.uleb128 0x27
 1964 0158 0C       		.uleb128 0xc
 1965 0159 11       		.uleb128 0x11
 1966 015a 01       		.uleb128 0x1
 1967 015b 12       		.uleb128 0x12
 1968 015c 01       		.uleb128 0x1
 1969 015d 40       		.uleb128 0x40
 1970 015e 0A       		.uleb128 0xa
 1971 015f 9742     		.uleb128 0x2117
 1972 0161 0C       		.uleb128 0xc
 1973 0162 01       		.uleb128 0x1
 1974 0163 13       		.uleb128 0x13
 1975 0164 00       		.byte	0
 1976 0165 00       		.byte	0
 1977 0166 1B       		.uleb128 0x1b
 1978 0167 34       		.uleb128 0x34
 1979 0168 00       		.byte	0
 1980 0169 03       		.uleb128 0x3
 1981 016a 08       		.uleb128 0x8
 1982 016b 3A       		.uleb128 0x3a
 1983 016c 0B       		.uleb128 0xb
 1984 016d 3B       		.uleb128 0x3b
 1985 016e 05       		.uleb128 0x5
 1986 016f 49       		.uleb128 0x49
 1987 0170 13       		.uleb128 0x13
 1988 0171 02       		.uleb128 0x2
 1989 0172 06       		.uleb128 0x6
 1990 0173 00       		.byte	0
 1991 0174 00       		.byte	0
 1992 0175 1C       		.uleb128 0x1c
 1993 0176 2E       		.uleb128 0x2e
 1994 0177 01       		.byte	0x1
 1995 0178 3F       		.uleb128 0x3f
 1996 0179 0C       		.uleb128 0xc
 1997 017a 03       		.uleb128 0x3
 1998 017b 0E       		.uleb128 0xe
 1999 017c 3A       		.uleb128 0x3a
 2000 017d 0B       		.uleb128 0xb
 2001 017e 3B       		.uleb128 0x3b
 2002 017f 05       		.uleb128 0x5
 2003 0180 27       		.uleb128 0x27
 2004 0181 0C       		.uleb128 0xc
 2005 0182 49       		.uleb128 0x49
 2006 0183 13       		.uleb128 0x13
 2007 0184 11       		.uleb128 0x11
 2008 0185 01       		.uleb128 0x1
 2009 0186 12       		.uleb128 0x12
 2010 0187 01       		.uleb128 0x1
 2011 0188 40       		.uleb128 0x40
 2012 0189 0A       		.uleb128 0xa
 2013 018a 9742     		.uleb128 0x2117
 2014 018c 0C       		.uleb128 0xc
 2015 018d 01       		.uleb128 0x1
 2016 018e 13       		.uleb128 0x13
 2017 018f 00       		.byte	0
ARM GAS  /tmp/cccCAPpj.s 			page 47


 2018 0190 00       		.byte	0
 2019 0191 1D       		.uleb128 0x1d
 2020 0192 05       		.uleb128 0x5
 2021 0193 00       		.byte	0
 2022 0194 03       		.uleb128 0x3
 2023 0195 0E       		.uleb128 0xe
 2024 0196 3A       		.uleb128 0x3a
 2025 0197 0B       		.uleb128 0xb
 2026 0198 3B       		.uleb128 0x3b
 2027 0199 05       		.uleb128 0x5
 2028 019a 49       		.uleb128 0x49
 2029 019b 13       		.uleb128 0x13
 2030 019c 02       		.uleb128 0x2
 2031 019d 06       		.uleb128 0x6
 2032 019e 00       		.byte	0
 2033 019f 00       		.byte	0
 2034 01a0 1E       		.uleb128 0x1e
 2035 01a1 05       		.uleb128 0x5
 2036 01a2 00       		.byte	0
 2037 01a3 03       		.uleb128 0x3
 2038 01a4 0E       		.uleb128 0xe
 2039 01a5 3A       		.uleb128 0x3a
 2040 01a6 0B       		.uleb128 0xb
 2041 01a7 3B       		.uleb128 0x3b
 2042 01a8 05       		.uleb128 0x5
 2043 01a9 49       		.uleb128 0x49
 2044 01aa 13       		.uleb128 0x13
 2045 01ab 02       		.uleb128 0x2
 2046 01ac 0A       		.uleb128 0xa
 2047 01ad 00       		.byte	0
 2048 01ae 00       		.byte	0
 2049 01af 1F       		.uleb128 0x1f
 2050 01b0 34       		.uleb128 0x34
 2051 01b1 00       		.byte	0
 2052 01b2 03       		.uleb128 0x3
 2053 01b3 0E       		.uleb128 0xe
 2054 01b4 3A       		.uleb128 0x3a
 2055 01b5 0B       		.uleb128 0xb
 2056 01b6 3B       		.uleb128 0x3b
 2057 01b7 05       		.uleb128 0x5
 2058 01b8 49       		.uleb128 0x49
 2059 01b9 13       		.uleb128 0x13
 2060 01ba 02       		.uleb128 0x2
 2061 01bb 06       		.uleb128 0x6
 2062 01bc 00       		.byte	0
 2063 01bd 00       		.byte	0
 2064 01be 20       		.uleb128 0x20
 2065 01bf 2E       		.uleb128 0x2e
 2066 01c0 01       		.byte	0x1
 2067 01c1 3F       		.uleb128 0x3f
 2068 01c2 0C       		.uleb128 0xc
 2069 01c3 03       		.uleb128 0x3
 2070 01c4 0E       		.uleb128 0xe
 2071 01c5 3A       		.uleb128 0x3a
 2072 01c6 0B       		.uleb128 0xb
 2073 01c7 3B       		.uleb128 0x3b
 2074 01c8 05       		.uleb128 0x5
ARM GAS  /tmp/cccCAPpj.s 			page 48


 2075 01c9 27       		.uleb128 0x27
 2076 01ca 0C       		.uleb128 0xc
 2077 01cb 11       		.uleb128 0x11
 2078 01cc 01       		.uleb128 0x1
 2079 01cd 12       		.uleb128 0x12
 2080 01ce 01       		.uleb128 0x1
 2081 01cf 40       		.uleb128 0x40
 2082 01d0 0A       		.uleb128 0xa
 2083 01d1 9742     		.uleb128 0x2117
 2084 01d3 0C       		.uleb128 0xc
 2085 01d4 01       		.uleb128 0x1
 2086 01d5 13       		.uleb128 0x13
 2087 01d6 00       		.byte	0
 2088 01d7 00       		.byte	0
 2089 01d8 21       		.uleb128 0x21
 2090 01d9 2E       		.uleb128 0x2e
 2091 01da 01       		.byte	0x1
 2092 01db 3F       		.uleb128 0x3f
 2093 01dc 0C       		.uleb128 0xc
 2094 01dd 03       		.uleb128 0x3
 2095 01de 0E       		.uleb128 0xe
 2096 01df 3A       		.uleb128 0x3a
 2097 01e0 0B       		.uleb128 0xb
 2098 01e1 3B       		.uleb128 0x3b
 2099 01e2 05       		.uleb128 0x5
 2100 01e3 27       		.uleb128 0x27
 2101 01e4 0C       		.uleb128 0xc
 2102 01e5 11       		.uleb128 0x11
 2103 01e6 01       		.uleb128 0x1
 2104 01e7 12       		.uleb128 0x12
 2105 01e8 01       		.uleb128 0x1
 2106 01e9 40       		.uleb128 0x40
 2107 01ea 06       		.uleb128 0x6
 2108 01eb 9742     		.uleb128 0x2117
 2109 01ed 0C       		.uleb128 0xc
 2110 01ee 01       		.uleb128 0x1
 2111 01ef 13       		.uleb128 0x13
 2112 01f0 00       		.byte	0
 2113 01f1 00       		.byte	0
 2114 01f2 22       		.uleb128 0x22
 2115 01f3 34       		.uleb128 0x34
 2116 01f4 00       		.byte	0
 2117 01f5 03       		.uleb128 0x3
 2118 01f6 0E       		.uleb128 0xe
 2119 01f7 3A       		.uleb128 0x3a
 2120 01f8 0B       		.uleb128 0xb
 2121 01f9 3B       		.uleb128 0x3b
 2122 01fa 05       		.uleb128 0x5
 2123 01fb 49       		.uleb128 0x49
 2124 01fc 13       		.uleb128 0x13
 2125 01fd 3F       		.uleb128 0x3f
 2126 01fe 0C       		.uleb128 0xc
 2127 01ff 3C       		.uleb128 0x3c
 2128 0200 0C       		.uleb128 0xc
 2129 0201 00       		.byte	0
 2130 0202 00       		.byte	0
 2131 0203 23       		.uleb128 0x23
ARM GAS  /tmp/cccCAPpj.s 			page 49


 2132 0204 2E       		.uleb128 0x2e
 2133 0205 01       		.byte	0x1
 2134 0206 3F       		.uleb128 0x3f
 2135 0207 0C       		.uleb128 0xc
 2136 0208 03       		.uleb128 0x3
 2137 0209 0E       		.uleb128 0xe
 2138 020a 3A       		.uleb128 0x3a
 2139 020b 0B       		.uleb128 0xb
 2140 020c 3B       		.uleb128 0x3b
 2141 020d 05       		.uleb128 0x5
 2142 020e 27       		.uleb128 0x27
 2143 020f 0C       		.uleb128 0xc
 2144 0210 3C       		.uleb128 0x3c
 2145 0211 0C       		.uleb128 0xc
 2146 0212 00       		.byte	0
 2147 0213 00       		.byte	0
 2148 0214 24       		.uleb128 0x24
 2149 0215 05       		.uleb128 0x5
 2150 0216 00       		.byte	0
 2151 0217 49       		.uleb128 0x49
 2152 0218 13       		.uleb128 0x13
 2153 0219 00       		.byte	0
 2154 021a 00       		.byte	0
 2155 021b 00       		.byte	0
 2156              		.section	.debug_loc,"",%progbits
 2157              	.Ldebug_loc0:
 2158              	.LLST0:
 2159 0000 00000000 		.4byte	.LFB110-.Ltext0
 2160 0004 02000000 		.4byte	.LCFI0-.Ltext0
 2161 0008 0200     		.2byte	0x2
 2162 000a 7D       		.byte	0x7d
 2163 000b 00       		.sleb128 0
 2164 000c 02000000 		.4byte	.LCFI0-.Ltext0
 2165 0010 D8000000 		.4byte	.LFE110-.Ltext0
 2166 0014 0200     		.2byte	0x2
 2167 0016 7D       		.byte	0x7d
 2168 0017 08       		.sleb128 8
 2169 0018 00000000 		.4byte	0
 2170 001c 00000000 		.4byte	0
 2171              	.LLST1:
 2172 0020 00000000 		.4byte	.LVL0-.Ltext0
 2173 0024 0A000000 		.4byte	.LVL1-.Ltext0
 2174 0028 0100     		.2byte	0x1
 2175 002a 50       		.byte	0x50
 2176 002b 0A000000 		.4byte	.LVL1-.Ltext0
 2177 002f 14000000 		.4byte	.LVL3-.Ltext0
 2178 0033 0400     		.2byte	0x4
 2179 0035 F3       		.byte	0xf3
 2180 0036 01       		.uleb128 0x1
 2181 0037 50       		.byte	0x50
 2182 0038 9F       		.byte	0x9f
 2183 0039 14000000 		.4byte	.LVL3-.Ltext0
 2184 003d 1C000000 		.4byte	.LVL4-.Ltext0
 2185 0041 0100     		.2byte	0x1
 2186 0043 50       		.byte	0x50
 2187 0044 1C000000 		.4byte	.LVL4-.Ltext0
 2188 0048 26000000 		.4byte	.LVL6-.Ltext0
ARM GAS  /tmp/cccCAPpj.s 			page 50


 2189 004c 0400     		.2byte	0x4
 2190 004e F3       		.byte	0xf3
 2191 004f 01       		.uleb128 0x1
 2192 0050 50       		.byte	0x50
 2193 0051 9F       		.byte	0x9f
 2194 0052 26000000 		.4byte	.LVL6-.Ltext0
 2195 0056 2E000000 		.4byte	.LVL7-.Ltext0
 2196 005a 0100     		.2byte	0x1
 2197 005c 50       		.byte	0x50
 2198 005d 2E000000 		.4byte	.LVL7-.Ltext0
 2199 0061 38000000 		.4byte	.LVL9-.Ltext0
 2200 0065 0400     		.2byte	0x4
 2201 0067 F3       		.byte	0xf3
 2202 0068 01       		.uleb128 0x1
 2203 0069 50       		.byte	0x50
 2204 006a 9F       		.byte	0x9f
 2205 006b 38000000 		.4byte	.LVL9-.Ltext0
 2206 006f 40000000 		.4byte	.LVL10-.Ltext0
 2207 0073 0100     		.2byte	0x1
 2208 0075 50       		.byte	0x50
 2209 0076 40000000 		.4byte	.LVL10-.Ltext0
 2210 007a 4A000000 		.4byte	.LVL12-.Ltext0
 2211 007e 0400     		.2byte	0x4
 2212 0080 F3       		.byte	0xf3
 2213 0081 01       		.uleb128 0x1
 2214 0082 50       		.byte	0x50
 2215 0083 9F       		.byte	0x9f
 2216 0084 4A000000 		.4byte	.LVL12-.Ltext0
 2217 0088 52000000 		.4byte	.LVL13-.Ltext0
 2218 008c 0100     		.2byte	0x1
 2219 008e 50       		.byte	0x50
 2220 008f 52000000 		.4byte	.LVL13-.Ltext0
 2221 0093 5C000000 		.4byte	.LVL15-.Ltext0
 2222 0097 0400     		.2byte	0x4
 2223 0099 F3       		.byte	0xf3
 2224 009a 01       		.uleb128 0x1
 2225 009b 50       		.byte	0x50
 2226 009c 9F       		.byte	0x9f
 2227 009d 5C000000 		.4byte	.LVL15-.Ltext0
 2228 00a1 64000000 		.4byte	.LVL16-.Ltext0
 2229 00a5 0100     		.2byte	0x1
 2230 00a7 50       		.byte	0x50
 2231 00a8 64000000 		.4byte	.LVL16-.Ltext0
 2232 00ac 6E000000 		.4byte	.LVL18-.Ltext0
 2233 00b0 0400     		.2byte	0x4
 2234 00b2 F3       		.byte	0xf3
 2235 00b3 01       		.uleb128 0x1
 2236 00b4 50       		.byte	0x50
 2237 00b5 9F       		.byte	0x9f
 2238 00b6 6E000000 		.4byte	.LVL18-.Ltext0
 2239 00ba 76000000 		.4byte	.LVL19-.Ltext0
 2240 00be 0100     		.2byte	0x1
 2241 00c0 50       		.byte	0x50
 2242 00c1 76000000 		.4byte	.LVL19-.Ltext0
 2243 00c5 80000000 		.4byte	.LVL21-.Ltext0
 2244 00c9 0400     		.2byte	0x4
 2245 00cb F3       		.byte	0xf3
ARM GAS  /tmp/cccCAPpj.s 			page 51


 2246 00cc 01       		.uleb128 0x1
 2247 00cd 50       		.byte	0x50
 2248 00ce 9F       		.byte	0x9f
 2249 00cf 80000000 		.4byte	.LVL21-.Ltext0
 2250 00d3 88000000 		.4byte	.LVL22-.Ltext0
 2251 00d7 0100     		.2byte	0x1
 2252 00d9 50       		.byte	0x50
 2253 00da 88000000 		.4byte	.LVL22-.Ltext0
 2254 00de 92000000 		.4byte	.LVL24-.Ltext0
 2255 00e2 0400     		.2byte	0x4
 2256 00e4 F3       		.byte	0xf3
 2257 00e5 01       		.uleb128 0x1
 2258 00e6 50       		.byte	0x50
 2259 00e7 9F       		.byte	0x9f
 2260 00e8 92000000 		.4byte	.LVL24-.Ltext0
 2261 00ec 9C000000 		.4byte	.LVL25-.Ltext0
 2262 00f0 0100     		.2byte	0x1
 2263 00f2 50       		.byte	0x50
 2264 00f3 9C000000 		.4byte	.LVL25-.Ltext0
 2265 00f7 B0000000 		.4byte	.LVL27-.Ltext0
 2266 00fb 0400     		.2byte	0x4
 2267 00fd F3       		.byte	0xf3
 2268 00fe 01       		.uleb128 0x1
 2269 00ff 50       		.byte	0x50
 2270 0100 9F       		.byte	0x9f
 2271 0101 B0000000 		.4byte	.LVL27-.Ltext0
 2272 0105 D8000000 		.4byte	.LFE110-.Ltext0
 2273 0109 0100     		.2byte	0x1
 2274 010b 50       		.byte	0x50
 2275 010c 00000000 		.4byte	0
 2276 0110 00000000 		.4byte	0
 2277              	.LLST2:
 2278 0114 D8000000 		.4byte	.LFB111-.Ltext0
 2279 0118 DC000000 		.4byte	.LCFI1-.Ltext0
 2280 011c 0200     		.2byte	0x2
 2281 011e 7D       		.byte	0x7d
 2282 011f 00       		.sleb128 0
 2283 0120 DC000000 		.4byte	.LCFI1-.Ltext0
 2284 0124 5E010000 		.4byte	.LFE111-.Ltext0
 2285 0128 0200     		.2byte	0x2
 2286 012a 7D       		.byte	0x7d
 2287 012b 18       		.sleb128 24
 2288 012c 00000000 		.4byte	0
 2289 0130 00000000 		.4byte	0
 2290              	.LLST3:
 2291 0134 D8000000 		.4byte	.LVL28-.Ltext0
 2292 0138 E0000000 		.4byte	.LVL29-.Ltext0
 2293 013c 0200     		.2byte	0x2
 2294 013e 30       		.byte	0x30
 2295 013f 9F       		.byte	0x9f
 2296 0140 56010000 		.4byte	.LVL34-.Ltext0
 2297 0144 5E010000 		.4byte	.LFE111-.Ltext0
 2298 0148 0100     		.2byte	0x1
 2299 014a 53       		.byte	0x53
 2300 014b 00000000 		.4byte	0
 2301 014f 00000000 		.4byte	0
 2302              	.LLST4:
ARM GAS  /tmp/cccCAPpj.s 			page 52


 2303 0153 D8000000 		.4byte	.LVL28-.Ltext0
 2304 0157 E0000000 		.4byte	.LVL29-.Ltext0
 2305 015b 0200     		.2byte	0x2
 2306 015d 30       		.byte	0x30
 2307 015e 9F       		.byte	0x9f
 2308 015f E6000000 		.4byte	.LVL30-.Ltext0
 2309 0163 F0000000 		.4byte	.LVL32-.Ltext0
 2310 0167 0100     		.2byte	0x1
 2311 0169 52       		.byte	0x52
 2312 016a F0000000 		.4byte	.LVL32-.Ltext0
 2313 016e 56010000 		.4byte	.LVL34-.Ltext0
 2314 0172 0500     		.2byte	0x5
 2315 0174 31       		.byte	0x31
 2316 0175 73       		.byte	0x73
 2317 0176 00       		.sleb128 0
 2318 0177 24       		.byte	0x24
 2319 0178 9F       		.byte	0x9f
 2320 0179 56010000 		.4byte	.LVL34-.Ltext0
 2321 017d 5E010000 		.4byte	.LFE111-.Ltext0
 2322 0181 0500     		.2byte	0x5
 2323 0183 31       		.byte	0x31
 2324 0184 73       		.byte	0x73
 2325 0185 7F       		.sleb128 -1
 2326 0186 24       		.byte	0x24
 2327 0187 9F       		.byte	0x9f
 2328 0188 00000000 		.4byte	0
 2329 018c 00000000 		.4byte	0
 2330              	.LLST5:
 2331 0190 D8000000 		.4byte	.LVL28-.Ltext0
 2332 0194 E0000000 		.4byte	.LVL29-.Ltext0
 2333 0198 0200     		.2byte	0x2
 2334 019a 30       		.byte	0x30
 2335 019b 9F       		.byte	0x9f
 2336 019c EA000000 		.4byte	.LVL31-.Ltext0
 2337 01a0 32010000 		.4byte	.LVL33-.Ltext0
 2338 01a4 0100     		.2byte	0x1
 2339 01a6 55       		.byte	0x55
 2340 01a7 32010000 		.4byte	.LVL33-.Ltext0
 2341 01ab 56010000 		.4byte	.LVL34-.Ltext0
 2342 01af 0800     		.2byte	0x8
 2343 01b1 31       		.byte	0x31
 2344 01b2 73       		.byte	0x73
 2345 01b3 00       		.sleb128 0
 2346 01b4 24       		.byte	0x24
 2347 01b5 77       		.byte	0x77
 2348 01b6 00       		.sleb128 0
 2349 01b7 1A       		.byte	0x1a
 2350 01b8 9F       		.byte	0x9f
 2351 01b9 56010000 		.4byte	.LVL34-.Ltext0
 2352 01bd 5E010000 		.4byte	.LFE111-.Ltext0
 2353 01c1 0800     		.2byte	0x8
 2354 01c3 31       		.byte	0x31
 2355 01c4 73       		.byte	0x73
 2356 01c5 7F       		.sleb128 -1
 2357 01c6 24       		.byte	0x24
 2358 01c7 77       		.byte	0x77
 2359 01c8 00       		.sleb128 0
ARM GAS  /tmp/cccCAPpj.s 			page 53


 2360 01c9 1A       		.byte	0x1a
 2361 01ca 9F       		.byte	0x9f
 2362 01cb 00000000 		.4byte	0
 2363 01cf 00000000 		.4byte	0
 2364              	.LLST6:
 2365 01d3 70010000 		.4byte	.LFB113-.Ltext0
 2366 01d7 72010000 		.4byte	.LCFI2-.Ltext0
 2367 01db 0200     		.2byte	0x2
 2368 01dd 7D       		.byte	0x7d
 2369 01de 00       		.sleb128 0
 2370 01df 72010000 		.4byte	.LCFI2-.Ltext0
 2371 01e3 96010000 		.4byte	.LFE113-.Ltext0
 2372 01e7 0200     		.2byte	0x2
 2373 01e9 7D       		.byte	0x7d
 2374 01ea 08       		.sleb128 8
 2375 01eb 00000000 		.4byte	0
 2376 01ef 00000000 		.4byte	0
 2377              	.LLST7:
 2378 01f3 70010000 		.4byte	.LVL36-.Ltext0
 2379 01f7 90010000 		.4byte	.LVL41-.Ltext0
 2380 01fb 0100     		.2byte	0x1
 2381 01fd 50       		.byte	0x50
 2382 01fe 90010000 		.4byte	.LVL41-.Ltext0
 2383 0202 96010000 		.4byte	.LFE113-.Ltext0
 2384 0206 0400     		.2byte	0x4
 2385 0208 F3       		.byte	0xf3
 2386 0209 01       		.uleb128 0x1
 2387 020a 50       		.byte	0x50
 2388 020b 9F       		.byte	0x9f
 2389 020c 00000000 		.4byte	0
 2390 0210 00000000 		.4byte	0
 2391              	.LLST8:
 2392 0214 70010000 		.4byte	.LVL36-.Ltext0
 2393 0218 88010000 		.4byte	.LVL40-.Ltext0
 2394 021c 0100     		.2byte	0x1
 2395 021e 51       		.byte	0x51
 2396 021f 88010000 		.4byte	.LVL40-.Ltext0
 2397 0223 96010000 		.4byte	.LFE113-.Ltext0
 2398 0227 0400     		.2byte	0x4
 2399 0229 F3       		.byte	0xf3
 2400 022a 01       		.uleb128 0x1
 2401 022b 51       		.byte	0x51
 2402 022c 9F       		.byte	0x9f
 2403 022d 00000000 		.4byte	0
 2404 0231 00000000 		.4byte	0
 2405              	.LLST9:
 2406 0235 78010000 		.4byte	.LVL37-.Ltext0
 2407 0239 7E010000 		.4byte	.LVL38-.Ltext0
 2408 023d 0200     		.2byte	0x2
 2409 023f 91       		.byte	0x91
 2410 0240 7C       		.sleb128 -4
 2411 0241 80010000 		.4byte	.LVL39-.Ltext0
 2412 0245 90010000 		.4byte	.LVL41-.Ltext0
 2413 0249 0100     		.2byte	0x1
 2414 024b 53       		.byte	0x53
 2415 024c 90010000 		.4byte	.LVL41-.Ltext0
 2416 0250 96010000 		.4byte	.LFE113-.Ltext0
ARM GAS  /tmp/cccCAPpj.s 			page 54


 2417 0254 0100     		.2byte	0x1
 2418 0256 50       		.byte	0x50
 2419 0257 00000000 		.4byte	0
 2420 025b 00000000 		.4byte	0
 2421              	.LLST10:
 2422 025f 96010000 		.4byte	.LVL42-.Ltext0
 2423 0263 A0010000 		.4byte	.LVL44-.Ltext0
 2424 0267 0100     		.2byte	0x1
 2425 0269 50       		.byte	0x50
 2426 026a A0010000 		.4byte	.LVL44-.Ltext0
 2427 026e A2010000 		.4byte	.LFE114-.Ltext0
 2428 0272 0400     		.2byte	0x4
 2429 0274 F3       		.byte	0xf3
 2430 0275 01       		.uleb128 0x1
 2431 0276 50       		.byte	0x50
 2432 0277 9F       		.byte	0x9f
 2433 0278 00000000 		.4byte	0
 2434 027c 00000000 		.4byte	0
 2435              	.LLST11:
 2436 0280 96010000 		.4byte	.LVL42-.Ltext0
 2437 0284 98010000 		.4byte	.LVL43-.Ltext0
 2438 0288 0200     		.2byte	0x2
 2439 028a 30       		.byte	0x30
 2440 028b 9F       		.byte	0x9f
 2441 028c 98010000 		.4byte	.LVL43-.Ltext0
 2442 0290 A2010000 		.4byte	.LFE114-.Ltext0
 2443 0294 0C00     		.2byte	0xc
 2444 0296 71       		.byte	0x71
 2445 0297 00       		.sleb128 0
 2446 0298 0A       		.byte	0xa
 2447 0299 FFFF     		.2byte	0xffff
 2448 029b 1A       		.byte	0x1a
 2449 029c 73       		.byte	0x73
 2450 029d 00       		.sleb128 0
 2451 029e 1A       		.byte	0x1a
 2452 029f 30       		.byte	0x30
 2453 02a0 2E       		.byte	0x2e
 2454 02a1 9F       		.byte	0x9f
 2455 02a2 00000000 		.4byte	0
 2456 02a6 00000000 		.4byte	0
 2457              	.LLST12:
 2458 02aa A2010000 		.4byte	.LVL45-.Ltext0
 2459 02ae A4010000 		.4byte	.LVL46-.Ltext0
 2460 02b2 0100     		.2byte	0x1
 2461 02b4 50       		.byte	0x50
 2462 02b5 A4010000 		.4byte	.LVL46-.Ltext0
 2463 02b9 A8010000 		.4byte	.LFE115-.Ltext0
 2464 02bd 0400     		.2byte	0x4
 2465 02bf F3       		.byte	0xf3
 2466 02c0 01       		.uleb128 0x1
 2467 02c1 50       		.byte	0x50
 2468 02c2 9F       		.byte	0x9f
 2469 02c3 00000000 		.4byte	0
 2470 02c7 00000000 		.4byte	0
 2471              	.LLST13:
 2472 02cb A8010000 		.4byte	.LVL47-.Ltext0
 2473 02cf B2010000 		.4byte	.LVL49-.Ltext0
ARM GAS  /tmp/cccCAPpj.s 			page 55


 2474 02d3 0100     		.2byte	0x1
 2475 02d5 50       		.byte	0x50
 2476 02d6 B2010000 		.4byte	.LVL49-.Ltext0
 2477 02da B4010000 		.4byte	.LFE116-.Ltext0
 2478 02de 0400     		.2byte	0x4
 2479 02e0 F3       		.byte	0xf3
 2480 02e1 01       		.uleb128 0x1
 2481 02e2 50       		.byte	0x50
 2482 02e3 9F       		.byte	0x9f
 2483 02e4 00000000 		.4byte	0
 2484 02e8 00000000 		.4byte	0
 2485              	.LLST14:
 2486 02ec A8010000 		.4byte	.LVL47-.Ltext0
 2487 02f0 AA010000 		.4byte	.LVL48-.Ltext0
 2488 02f4 0200     		.2byte	0x2
 2489 02f6 30       		.byte	0x30
 2490 02f7 9F       		.byte	0x9f
 2491 02f8 AA010000 		.4byte	.LVL48-.Ltext0
 2492 02fc B4010000 		.4byte	.LFE116-.Ltext0
 2493 0300 0C00     		.2byte	0xc
 2494 0302 71       		.byte	0x71
 2495 0303 00       		.sleb128 0
 2496 0304 0A       		.byte	0xa
 2497 0305 FFFF     		.2byte	0xffff
 2498 0307 1A       		.byte	0x1a
 2499 0308 73       		.byte	0x73
 2500 0309 00       		.sleb128 0
 2501 030a 1A       		.byte	0x1a
 2502 030b 30       		.byte	0x30
 2503 030c 2E       		.byte	0x2e
 2504 030d 9F       		.byte	0x9f
 2505 030e 00000000 		.4byte	0
 2506 0312 00000000 		.4byte	0
 2507              	.LLST15:
 2508 0316 B4010000 		.4byte	.LVL50-.Ltext0
 2509 031a B6010000 		.4byte	.LVL51-.Ltext0
 2510 031e 0100     		.2byte	0x1
 2511 0320 50       		.byte	0x50
 2512 0321 B6010000 		.4byte	.LVL51-.Ltext0
 2513 0325 BA010000 		.4byte	.LFE117-.Ltext0
 2514 0329 0400     		.2byte	0x4
 2515 032b F3       		.byte	0xf3
 2516 032c 01       		.uleb128 0x1
 2517 032d 50       		.byte	0x50
 2518 032e 9F       		.byte	0x9f
 2519 032f 00000000 		.4byte	0
 2520 0333 00000000 		.4byte	0
 2521              	.LLST16:
 2522 0337 D0010000 		.4byte	.LVL56-.Ltext0
 2523 033b D4010000 		.4byte	.LVL57-.Ltext0
 2524 033f 0100     		.2byte	0x1
 2525 0341 51       		.byte	0x51
 2526 0342 D4010000 		.4byte	.LVL57-.Ltext0
 2527 0346 D8010000 		.4byte	.LFE122-.Ltext0
 2528 034a 0400     		.2byte	0x4
 2529 034c F3       		.byte	0xf3
 2530 034d 01       		.uleb128 0x1
ARM GAS  /tmp/cccCAPpj.s 			page 56


 2531 034e 51       		.byte	0x51
 2532 034f 9F       		.byte	0x9f
 2533 0350 00000000 		.4byte	0
 2534 0354 00000000 		.4byte	0
 2535              	.LLST17:
 2536 0358 D8010000 		.4byte	.LFB123-.Ltext0
 2537 035c E2010000 		.4byte	.LCFI3-.Ltext0
 2538 0360 0200     		.2byte	0x2
 2539 0362 7D       		.byte	0x7d
 2540 0363 00       		.sleb128 0
 2541 0364 E2010000 		.4byte	.LCFI3-.Ltext0
 2542 0368 06020000 		.4byte	.LFE123-.Ltext0
 2543 036c 0200     		.2byte	0x2
 2544 036e 7D       		.byte	0x7d
 2545 036f 0C       		.sleb128 12
 2546 0370 00000000 		.4byte	0
 2547 0374 00000000 		.4byte	0
 2548              	.LLST18:
 2549 0378 D8010000 		.4byte	.LVL58-.Ltext0
 2550 037c DE010000 		.4byte	.LVL59-.Ltext0
 2551 0380 0100     		.2byte	0x1
 2552 0382 51       		.byte	0x51
 2553 0383 DE010000 		.4byte	.LVL59-.Ltext0
 2554 0387 06020000 		.4byte	.LFE123-.Ltext0
 2555 038b 0400     		.2byte	0x4
 2556 038d F3       		.byte	0xf3
 2557 038e 01       		.uleb128 0x1
 2558 038f 51       		.byte	0x51
 2559 0390 9F       		.byte	0x9f
 2560 0391 00000000 		.4byte	0
 2561 0395 00000000 		.4byte	0
 2562              	.LLST19:
 2563 0399 D8010000 		.4byte	.LVL58-.Ltext0
 2564 039d FE010000 		.4byte	.LVL61-.Ltext0
 2565 03a1 0100     		.2byte	0x1
 2566 03a3 52       		.byte	0x52
 2567 03a4 FE010000 		.4byte	.LVL61-.Ltext0
 2568 03a8 06020000 		.4byte	.LFE123-.Ltext0
 2569 03ac 0400     		.2byte	0x4
 2570 03ae F3       		.byte	0xf3
 2571 03af 01       		.uleb128 0x1
 2572 03b0 52       		.byte	0x52
 2573 03b1 9F       		.byte	0x9f
 2574 03b2 00000000 		.4byte	0
 2575 03b6 00000000 		.4byte	0
 2576              	.LLST20:
 2577 03ba D8010000 		.4byte	.LVL58-.Ltext0
 2578 03be E4010000 		.4byte	.LVL60-.Ltext0
 2579 03c2 0200     		.2byte	0x2
 2580 03c4 30       		.byte	0x30
 2581 03c5 9F       		.byte	0x9f
 2582 03c6 E4010000 		.4byte	.LVL60-.Ltext0
 2583 03ca FE010000 		.4byte	.LVL61-.Ltext0
 2584 03ce 0900     		.2byte	0x9
 2585 03d0 72       		.byte	0x72
 2586 03d1 00       		.sleb128 0
 2587 03d2 08       		.byte	0x8
ARM GAS  /tmp/cccCAPpj.s 			page 57


 2588 03d3 FF       		.byte	0xff
 2589 03d4 1A       		.byte	0x1a
 2590 03d5 73       		.byte	0x73
 2591 03d6 00       		.sleb128 0
 2592 03d7 24       		.byte	0x24
 2593 03d8 9F       		.byte	0x9f
 2594 03d9 FE010000 		.4byte	.LVL61-.Ltext0
 2595 03dd 06020000 		.4byte	.LFE123-.Ltext0
 2596 03e1 0A00     		.2byte	0xa
 2597 03e3 F3       		.byte	0xf3
 2598 03e4 01       		.uleb128 0x1
 2599 03e5 52       		.byte	0x52
 2600 03e6 08       		.byte	0x8
 2601 03e7 FF       		.byte	0xff
 2602 03e8 1A       		.byte	0x1a
 2603 03e9 73       		.byte	0x73
 2604 03ea 00       		.sleb128 0
 2605 03eb 24       		.byte	0x24
 2606 03ec 9F       		.byte	0x9f
 2607 03ed 00000000 		.4byte	0
 2608 03f1 00000000 		.4byte	0
 2609              	.LLST21:
 2610 03f5 D8010000 		.4byte	.LVL58-.Ltext0
 2611 03f9 00020000 		.4byte	.LVL62-.Ltext0
 2612 03fd 0200     		.2byte	0x2
 2613 03ff 30       		.byte	0x30
 2614 0400 9F       		.byte	0x9f
 2615 0401 00020000 		.4byte	.LVL62-.Ltext0
 2616 0405 06020000 		.4byte	.LFE123-.Ltext0
 2617 0409 0100     		.2byte	0x1
 2618 040b 54       		.byte	0x54
 2619 040c 00000000 		.4byte	0
 2620 0410 00000000 		.4byte	0
 2621              		.section	.debug_aranges,"",%progbits
 2622 0000 1C000000 		.4byte	0x1c
 2623 0004 0200     		.2byte	0x2
 2624 0006 00000000 		.4byte	.Ldebug_info0
 2625 000a 04       		.byte	0x4
 2626 000b 00       		.byte	0
 2627 000c 0000     		.2byte	0
 2628 000e 0000     		.2byte	0
 2629 0010 00000000 		.4byte	.Ltext0
 2630 0014 06020000 		.4byte	.Letext0-.Ltext0
 2631 0018 00000000 		.4byte	0
 2632 001c 00000000 		.4byte	0
 2633              		.section	.debug_line,"",%progbits
 2634              	.Ldebug_line0:
 2635 0000 C0020000 		.section	.debug_str,"MS",%progbits,1
 2635      02001102 
 2635      00000201 
 2635      FB0E0D00 
 2635      01010101 
 2636              	.LASF24:
 2637 0000 4750494F 		.ascii	"GPIO_TypeDef\000"
 2637      5F547970 
 2637      65446566 
 2637      00
ARM GAS  /tmp/cccCAPpj.s 			page 58


 2638              	.LASF55:
 2639 000d 70696E70 		.ascii	"pinpos\000"
 2639      6F7300
 2640              	.LASF45:
 2641 0014 4750494F 		.ascii	"GPIO_Pin\000"
 2641      5F50696E 
 2641      00
 2642              	.LASF43:
 2643 001d 4269745F 		.ascii	"Bit_SET\000"
 2643      53455400 
 2644              	.LASF63:
 2645 0025 4750494F 		.ascii	"GPIO_ReadOutputData\000"
 2645      5F526561 
 2645      644F7574 
 2645      70757444 
 2645      61746100 
 2646              	.LASF29:
 2647 0039 4750494F 		.ascii	"GPIOMode_TypeDef\000"
 2647      4D6F6465 
 2647      5F547970 
 2647      65446566 
 2647      00
 2648              	.LASF34:
 2649 004a 4750494F 		.ascii	"GPIO_Speed_25MHz\000"
 2649      5F537065 
 2649      65645F32 
 2649      354D487A 
 2649      00
 2650              	.LASF74:
 2651 005b 74656D70 		.ascii	"temp\000"
 2651      00
 2652              	.LASF2:
 2653 0060 73686F72 		.ascii	"short int\000"
 2653      7420696E 
 2653      7400
 2654              	.LASF57:
 2655 006a 4750494F 		.ascii	"GPIO_StructInit\000"
 2655      5F537472 
 2655      75637449 
 2655      6E697400 
 2656              	.LASF13:
 2657 007a 73697A65 		.ascii	"sizetype\000"
 2657      74797065 
 2657      00
 2658              	.LASF67:
 2659 0083 42697456 		.ascii	"BitVal\000"
 2659      616C00
 2660              	.LASF31:
 2661 008a 4750494F 		.ascii	"GPIO_OType_OD\000"
 2661      5F4F5479 
 2661      70655F4F 
 2661      4400
 2662              	.LASF42:
 2663 0098 4269745F 		.ascii	"Bit_RESET\000"
 2663      52455345 
 2663      5400
 2664              	.LASF66:
ARM GAS  /tmp/cccCAPpj.s 			page 59


 2665 00a2 4750494F 		.ascii	"GPIO_WriteBit\000"
 2665      5F577269 
 2665      74654269 
 2665      7400
 2666              	.LASF32:
 2667 00b0 4750494F 		.ascii	"GPIOOType_TypeDef\000"
 2667      4F547970 
 2667      655F5479 
 2667      70654465 
 2667      6600
 2668              	.LASF48:
 2669 00c2 4750494F 		.ascii	"GPIO_OType\000"
 2669      5F4F5479 
 2669      706500
 2670              	.LASF27:
 2671 00cd 4750494F 		.ascii	"GPIO_Mode_AF\000"
 2671      5F4D6F64 
 2671      655F4146 
 2671      00
 2672              	.LASF64:
 2673 00da 4750494F 		.ascii	"GPIO_SetBits\000"
 2673      5F536574 
 2673      42697473 
 2673      00
 2674              	.LASF15:
 2675 00e7 454E4142 		.ascii	"ENABLE\000"
 2675      4C4500
 2676              	.LASF47:
 2677 00ee 4750494F 		.ascii	"GPIO_Speed\000"
 2677      5F537065 
 2677      656400
 2678              	.LASF52:
 2679 00f9 4750494F 		.ascii	"GPIO_Init\000"
 2679      5F496E69 
 2679      7400
 2680              	.LASF28:
 2681 0103 4750494F 		.ascii	"GPIO_Mode_AN\000"
 2681      5F4D6F64 
 2681      655F414E 
 2681      00
 2682              	.LASF65:
 2683 0110 4750494F 		.ascii	"GPIO_ResetBits\000"
 2683      5F526573 
 2683      65744269 
 2683      747300
 2684              	.LASF23:
 2685 011f 4C434B52 		.ascii	"LCKR\000"
 2685      00
 2686              	.LASF36:
 2687 0124 4750494F 		.ascii	"GPIO_Speed_100MHz\000"
 2687      5F537065 
 2687      65645F31 
 2687      30304D48 
 2687      7A00
 2688              	.LASF75:
 2689 0136 74656D70 		.ascii	"temp_2\000"
 2689      5F3200
ARM GAS  /tmp/cccCAPpj.s 			page 60


 2690              	.LASF18:
 2691 013d 4F545950 		.ascii	"OTYPER\000"
 2691      455200
 2692              	.LASF0:
 2693 0144 7369676E 		.ascii	"signed char\000"
 2693      65642063 
 2693      68617200 
 2694              	.LASF40:
 2695 0150 4750494F 		.ascii	"GPIO_PuPd_DOWN\000"
 2695      5F507550 
 2695      645F444F 
 2695      574E00
 2696              	.LASF10:
 2697 015f 6C6F6E67 		.ascii	"long long int\000"
 2697      206C6F6E 
 2697      6720696E 
 2697      7400
 2698              	.LASF26:
 2699 016d 4750494F 		.ascii	"GPIO_Mode_OUT\000"
 2699      5F4D6F64 
 2699      655F4F55 
 2699      5400
 2700              	.LASF20:
 2701 017b 50555044 		.ascii	"PUPDR\000"
 2701      5200
 2702              	.LASF7:
 2703 0181 6C6F6E67 		.ascii	"long int\000"
 2703      20696E74 
 2703      00
 2704              	.LASF25:
 2705 018a 4750494F 		.ascii	"GPIO_Mode_IN\000"
 2705      5F4D6F64 
 2705      655F494E 
 2705      00
 2706              	.LASF51:
 2707 0197 4750494F 		.ascii	"GPIO_DeInit\000"
 2707      5F446549 
 2707      6E697400 
 2708              	.LASF22:
 2709 01a3 42535252 		.ascii	"BSRRH\000"
 2709      4800
 2710              	.LASF17:
 2711 01a9 4D4F4445 		.ascii	"MODER\000"
 2711      5200
 2712              	.LASF21:
 2713 01af 42535252 		.ascii	"BSRRL\000"
 2713      4C00
 2714              	.LASF60:
 2715 01b5 4750494F 		.ascii	"GPIO_ReadInputDataBit\000"
 2715      5F526561 
 2715      64496E70 
 2715      75744461 
 2715      74614269 
 2716              	.LASF30:
 2717 01cb 4750494F 		.ascii	"GPIO_OType_PP\000"
 2717      5F4F5479 
 2717      70655F50 
ARM GAS  /tmp/cccCAPpj.s 			page 61


 2717      5000
 2718              	.LASF59:
 2719 01d9 62697473 		.ascii	"bitstatus\000"
 2719      74617475 
 2719      7300
 2720              	.LASF1:
 2721 01e3 756E7369 		.ascii	"unsigned char\000"
 2721      676E6564 
 2721      20636861 
 2721      7200
 2722              	.LASF73:
 2723 01f1 4750494F 		.ascii	"GPIO_AF\000"
 2723      5F414600 
 2724              	.LASF80:
 2725 01f9 5243435F 		.ascii	"RCC_AHB1PeriphResetCmd\000"
 2725      41484231 
 2725      50657269 
 2725      70685265 
 2725      73657443 
 2726              	.LASF49:
 2727 0210 4750494F 		.ascii	"GPIO_PuPd\000"
 2727      5F507550 
 2727      6400
 2728              	.LASF33:
 2729 021a 4750494F 		.ascii	"GPIO_Speed_2MHz\000"
 2729      5F537065 
 2729      65645F32 
 2729      4D487A00 
 2730              	.LASF77:
 2731 022a 2E2E2F2E 		.ascii	"../../STM32F4-Discovery_FW_V1.1.0/Libraries/STM32F4"
 2731      2E2F5354 
 2731      4D333246 
 2731      342D4469 
 2731      73636F76 
 2732 025d 78785F53 		.ascii	"xx_StdPeriph_Driver/src/stm32f4xx_gpio.c\000"
 2732      74645065 
 2732      72697068 
 2732      5F447269 
 2732      7665722F 
 2733              	.LASF11:
 2734 0286 6C6F6E67 		.ascii	"long long unsigned int\000"
 2734      206C6F6E 
 2734      6720756E 
 2734      7369676E 
 2734      65642069 
 2735              	.LASF8:
 2736 029d 75696E74 		.ascii	"uint32_t\000"
 2736      33325F74 
 2736      00
 2737              	.LASF50:
 2738 02a6 4750494F 		.ascii	"GPIO_InitTypeDef\000"
 2738      5F496E69 
 2738      74547970 
 2738      65446566 
 2738      00
 2739              	.LASF12:
 2740 02b7 756E7369 		.ascii	"unsigned int\000"
ARM GAS  /tmp/cccCAPpj.s 			page 62


 2740      676E6564 
 2740      20696E74 
 2740      00
 2741              	.LASF4:
 2742 02c4 75696E74 		.ascii	"uint16_t\000"
 2742      31365F74 
 2742      00
 2743              	.LASF69:
 2744 02cd 506F7274 		.ascii	"PortVal\000"
 2744      56616C00 
 2745              	.LASF9:
 2746 02d5 6C6F6E67 		.ascii	"long unsigned int\000"
 2746      20756E73 
 2746      69676E65 
 2746      6420696E 
 2746      7400
 2747              	.LASF72:
 2748 02e7 4750494F 		.ascii	"GPIO_PinSource\000"
 2748      5F50696E 
 2748      536F7572 
 2748      636500
 2749              	.LASF61:
 2750 02f6 4750494F 		.ascii	"GPIO_ReadInputData\000"
 2750      5F526561 
 2750      64496E70 
 2750      75744461 
 2750      746100
 2751              	.LASF38:
 2752 0309 4750494F 		.ascii	"GPIO_PuPd_NOPULL\000"
 2752      5F507550 
 2752      645F4E4F 
 2752      50554C4C 
 2752      00
 2753              	.LASF14:
 2754 031a 44495341 		.ascii	"DISABLE\000"
 2754      424C4500 
 2755              	.LASF6:
 2756 0322 696E7433 		.ascii	"int32_t\000"
 2756      325F7400 
 2757              	.LASF58:
 2758 032a 4750494F 		.ascii	"GPIO_PinLockConfig\000"
 2758      5F50696E 
 2758      4C6F636B 
 2758      436F6E66 
 2758      696700
 2759              	.LASF5:
 2760 033d 73686F72 		.ascii	"short unsigned int\000"
 2760      7420756E 
 2760      7369676E 
 2760      65642069 
 2760      6E7400
 2761              	.LASF56:
 2762 0350 63757272 		.ascii	"currentpin\000"
 2762      656E7470 
 2762      696E00
 2763              	.LASF68:
 2764 035b 4750494F 		.ascii	"GPIO_Write\000"
ARM GAS  /tmp/cccCAPpj.s 			page 63


 2764      5F577269 
 2764      746500
 2765              	.LASF19:
 2766 0366 4F535045 		.ascii	"OSPEEDR\000"
 2766      45445200 
 2767              	.LASF46:
 2768 036e 4750494F 		.ascii	"GPIO_Mode\000"
 2768      5F4D6F64 
 2768      6500
 2769              	.LASF44:
 2770 0378 42697441 		.ascii	"BitAction\000"
 2770      6374696F 
 2770      6E00
 2771              	.LASF76:
 2772 0382 474E5520 		.ascii	"GNU C 4.7.3 20121207 (release) [ARM/embedded-4_7-br"
 2772      4320342E 
 2772      372E3320 
 2772      32303132 
 2772      31323037 
 2773 03b5 616E6368 		.ascii	"anch revision 194305]\000"
 2773      20726576 
 2773      6973696F 
 2773      6E203139 
 2773      34333035 
 2774              	.LASF37:
 2775 03cb 4750494F 		.ascii	"GPIOSpeed_TypeDef\000"
 2775      53706565 
 2775      645F5479 
 2775      70654465 
 2775      6600
 2776              	.LASF16:
 2777 03dd 46756E63 		.ascii	"FunctionalState\000"
 2777      74696F6E 
 2777      616C5374 
 2777      61746500 
 2778              	.LASF53:
 2779 03ed 4750494F 		.ascii	"GPIOx\000"
 2779      7800
 2780              	.LASF70:
 2781 03f3 4750494F 		.ascii	"GPIO_ToggleBits\000"
 2781      5F546F67 
 2781      676C6542 
 2781      69747300 
 2782              	.LASF35:
 2783 0403 4750494F 		.ascii	"GPIO_Speed_50MHz\000"
 2783      5F537065 
 2783      65645F35 
 2783      304D487A 
 2783      00
 2784              	.LASF3:
 2785 0414 75696E74 		.ascii	"uint8_t\000"
 2785      385F7400 
 2786              	.LASF78:
 2787 041c 2F686F6D 		.ascii	"/home/jarhmander/Code/CC/ARM/iotogglem4/iotogglem4\000"
 2787      652F6A61 
 2787      72686D61 
 2787      6E646572 
ARM GAS  /tmp/cccCAPpj.s 			page 64


 2787      2F436F64 
 2788              	.LASF41:
 2789 044f 4750494F 		.ascii	"GPIOPuPd_TypeDef\000"
 2789      50755064 
 2789      5F547970 
 2789      65446566 
 2789      00
 2790              	.LASF39:
 2791 0460 4750494F 		.ascii	"GPIO_PuPd_UP\000"
 2791      5F507550 
 2791      645F5550 
 2791      00
 2792              	.LASF71:
 2793 046d 4750494F 		.ascii	"GPIO_PinAFConfig\000"
 2793      5F50696E 
 2793      4146436F 
 2793      6E666967 
 2793      00
 2794              	.LASF79:
 2795 047e 49544D5F 		.ascii	"ITM_RxBuffer\000"
 2795      52784275 
 2795      66666572 
 2795      00
 2796              	.LASF62:
 2797 048b 4750494F 		.ascii	"GPIO_ReadOutputDataBit\000"
 2797      5F526561 
 2797      644F7574 
 2797      70757444 
 2797      61746142 
 2798              	.LASF54:
 2799 04a2 4750494F 		.ascii	"GPIO_InitStruct\000"
 2799      5F496E69 
 2799      74537472 
 2799      75637400 
 2800              		.ident	"GCC: (GNU Tools for ARM Embedded Processors) 4.7.3 20121207 (release) [ARM/embedded-4_7-br
ARM GAS  /tmp/cccCAPpj.s 			page 65


DEFINED SYMBOLS
                            *ABS*:00000000 stm32f4xx_gpio.c
     /tmp/cccCAPpj.s:73     .text:00000000 $t
     /tmp/cccCAPpj.s:78     .text:00000000 GPIO_DeInit
     /tmp/cccCAPpj.s:235    .text:000000b4 $d
     /tmp/cccCAPpj.s:247    .text:000000d8 $t
     /tmp/cccCAPpj.s:252    .text:000000d8 GPIO_Init
     /tmp/cccCAPpj.s:361    .text:0000015e GPIO_StructInit
     /tmp/cccCAPpj.s:391    .text:00000170 GPIO_PinLockConfig
     /tmp/cccCAPpj.s:439    .text:00000196 GPIO_ReadInputDataBit
     /tmp/cccCAPpj.s:465    .text:000001a2 GPIO_ReadInputData
     /tmp/cccCAPpj.s:487    .text:000001a8 GPIO_ReadOutputDataBit
     /tmp/cccCAPpj.s:513    .text:000001b4 GPIO_ReadOutputData
     /tmp/cccCAPpj.s:535    .text:000001ba GPIO_SetBits
     /tmp/cccCAPpj.s:554    .text:000001be GPIO_ResetBits
     /tmp/cccCAPpj.s:573    .text:000001c2 GPIO_WriteBit
     /tmp/cccCAPpj.s:598    .text:000001cc GPIO_Write
     /tmp/cccCAPpj.s:617    .text:000001d0 GPIO_ToggleBits
     /tmp/cccCAPpj.s:639    .text:000001d8 GPIO_PinAFConfig
                     .debug_frame:00000010 $d

UNDEFINED SYMBOLS
RCC_AHB1PeriphResetCmd
