ARM GAS  /tmp/cc4MBWm7.s 			page 1


   1              		.syntax unified
   2              		.cpu cortex-m4
   3              		.fpu softvfp
   4              		.eabi_attribute 20, 1	@ Tag_ABI_FP_denormal
   5              		.eabi_attribute 21, 1	@ Tag_ABI_FP_exceptions
   6              		.eabi_attribute 23, 3	@ Tag_ABI_FP_number_model
   7              		.eabi_attribute 24, 1	@ Tag_ABI_align8_needed
   8              		.eabi_attribute 25, 1	@ Tag_ABI_align8_preserved
   9              		.eabi_attribute 26, 1	@ Tag_ABI_enum_size
  10              		.eabi_attribute 30, 4	@ Tag_ABI_optimization_goals
  11              		.eabi_attribute 34, 1	@ Tag_CPU_unaligned_access
  12              		.eabi_attribute 18, 4	@ Tag_ABI_PCS_wchar_t
  13              		.file	"stm32f4xx_flash.c"
  14              	@ GNU C (GNU Tools for ARM Embedded Processors) version 4.7.3 20121207 (release) [ARM/embedded-4_7-
  15              	@	compiled by GNU C version 4.3.6, GMP version 4.3.2, MPFR version 2.4.2, MPC version 0.8.1
  16              	@ GGC heuristics: --param ggc-min-expand=100 --param ggc-min-heapsize=131072
  17              	@ options passed:  -I .
  18              	@ -I ../../STM32F4-Discovery_FW_V1.1.0/Libraries/CMSIS/ST/STM32F4xx/Include
  19              	@ -I ../../STM32F4-Discovery_FW_V1.1.0/Libraries/CMSIS/Include
  20              	@ -I ../../STM32F4-Discovery_FW_V1.1.0/Libraries/STM32F4xx_StdPeriph_Driver/inc
  21              	@ -I ../../STM32F4-Discovery_FW_V1.1.0/Utilities/STM32F4-Discovery -I ./inc
  22              	@ -imultilib armv7e-m
  23              	@ -iprefix /home/jarhmander/Code/CC/ARM/gcc/gcc-arm-none-eabi-4_7-2012q4/bin/../lib/gcc/arm-none-ea
  24              	@ -isysroot /home/jarhmander/Code/CC/ARM/gcc/gcc-arm-none-eabi-4_7-2012q4/bin/../arm-none-eabi
  25              	@ -MD ../../STM32F4-Discovery_FW_V1.1.0/Libraries/STM32F4xx_StdPeriph_Driver/src/stm32f4xx_flash.d
  26              	@ -MF .dep/stm32f4xx_flash.o.d -MP
  27              	@ -MQ ../../STM32F4-Discovery_FW_V1.1.0/Libraries/STM32F4xx_StdPeriph_Driver/src/stm32f4xx_flash.o
  28              	@ -D__USES_INITFINI__ -D STM32F4XX -D USE_STDPERIPH_DRIVER
  29              	@ -D RUN_FROM_FLASH=1
  30              	@ ../../STM32F4-Discovery_FW_V1.1.0/Libraries/STM32F4xx_StdPeriph_Driver/src/stm32f4xx_flash.c
  31              	@ -mcpu=cortex-m4 -mthumb
  32              	@ -auxbase-strip ../../STM32F4-Discovery_FW_V1.1.0/Libraries/STM32F4xx_StdPeriph_Driver/src/stm32f4
  33              	@ -gdwarf-2 -Os -Wall -Wstrict-prototypes -fomit-frame-pointer
  34              	@ -fverbose-asm
  35              	@ options enabled:  -fauto-inc-dec -fbranch-count-reg -fcaller-saves
  36              	@ -fcombine-stack-adjustments -fcommon -fcompare-elim -fcprop-registers
  37              	@ -fcrossjumping -fcse-follow-jumps -fdebug-types-section -fdefer-pop
  38              	@ -fdelete-null-pointer-checks -fdevirtualize -fdwarf2-cfi-asm
  39              	@ -fearly-inlining -feliminate-unused-debug-types -fexpensive-optimizations
  40              	@ -fforward-propagate -ffunction-cse -fgcse -fgcse-lm -fgnu-runtime
  41              	@ -fguess-branch-probability -fident -fif-conversion -fif-conversion2
  42              	@ -findirect-inlining -finline -finline-atomics -finline-functions
  43              	@ -finline-functions-called-once -finline-small-functions -fipa-cp
  44              	@ -fipa-profile -fipa-pure-const -fipa-reference -fipa-sra
  45              	@ -fira-share-save-slots -fira-share-spill-slots -fivopts
  46              	@ -fkeep-static-consts -fleading-underscore -fmath-errno -fmerge-constants
  47              	@ -fmerge-debug-strings -fomit-frame-pointer -foptimize-register-move
  48              	@ -foptimize-sibling-calls -fpartial-inlining -fpeephole -fpeephole2
  49              	@ -fprefetch-loop-arrays -freg-struct-return -fregmove -frename-registers
  50              	@ -freorder-blocks -freorder-functions -frerun-cse-after-loop
  51              	@ -fsched-critical-path-heuristic -fsched-dep-count-heuristic
  52              	@ -fsched-group-heuristic -fsched-interblock -fsched-last-insn-heuristic
  53              	@ -fsched-rank-heuristic -fsched-spec -fsched-spec-insn-heuristic
  54              	@ -fsched-stalled-insns-dep -fschedule-insns2 -fsection-anchors
  55              	@ -fshow-column -fshrink-wrap -fsigned-zeros -fsplit-ivs-in-unroller
  56              	@ -fsplit-wide-types -fstrict-aliasing -fstrict-overflow
  57              	@ -fstrict-volatile-bitfields -fthread-jumps -ftoplevel-reorder
ARM GAS  /tmp/cc4MBWm7.s 			page 2


  58              	@ -ftrapping-math -ftree-bit-ccp -ftree-builtin-call-dce -ftree-ccp
  59              	@ -ftree-ch -ftree-copy-prop -ftree-copyrename -ftree-cselim -ftree-dce
  60              	@ -ftree-dominator-opts -ftree-dse -ftree-forwprop -ftree-fre
  61              	@ -ftree-loop-if-convert -ftree-loop-im -ftree-loop-ivcanon
  62              	@ -ftree-loop-optimize -ftree-parallelize-loops= -ftree-phiprop -ftree-pre
  63              	@ -ftree-pta -ftree-reassoc -ftree-scev-cprop -ftree-sink
  64              	@ -ftree-slp-vectorize -ftree-sra -ftree-switch-conversion
  65              	@ -ftree-tail-merge -ftree-ter -ftree-vect-loop-version -ftree-vrp
  66              	@ -funit-at-a-time -funroll-loops -fvar-tracking -fvar-tracking-assignments
  67              	@ -fverbose-asm -fweb -fzero-initialized-in-bss -mlittle-endian
  68              	@ -msched-prolog -mthumb -munaligned-access -mvectorize-with-neon-quad
  69              	
  70              		.text
  71              	.Ltext0:
  72              		.cfi_sections	.debug_frame
  73              		.align	1
  74              		.global	FLASH_SetLatency
  75              		.thumb
  76              		.thumb_func
  77              		.type	FLASH_SetLatency, %function
  78              	FLASH_SetLatency:
  79              	.LFB110:
  80              		.file 1 "../../STM32F4-Discovery_FW_V1.1.0/Libraries/STM32F4xx_StdPeriph_Driver/src/stm32f4xx_flas
   1:../../STM32F4-Discovery_FW_V1.1.0/Libraries/STM32F4xx_StdPeriph_Driver/src/stm32f4xx_flash.c **** /**
   2:../../STM32F4-Discovery_FW_V1.1.0/Libraries/STM32F4xx_StdPeriph_Driver/src/stm32f4xx_flash.c ****   ******************************************************************************
   3:../../STM32F4-Discovery_FW_V1.1.0/Libraries/STM32F4xx_StdPeriph_Driver/src/stm32f4xx_flash.c ****   * @file    stm32f4xx_flash.c
   4:../../STM32F4-Discovery_FW_V1.1.0/Libraries/STM32F4xx_StdPeriph_Driver/src/stm32f4xx_flash.c ****   * @author  MCD Application Team
   5:../../STM32F4-Discovery_FW_V1.1.0/Libraries/STM32F4xx_StdPeriph_Driver/src/stm32f4xx_flash.c ****   * @version V1.0.0
   6:../../STM32F4-Discovery_FW_V1.1.0/Libraries/STM32F4xx_StdPeriph_Driver/src/stm32f4xx_flash.c ****   * @date    30-September-2011
   7:../../STM32F4-Discovery_FW_V1.1.0/Libraries/STM32F4xx_StdPeriph_Driver/src/stm32f4xx_flash.c ****   * @brief   This file provides firmware functions to manage the following 
   8:../../STM32F4-Discovery_FW_V1.1.0/Libraries/STM32F4xx_StdPeriph_Driver/src/stm32f4xx_flash.c ****   *          functionalities of the FLASH peripheral:
   9:../../STM32F4-Discovery_FW_V1.1.0/Libraries/STM32F4xx_StdPeriph_Driver/src/stm32f4xx_flash.c ****   *            - FLASH Interface configuration
  10:../../STM32F4-Discovery_FW_V1.1.0/Libraries/STM32F4xx_StdPeriph_Driver/src/stm32f4xx_flash.c ****   *            - FLASH Memory Programming
  11:../../STM32F4-Discovery_FW_V1.1.0/Libraries/STM32F4xx_StdPeriph_Driver/src/stm32f4xx_flash.c ****   *            - Option Bytes Programming
  12:../../STM32F4-Discovery_FW_V1.1.0/Libraries/STM32F4xx_StdPeriph_Driver/src/stm32f4xx_flash.c ****   *            - Interrupts and flags management
  13:../../STM32F4-Discovery_FW_V1.1.0/Libraries/STM32F4xx_StdPeriph_Driver/src/stm32f4xx_flash.c ****   *  
  14:../../STM32F4-Discovery_FW_V1.1.0/Libraries/STM32F4xx_StdPeriph_Driver/src/stm32f4xx_flash.c ****   *  @verbatim
  15:../../STM32F4-Discovery_FW_V1.1.0/Libraries/STM32F4xx_StdPeriph_Driver/src/stm32f4xx_flash.c ****   *  
  16:../../STM32F4-Discovery_FW_V1.1.0/Libraries/STM32F4xx_StdPeriph_Driver/src/stm32f4xx_flash.c ****   *          ===================================================================
  17:../../STM32F4-Discovery_FW_V1.1.0/Libraries/STM32F4xx_StdPeriph_Driver/src/stm32f4xx_flash.c ****   *                                 How to use this driver
  18:../../STM32F4-Discovery_FW_V1.1.0/Libraries/STM32F4xx_StdPeriph_Driver/src/stm32f4xx_flash.c ****   *          ===================================================================
  19:../../STM32F4-Discovery_FW_V1.1.0/Libraries/STM32F4xx_StdPeriph_Driver/src/stm32f4xx_flash.c ****   *                           
  20:../../STM32F4-Discovery_FW_V1.1.0/Libraries/STM32F4xx_StdPeriph_Driver/src/stm32f4xx_flash.c ****   *          This driver provides functions to configure and program the FLASH 
  21:../../STM32F4-Discovery_FW_V1.1.0/Libraries/STM32F4xx_StdPeriph_Driver/src/stm32f4xx_flash.c ****   *          memory of all STM32F4xx devices.
  22:../../STM32F4-Discovery_FW_V1.1.0/Libraries/STM32F4xx_StdPeriph_Driver/src/stm32f4xx_flash.c ****   *          These functions are split in 4 groups:
  23:../../STM32F4-Discovery_FW_V1.1.0/Libraries/STM32F4xx_StdPeriph_Driver/src/stm32f4xx_flash.c ****   * 
  24:../../STM32F4-Discovery_FW_V1.1.0/Libraries/STM32F4xx_StdPeriph_Driver/src/stm32f4xx_flash.c ****   *           1. FLASH Interface configuration functions: this group includes the
  25:../../STM32F4-Discovery_FW_V1.1.0/Libraries/STM32F4xx_StdPeriph_Driver/src/stm32f4xx_flash.c ****   *              management of the following features:
  26:../../STM32F4-Discovery_FW_V1.1.0/Libraries/STM32F4xx_StdPeriph_Driver/src/stm32f4xx_flash.c ****   *                    - Set the latency
  27:../../STM32F4-Discovery_FW_V1.1.0/Libraries/STM32F4xx_StdPeriph_Driver/src/stm32f4xx_flash.c ****   *                    - Enable/Disable the prefetch buffer
  28:../../STM32F4-Discovery_FW_V1.1.0/Libraries/STM32F4xx_StdPeriph_Driver/src/stm32f4xx_flash.c ****   *                    - Enable/Disable the Instruction cache and the Data cache
  29:../../STM32F4-Discovery_FW_V1.1.0/Libraries/STM32F4xx_StdPeriph_Driver/src/stm32f4xx_flash.c ****   *                    - Reset the Instruction cache and the Data cache
  30:../../STM32F4-Discovery_FW_V1.1.0/Libraries/STM32F4xx_StdPeriph_Driver/src/stm32f4xx_flash.c ****   *  
  31:../../STM32F4-Discovery_FW_V1.1.0/Libraries/STM32F4xx_StdPeriph_Driver/src/stm32f4xx_flash.c ****   *           2. FLASH Memory Programming functions: this group includes all needed
  32:../../STM32F4-Discovery_FW_V1.1.0/Libraries/STM32F4xx_StdPeriph_Driver/src/stm32f4xx_flash.c ****   *              functions to erase and program the main memory:
  33:../../STM32F4-Discovery_FW_V1.1.0/Libraries/STM32F4xx_StdPeriph_Driver/src/stm32f4xx_flash.c ****   *                    - Lock and Unlock the FLASH interface
  34:../../STM32F4-Discovery_FW_V1.1.0/Libraries/STM32F4xx_StdPeriph_Driver/src/stm32f4xx_flash.c ****   *                    - Erase function: Erase sector, erase all sectors
ARM GAS  /tmp/cc4MBWm7.s 			page 3


  35:../../STM32F4-Discovery_FW_V1.1.0/Libraries/STM32F4xx_StdPeriph_Driver/src/stm32f4xx_flash.c ****   *                    - Program functions: byte, half word, word and double word
  36:../../STM32F4-Discovery_FW_V1.1.0/Libraries/STM32F4xx_StdPeriph_Driver/src/stm32f4xx_flash.c ****   *  
  37:../../STM32F4-Discovery_FW_V1.1.0/Libraries/STM32F4xx_StdPeriph_Driver/src/stm32f4xx_flash.c ****   *           3. Option Bytes Programming functions: this group includes all needed
  38:../../STM32F4-Discovery_FW_V1.1.0/Libraries/STM32F4xx_StdPeriph_Driver/src/stm32f4xx_flash.c ****   *              functions to manage the Option Bytes:
  39:../../STM32F4-Discovery_FW_V1.1.0/Libraries/STM32F4xx_StdPeriph_Driver/src/stm32f4xx_flash.c ****   *                    - Set/Reset the write protection
  40:../../STM32F4-Discovery_FW_V1.1.0/Libraries/STM32F4xx_StdPeriph_Driver/src/stm32f4xx_flash.c ****   *                    - Set the Read protection Level
  41:../../STM32F4-Discovery_FW_V1.1.0/Libraries/STM32F4xx_StdPeriph_Driver/src/stm32f4xx_flash.c ****   *                    - Set the BOR level
  42:../../STM32F4-Discovery_FW_V1.1.0/Libraries/STM32F4xx_StdPeriph_Driver/src/stm32f4xx_flash.c ****   *                    - Program the user Option Bytes
  43:../../STM32F4-Discovery_FW_V1.1.0/Libraries/STM32F4xx_StdPeriph_Driver/src/stm32f4xx_flash.c ****   *                    - Launch the Option Bytes loader
  44:../../STM32F4-Discovery_FW_V1.1.0/Libraries/STM32F4xx_StdPeriph_Driver/src/stm32f4xx_flash.c ****   *  
  45:../../STM32F4-Discovery_FW_V1.1.0/Libraries/STM32F4xx_StdPeriph_Driver/src/stm32f4xx_flash.c ****   *           4. Interrupts and flags management functions: this group 
  46:../../STM32F4-Discovery_FW_V1.1.0/Libraries/STM32F4xx_StdPeriph_Driver/src/stm32f4xx_flash.c ****   *              includes all needed functions to:
  47:../../STM32F4-Discovery_FW_V1.1.0/Libraries/STM32F4xx_StdPeriph_Driver/src/stm32f4xx_flash.c ****   *                    - Enable/Disable the FLASH interrupt sources
  48:../../STM32F4-Discovery_FW_V1.1.0/Libraries/STM32F4xx_StdPeriph_Driver/src/stm32f4xx_flash.c ****   *                    - Get flags status
  49:../../STM32F4-Discovery_FW_V1.1.0/Libraries/STM32F4xx_StdPeriph_Driver/src/stm32f4xx_flash.c ****   *                    - Clear flags
  50:../../STM32F4-Discovery_FW_V1.1.0/Libraries/STM32F4xx_StdPeriph_Driver/src/stm32f4xx_flash.c ****   *                    - Get FLASH operation status
  51:../../STM32F4-Discovery_FW_V1.1.0/Libraries/STM32F4xx_StdPeriph_Driver/src/stm32f4xx_flash.c ****   *                    - Wait for last FLASH operation
  52:../../STM32F4-Discovery_FW_V1.1.0/Libraries/STM32F4xx_StdPeriph_Driver/src/stm32f4xx_flash.c ****   * 
  53:../../STM32F4-Discovery_FW_V1.1.0/Libraries/STM32F4xx_StdPeriph_Driver/src/stm32f4xx_flash.c ****   *  @endverbatim
  54:../../STM32F4-Discovery_FW_V1.1.0/Libraries/STM32F4xx_StdPeriph_Driver/src/stm32f4xx_flash.c ****   *                      
  55:../../STM32F4-Discovery_FW_V1.1.0/Libraries/STM32F4xx_StdPeriph_Driver/src/stm32f4xx_flash.c ****   ******************************************************************************
  56:../../STM32F4-Discovery_FW_V1.1.0/Libraries/STM32F4xx_StdPeriph_Driver/src/stm32f4xx_flash.c ****   * @attention
  57:../../STM32F4-Discovery_FW_V1.1.0/Libraries/STM32F4xx_StdPeriph_Driver/src/stm32f4xx_flash.c ****   *
  58:../../STM32F4-Discovery_FW_V1.1.0/Libraries/STM32F4xx_StdPeriph_Driver/src/stm32f4xx_flash.c ****   * THE PRESENT FIRMWARE WHICH IS FOR GUIDANCE ONLY AIMS AT PROVIDING CUSTOMERS
  59:../../STM32F4-Discovery_FW_V1.1.0/Libraries/STM32F4xx_StdPeriph_Driver/src/stm32f4xx_flash.c ****   * WITH CODING INFORMATION REGARDING THEIR PRODUCTS IN ORDER FOR THEM TO SAVE
  60:../../STM32F4-Discovery_FW_V1.1.0/Libraries/STM32F4xx_StdPeriph_Driver/src/stm32f4xx_flash.c ****   * TIME. AS A RESULT, STMICROELECTRONICS SHALL NOT BE HELD LIABLE FOR ANY
  61:../../STM32F4-Discovery_FW_V1.1.0/Libraries/STM32F4xx_StdPeriph_Driver/src/stm32f4xx_flash.c ****   * DIRECT, INDIRECT OR CONSEQUENTIAL DAMAGES WITH RESPECT TO ANY CLAIMS ARISING
  62:../../STM32F4-Discovery_FW_V1.1.0/Libraries/STM32F4xx_StdPeriph_Driver/src/stm32f4xx_flash.c ****   * FROM THE CONTENT OF SUCH FIRMWARE AND/OR THE USE MADE BY CUSTOMERS OF THE
  63:../../STM32F4-Discovery_FW_V1.1.0/Libraries/STM32F4xx_StdPeriph_Driver/src/stm32f4xx_flash.c ****   * CODING INFORMATION CONTAINED HEREIN IN CONNECTION WITH THEIR PRODUCTS.
  64:../../STM32F4-Discovery_FW_V1.1.0/Libraries/STM32F4xx_StdPeriph_Driver/src/stm32f4xx_flash.c ****   *
  65:../../STM32F4-Discovery_FW_V1.1.0/Libraries/STM32F4xx_StdPeriph_Driver/src/stm32f4xx_flash.c ****   * <h2><center>&copy; COPYRIGHT 2011 STMicroelectronics</center></h2>
  66:../../STM32F4-Discovery_FW_V1.1.0/Libraries/STM32F4xx_StdPeriph_Driver/src/stm32f4xx_flash.c ****   ******************************************************************************
  67:../../STM32F4-Discovery_FW_V1.1.0/Libraries/STM32F4xx_StdPeriph_Driver/src/stm32f4xx_flash.c ****   */
  68:../../STM32F4-Discovery_FW_V1.1.0/Libraries/STM32F4xx_StdPeriph_Driver/src/stm32f4xx_flash.c **** 
  69:../../STM32F4-Discovery_FW_V1.1.0/Libraries/STM32F4xx_StdPeriph_Driver/src/stm32f4xx_flash.c **** /* Includes ------------------------------------------------------------------*/
  70:../../STM32F4-Discovery_FW_V1.1.0/Libraries/STM32F4xx_StdPeriph_Driver/src/stm32f4xx_flash.c **** #include "stm32f4xx_flash.h"
  71:../../STM32F4-Discovery_FW_V1.1.0/Libraries/STM32F4xx_StdPeriph_Driver/src/stm32f4xx_flash.c **** 
  72:../../STM32F4-Discovery_FW_V1.1.0/Libraries/STM32F4xx_StdPeriph_Driver/src/stm32f4xx_flash.c **** /** @addtogroup STM32F4xx_StdPeriph_Driver
  73:../../STM32F4-Discovery_FW_V1.1.0/Libraries/STM32F4xx_StdPeriph_Driver/src/stm32f4xx_flash.c ****   * @{
  74:../../STM32F4-Discovery_FW_V1.1.0/Libraries/STM32F4xx_StdPeriph_Driver/src/stm32f4xx_flash.c ****   */
  75:../../STM32F4-Discovery_FW_V1.1.0/Libraries/STM32F4xx_StdPeriph_Driver/src/stm32f4xx_flash.c **** 
  76:../../STM32F4-Discovery_FW_V1.1.0/Libraries/STM32F4xx_StdPeriph_Driver/src/stm32f4xx_flash.c **** /** @defgroup FLASH 
  77:../../STM32F4-Discovery_FW_V1.1.0/Libraries/STM32F4xx_StdPeriph_Driver/src/stm32f4xx_flash.c ****   * @brief FLASH driver modules
  78:../../STM32F4-Discovery_FW_V1.1.0/Libraries/STM32F4xx_StdPeriph_Driver/src/stm32f4xx_flash.c ****   * @{
  79:../../STM32F4-Discovery_FW_V1.1.0/Libraries/STM32F4xx_StdPeriph_Driver/src/stm32f4xx_flash.c ****   */ 
  80:../../STM32F4-Discovery_FW_V1.1.0/Libraries/STM32F4xx_StdPeriph_Driver/src/stm32f4xx_flash.c **** 
  81:../../STM32F4-Discovery_FW_V1.1.0/Libraries/STM32F4xx_StdPeriph_Driver/src/stm32f4xx_flash.c **** /* Private typedef -----------------------------------------------------------*/
  82:../../STM32F4-Discovery_FW_V1.1.0/Libraries/STM32F4xx_StdPeriph_Driver/src/stm32f4xx_flash.c **** /* Private define ------------------------------------------------------------*/ 
  83:../../STM32F4-Discovery_FW_V1.1.0/Libraries/STM32F4xx_StdPeriph_Driver/src/stm32f4xx_flash.c **** #define SECTOR_MASK               ((uint32_t)0xFFFFFF07)
  84:../../STM32F4-Discovery_FW_V1.1.0/Libraries/STM32F4xx_StdPeriph_Driver/src/stm32f4xx_flash.c **** 
  85:../../STM32F4-Discovery_FW_V1.1.0/Libraries/STM32F4xx_StdPeriph_Driver/src/stm32f4xx_flash.c **** /* Private macro -------------------------------------------------------------*/
  86:../../STM32F4-Discovery_FW_V1.1.0/Libraries/STM32F4xx_StdPeriph_Driver/src/stm32f4xx_flash.c **** /* Private variables ---------------------------------------------------------*/
  87:../../STM32F4-Discovery_FW_V1.1.0/Libraries/STM32F4xx_StdPeriph_Driver/src/stm32f4xx_flash.c **** /* Private function prototypes -----------------------------------------------*/
  88:../../STM32F4-Discovery_FW_V1.1.0/Libraries/STM32F4xx_StdPeriph_Driver/src/stm32f4xx_flash.c **** /* Private functions ---------------------------------------------------------*/
  89:../../STM32F4-Discovery_FW_V1.1.0/Libraries/STM32F4xx_StdPeriph_Driver/src/stm32f4xx_flash.c **** 
  90:../../STM32F4-Discovery_FW_V1.1.0/Libraries/STM32F4xx_StdPeriph_Driver/src/stm32f4xx_flash.c **** /** @defgroup FLASH_Private_Functions
  91:../../STM32F4-Discovery_FW_V1.1.0/Libraries/STM32F4xx_StdPeriph_Driver/src/stm32f4xx_flash.c ****   * @{
ARM GAS  /tmp/cc4MBWm7.s 			page 4


  92:../../STM32F4-Discovery_FW_V1.1.0/Libraries/STM32F4xx_StdPeriph_Driver/src/stm32f4xx_flash.c ****   */ 
  93:../../STM32F4-Discovery_FW_V1.1.0/Libraries/STM32F4xx_StdPeriph_Driver/src/stm32f4xx_flash.c **** 
  94:../../STM32F4-Discovery_FW_V1.1.0/Libraries/STM32F4xx_StdPeriph_Driver/src/stm32f4xx_flash.c **** /** @defgroup FLASH_Group1 FLASH Interface configuration functions
  95:../../STM32F4-Discovery_FW_V1.1.0/Libraries/STM32F4xx_StdPeriph_Driver/src/stm32f4xx_flash.c ****   *  @brief   FLASH Interface configuration functions 
  96:../../STM32F4-Discovery_FW_V1.1.0/Libraries/STM32F4xx_StdPeriph_Driver/src/stm32f4xx_flash.c ****  *
  97:../../STM32F4-Discovery_FW_V1.1.0/Libraries/STM32F4xx_StdPeriph_Driver/src/stm32f4xx_flash.c **** 
  98:../../STM32F4-Discovery_FW_V1.1.0/Libraries/STM32F4xx_StdPeriph_Driver/src/stm32f4xx_flash.c **** @verbatim   
  99:../../STM32F4-Discovery_FW_V1.1.0/Libraries/STM32F4xx_StdPeriph_Driver/src/stm32f4xx_flash.c ****  ===============================================================================
 100:../../STM32F4-Discovery_FW_V1.1.0/Libraries/STM32F4xx_StdPeriph_Driver/src/stm32f4xx_flash.c ****                        FLASH Interface configuration functions
 101:../../STM32F4-Discovery_FW_V1.1.0/Libraries/STM32F4xx_StdPeriph_Driver/src/stm32f4xx_flash.c ****  ===============================================================================
 102:../../STM32F4-Discovery_FW_V1.1.0/Libraries/STM32F4xx_StdPeriph_Driver/src/stm32f4xx_flash.c **** 
 103:../../STM32F4-Discovery_FW_V1.1.0/Libraries/STM32F4xx_StdPeriph_Driver/src/stm32f4xx_flash.c ****    This group includes the following functions:
 104:../../STM32F4-Discovery_FW_V1.1.0/Libraries/STM32F4xx_StdPeriph_Driver/src/stm32f4xx_flash.c ****     - void FLASH_SetLatency(uint32_t FLASH_Latency)
 105:../../STM32F4-Discovery_FW_V1.1.0/Libraries/STM32F4xx_StdPeriph_Driver/src/stm32f4xx_flash.c ****        To correctly read data from FLASH memory, the number of wait states (LATENCY) 
 106:../../STM32F4-Discovery_FW_V1.1.0/Libraries/STM32F4xx_StdPeriph_Driver/src/stm32f4xx_flash.c ****        must be correctly programmed according to the frequency of the CPU clock 
 107:../../STM32F4-Discovery_FW_V1.1.0/Libraries/STM32F4xx_StdPeriph_Driver/src/stm32f4xx_flash.c ****       (HCLK) and the supply voltage of the device.
 108:../../STM32F4-Discovery_FW_V1.1.0/Libraries/STM32F4xx_StdPeriph_Driver/src/stm32f4xx_flash.c ****  +-------------------------------------------------------------------------------------+     
 109:../../STM32F4-Discovery_FW_V1.1.0/Libraries/STM32F4xx_StdPeriph_Driver/src/stm32f4xx_flash.c ****  | Latency       |                HCLK clock frequency (MHz)                           |
 110:../../STM32F4-Discovery_FW_V1.1.0/Libraries/STM32F4xx_StdPeriph_Driver/src/stm32f4xx_flash.c ****  |               |---------------------------------------------------------------------|     
 111:../../STM32F4-Discovery_FW_V1.1.0/Libraries/STM32F4xx_StdPeriph_Driver/src/stm32f4xx_flash.c ****  |               | voltage range  | voltage range  | voltage range   | voltage range   |
 112:../../STM32F4-Discovery_FW_V1.1.0/Libraries/STM32F4xx_StdPeriph_Driver/src/stm32f4xx_flash.c ****  |               | 2.7 V - 3.6 V  | 2.4 V - 2.7 V  | 2.1 V - 2.4 V   | 1.8 V - 2.1 V   |
 113:../../STM32F4-Discovery_FW_V1.1.0/Libraries/STM32F4xx_StdPeriph_Driver/src/stm32f4xx_flash.c ****  |---------------|----------------|----------------|-----------------|-----------------|           
 114:../../STM32F4-Discovery_FW_V1.1.0/Libraries/STM32F4xx_StdPeriph_Driver/src/stm32f4xx_flash.c ****  |0WS(1CPU cycle)|0 < HCLK <= 30  |0 < HCLK <= 24  |0 < HCLK <= 18   |0 < HCLK <= 16   |
 115:../../STM32F4-Discovery_FW_V1.1.0/Libraries/STM32F4xx_StdPeriph_Driver/src/stm32f4xx_flash.c ****  |---------------|----------------|----------------|-----------------|-----------------|   
 116:../../STM32F4-Discovery_FW_V1.1.0/Libraries/STM32F4xx_StdPeriph_Driver/src/stm32f4xx_flash.c ****  |1WS(2CPU cycle)|30 < HCLK <= 60 |24 < HCLK <= 48 |18 < HCLK <= 36  |16 < HCLK <= 32  | 
 117:../../STM32F4-Discovery_FW_V1.1.0/Libraries/STM32F4xx_StdPeriph_Driver/src/stm32f4xx_flash.c ****  |---------------|----------------|----------------|-----------------|-----------------|   
 118:../../STM32F4-Discovery_FW_V1.1.0/Libraries/STM32F4xx_StdPeriph_Driver/src/stm32f4xx_flash.c ****  |2WS(3CPU cycle)|60 < HCLK <= 90 |48 < HCLK <= 72 |36 < HCLK <= 54  |32 < HCLK <= 48  |
 119:../../STM32F4-Discovery_FW_V1.1.0/Libraries/STM32F4xx_StdPeriph_Driver/src/stm32f4xx_flash.c ****  |---------------|----------------|----------------|-----------------|-----------------| 
 120:../../STM32F4-Discovery_FW_V1.1.0/Libraries/STM32F4xx_StdPeriph_Driver/src/stm32f4xx_flash.c ****  |3WS(4CPU cycle)|90 < HCLK <= 120|72 < HCLK <= 96 |54 < HCLK <= 72  |48 < HCLK <= 64  |
 121:../../STM32F4-Discovery_FW_V1.1.0/Libraries/STM32F4xx_StdPeriph_Driver/src/stm32f4xx_flash.c ****  |---------------|----------------|----------------|-----------------|-----------------| 
 122:../../STM32F4-Discovery_FW_V1.1.0/Libraries/STM32F4xx_StdPeriph_Driver/src/stm32f4xx_flash.c ****  |4WS(5CPU cycle)|120< HCLK <= 150|96 < HCLK <= 120|72 < HCLK <= 90  |64 < HCLK <= 80  |
 123:../../STM32F4-Discovery_FW_V1.1.0/Libraries/STM32F4xx_StdPeriph_Driver/src/stm32f4xx_flash.c ****  |---------------|----------------|----------------|-----------------|-----------------| 
 124:../../STM32F4-Discovery_FW_V1.1.0/Libraries/STM32F4xx_StdPeriph_Driver/src/stm32f4xx_flash.c ****  |5WS(6CPU cycle)|120< HCLK <= 168|120< HCLK <= 144|90 < HCLK <= 108 |80 < HCLK <= 96  | 
 125:../../STM32F4-Discovery_FW_V1.1.0/Libraries/STM32F4xx_StdPeriph_Driver/src/stm32f4xx_flash.c ****  |---------------|----------------|----------------|-----------------|-----------------| 
 126:../../STM32F4-Discovery_FW_V1.1.0/Libraries/STM32F4xx_StdPeriph_Driver/src/stm32f4xx_flash.c ****  |6WS(7CPU cycle)|      NA        |144< HCLK <= 168|108 < HCLK <= 120|96 < HCLK <= 112 | 
 127:../../STM32F4-Discovery_FW_V1.1.0/Libraries/STM32F4xx_StdPeriph_Driver/src/stm32f4xx_flash.c ****  |---------------|----------------|----------------|-----------------|-----------------| 
 128:../../STM32F4-Discovery_FW_V1.1.0/Libraries/STM32F4xx_StdPeriph_Driver/src/stm32f4xx_flash.c ****  |7WS(8CPU cycle)|      NA        |      NA        |120 < HCLK <= 138|112 < HCLK <= 120| 
 129:../../STM32F4-Discovery_FW_V1.1.0/Libraries/STM32F4xx_StdPeriph_Driver/src/stm32f4xx_flash.c ****  |***************|****************|****************|*****************|*****************|***********
 130:../../STM32F4-Discovery_FW_V1.1.0/Libraries/STM32F4xx_StdPeriph_Driver/src/stm32f4xx_flash.c ****  |               | voltage range  | voltage range  | voltage range   | voltage range   | voltage ra
 131:../../STM32F4-Discovery_FW_V1.1.0/Libraries/STM32F4xx_StdPeriph_Driver/src/stm32f4xx_flash.c ****  |               | 2.7 V - 3.6 V  | 2.4 V - 2.7 V  | 2.1 V - 2.4 V   | 1.8 V - 2.1 V   | with Exter
 132:../../STM32F4-Discovery_FW_V1.1.0/Libraries/STM32F4xx_StdPeriph_Driver/src/stm32f4xx_flash.c ****  |---------------|----------------|----------------|-----------------|-----------------|-----------
 133:../../STM32F4-Discovery_FW_V1.1.0/Libraries/STM32F4xx_StdPeriph_Driver/src/stm32f4xx_flash.c ****  |Max Parallelism|      x32       |               x16                |       x8        |          x
 134:../../STM32F4-Discovery_FW_V1.1.0/Libraries/STM32F4xx_StdPeriph_Driver/src/stm32f4xx_flash.c ****  |---------------|----------------|----------------|-----------------|-----------------|-----------
 135:../../STM32F4-Discovery_FW_V1.1.0/Libraries/STM32F4xx_StdPeriph_Driver/src/stm32f4xx_flash.c ****  |PSIZE[1:0]     |      10        |               01                 |       00        |           
 136:../../STM32F4-Discovery_FW_V1.1.0/Libraries/STM32F4xx_StdPeriph_Driver/src/stm32f4xx_flash.c ****  +-------------------------------------------------------------------------------------------------
 137:../../STM32F4-Discovery_FW_V1.1.0/Libraries/STM32F4xx_StdPeriph_Driver/src/stm32f4xx_flash.c ****    @note When VOS bit (in PWR_CR register) is reset to '0’, the maximum value of HCLK is 144 MHz.
 138:../../STM32F4-Discovery_FW_V1.1.0/Libraries/STM32F4xx_StdPeriph_Driver/src/stm32f4xx_flash.c ****          You can use PWR_MainRegulatorModeConfig() function to set or reset this bit.
 139:../../STM32F4-Discovery_FW_V1.1.0/Libraries/STM32F4xx_StdPeriph_Driver/src/stm32f4xx_flash.c ****              
 140:../../STM32F4-Discovery_FW_V1.1.0/Libraries/STM32F4xx_StdPeriph_Driver/src/stm32f4xx_flash.c ****     - void FLASH_PrefetchBufferCmd(FunctionalState NewState)
 141:../../STM32F4-Discovery_FW_V1.1.0/Libraries/STM32F4xx_StdPeriph_Driver/src/stm32f4xx_flash.c ****     - void FLASH_InstructionCacheCmd(FunctionalState NewState)
 142:../../STM32F4-Discovery_FW_V1.1.0/Libraries/STM32F4xx_StdPeriph_Driver/src/stm32f4xx_flash.c ****     - void FLASH_DataCacheCmd(FunctionalState NewState)
 143:../../STM32F4-Discovery_FW_V1.1.0/Libraries/STM32F4xx_StdPeriph_Driver/src/stm32f4xx_flash.c ****     - void FLASH_InstructionCacheReset(void)
 144:../../STM32F4-Discovery_FW_V1.1.0/Libraries/STM32F4xx_StdPeriph_Driver/src/stm32f4xx_flash.c ****     - void FLASH_DataCacheReset(void)
 145:../../STM32F4-Discovery_FW_V1.1.0/Libraries/STM32F4xx_StdPeriph_Driver/src/stm32f4xx_flash.c ****    
 146:../../STM32F4-Discovery_FW_V1.1.0/Libraries/STM32F4xx_StdPeriph_Driver/src/stm32f4xx_flash.c ****    The unlock sequence is not needed for these functions.
 147:../../STM32F4-Discovery_FW_V1.1.0/Libraries/STM32F4xx_StdPeriph_Driver/src/stm32f4xx_flash.c ****  
 148:../../STM32F4-Discovery_FW_V1.1.0/Libraries/STM32F4xx_StdPeriph_Driver/src/stm32f4xx_flash.c **** @endverbatim
ARM GAS  /tmp/cc4MBWm7.s 			page 5


 149:../../STM32F4-Discovery_FW_V1.1.0/Libraries/STM32F4xx_StdPeriph_Driver/src/stm32f4xx_flash.c ****   * @{
 150:../../STM32F4-Discovery_FW_V1.1.0/Libraries/STM32F4xx_StdPeriph_Driver/src/stm32f4xx_flash.c ****   */
 151:../../STM32F4-Discovery_FW_V1.1.0/Libraries/STM32F4xx_StdPeriph_Driver/src/stm32f4xx_flash.c ****  
 152:../../STM32F4-Discovery_FW_V1.1.0/Libraries/STM32F4xx_StdPeriph_Driver/src/stm32f4xx_flash.c **** /**
 153:../../STM32F4-Discovery_FW_V1.1.0/Libraries/STM32F4xx_StdPeriph_Driver/src/stm32f4xx_flash.c ****   * @brief  Sets the code latency value.
 154:../../STM32F4-Discovery_FW_V1.1.0/Libraries/STM32F4xx_StdPeriph_Driver/src/stm32f4xx_flash.c ****   * @param  FLASH_Latency: specifies the FLASH Latency value.
 155:../../STM32F4-Discovery_FW_V1.1.0/Libraries/STM32F4xx_StdPeriph_Driver/src/stm32f4xx_flash.c ****   *          This parameter can be one of the following values:
 156:../../STM32F4-Discovery_FW_V1.1.0/Libraries/STM32F4xx_StdPeriph_Driver/src/stm32f4xx_flash.c ****   *            @arg FLASH_Latency_0: FLASH Zero Latency cycle
 157:../../STM32F4-Discovery_FW_V1.1.0/Libraries/STM32F4xx_StdPeriph_Driver/src/stm32f4xx_flash.c ****   *            @arg FLASH_Latency_1: FLASH One Latency cycle
 158:../../STM32F4-Discovery_FW_V1.1.0/Libraries/STM32F4xx_StdPeriph_Driver/src/stm32f4xx_flash.c ****   *            @arg FLASH_Latency_2: FLASH Two Latency cycles
 159:../../STM32F4-Discovery_FW_V1.1.0/Libraries/STM32F4xx_StdPeriph_Driver/src/stm32f4xx_flash.c ****   *            @arg FLASH_Latency_3: FLASH Three Latency cycles
 160:../../STM32F4-Discovery_FW_V1.1.0/Libraries/STM32F4xx_StdPeriph_Driver/src/stm32f4xx_flash.c ****   *            @arg FLASH_Latency_4: FLASH Four Latency cycles 
 161:../../STM32F4-Discovery_FW_V1.1.0/Libraries/STM32F4xx_StdPeriph_Driver/src/stm32f4xx_flash.c ****   *            @arg FLASH_Latency_5: FLASH Five Latency cycles 
 162:../../STM32F4-Discovery_FW_V1.1.0/Libraries/STM32F4xx_StdPeriph_Driver/src/stm32f4xx_flash.c ****   *            @arg FLASH_Latency_6: FLASH Six Latency cycles
 163:../../STM32F4-Discovery_FW_V1.1.0/Libraries/STM32F4xx_StdPeriph_Driver/src/stm32f4xx_flash.c ****   *            @arg FLASH_Latency_7: FLASH Seven Latency cycles      
 164:../../STM32F4-Discovery_FW_V1.1.0/Libraries/STM32F4xx_StdPeriph_Driver/src/stm32f4xx_flash.c ****   * @retval None
 165:../../STM32F4-Discovery_FW_V1.1.0/Libraries/STM32F4xx_StdPeriph_Driver/src/stm32f4xx_flash.c ****   */
 166:../../STM32F4-Discovery_FW_V1.1.0/Libraries/STM32F4xx_StdPeriph_Driver/src/stm32f4xx_flash.c **** void FLASH_SetLatency(uint32_t FLASH_Latency)
 167:../../STM32F4-Discovery_FW_V1.1.0/Libraries/STM32F4xx_StdPeriph_Driver/src/stm32f4xx_flash.c **** {
  81              		.loc 1 167 0
  82              		.cfi_startproc
  83              		@ args = 0, pretend = 0, frame = 0
  84              		@ frame_needed = 0, uses_anonymous_args = 0
  85              		@ link register save eliminated.
  86              	.LVL0:
 168:../../STM32F4-Discovery_FW_V1.1.0/Libraries/STM32F4xx_StdPeriph_Driver/src/stm32f4xx_flash.c ****   /* Check the parameters */
 169:../../STM32F4-Discovery_FW_V1.1.0/Libraries/STM32F4xx_StdPeriph_Driver/src/stm32f4xx_flash.c ****   assert_param(IS_FLASH_LATENCY(FLASH_Latency));
 170:../../STM32F4-Discovery_FW_V1.1.0/Libraries/STM32F4xx_StdPeriph_Driver/src/stm32f4xx_flash.c ****   
 171:../../STM32F4-Discovery_FW_V1.1.0/Libraries/STM32F4xx_StdPeriph_Driver/src/stm32f4xx_flash.c ****   /* Perform Byte access to FLASH_ACR[8:0] to set the Latency value */
 172:../../STM32F4-Discovery_FW_V1.1.0/Libraries/STM32F4xx_StdPeriph_Driver/src/stm32f4xx_flash.c ****   *(__IO uint8_t *)ACR_BYTE0_ADDRESS = (uint8_t)FLASH_Latency;
  87              		.loc 1 172 0
  88 0000 014B     		ldr	r3, .L2	@ tmp136,
  89 0002 C0B2     		uxtb	r0, r0	@ D.5976, FLASH_Latency
  90              	.LVL1:
  91 0004 1870     		strb	r0, [r3, #0]	@ D.5976, MEM[(volatile uint8_t *)1073888256B]
  92 0006 7047     		bx	lr	@
  93              	.L3:
  94              		.align	2
  95              	.L2:
  96 0008 003C0240 		.word	1073888256
  97              		.cfi_endproc
  98              	.LFE110:
  99              		.size	FLASH_SetLatency, .-FLASH_SetLatency
 100              		.align	1
 101              		.global	FLASH_PrefetchBufferCmd
 102              		.thumb
 103              		.thumb_func
 104              		.type	FLASH_PrefetchBufferCmd, %function
 105              	FLASH_PrefetchBufferCmd:
 106              	.LFB111:
 173:../../STM32F4-Discovery_FW_V1.1.0/Libraries/STM32F4xx_StdPeriph_Driver/src/stm32f4xx_flash.c **** }
 174:../../STM32F4-Discovery_FW_V1.1.0/Libraries/STM32F4xx_StdPeriph_Driver/src/stm32f4xx_flash.c **** 
 175:../../STM32F4-Discovery_FW_V1.1.0/Libraries/STM32F4xx_StdPeriph_Driver/src/stm32f4xx_flash.c **** /**
 176:../../STM32F4-Discovery_FW_V1.1.0/Libraries/STM32F4xx_StdPeriph_Driver/src/stm32f4xx_flash.c ****   * @brief  Enables or disables the Prefetch Buffer.
 177:../../STM32F4-Discovery_FW_V1.1.0/Libraries/STM32F4xx_StdPeriph_Driver/src/stm32f4xx_flash.c ****   * @param  NewState: new state of the Prefetch Buffer.
 178:../../STM32F4-Discovery_FW_V1.1.0/Libraries/STM32F4xx_StdPeriph_Driver/src/stm32f4xx_flash.c ****   *          This parameter  can be: ENABLE or DISABLE.
 179:../../STM32F4-Discovery_FW_V1.1.0/Libraries/STM32F4xx_StdPeriph_Driver/src/stm32f4xx_flash.c ****   * @retval None
ARM GAS  /tmp/cc4MBWm7.s 			page 6


 180:../../STM32F4-Discovery_FW_V1.1.0/Libraries/STM32F4xx_StdPeriph_Driver/src/stm32f4xx_flash.c ****   */
 181:../../STM32F4-Discovery_FW_V1.1.0/Libraries/STM32F4xx_StdPeriph_Driver/src/stm32f4xx_flash.c **** void FLASH_PrefetchBufferCmd(FunctionalState NewState)
 182:../../STM32F4-Discovery_FW_V1.1.0/Libraries/STM32F4xx_StdPeriph_Driver/src/stm32f4xx_flash.c **** {
 107              		.loc 1 182 0
 108              		.cfi_startproc
 109              		@ args = 0, pretend = 0, frame = 0
 110              		@ frame_needed = 0, uses_anonymous_args = 0
 111              		@ link register save eliminated.
 112              	.LVL2:
 113 000c 044B     		ldr	r3, .L9	@ tmp143,
 183:../../STM32F4-Discovery_FW_V1.1.0/Libraries/STM32F4xx_StdPeriph_Driver/src/stm32f4xx_flash.c ****   /* Check the parameters */
 184:../../STM32F4-Discovery_FW_V1.1.0/Libraries/STM32F4xx_StdPeriph_Driver/src/stm32f4xx_flash.c ****   assert_param(IS_FUNCTIONAL_STATE(NewState));
 185:../../STM32F4-Discovery_FW_V1.1.0/Libraries/STM32F4xx_StdPeriph_Driver/src/stm32f4xx_flash.c ****   
 186:../../STM32F4-Discovery_FW_V1.1.0/Libraries/STM32F4xx_StdPeriph_Driver/src/stm32f4xx_flash.c ****   /* Enable or disable the Prefetch Buffer */
 187:../../STM32F4-Discovery_FW_V1.1.0/Libraries/STM32F4xx_StdPeriph_Driver/src/stm32f4xx_flash.c ****   if(NewState != DISABLE)
 188:../../STM32F4-Discovery_FW_V1.1.0/Libraries/STM32F4xx_StdPeriph_Driver/src/stm32f4xx_flash.c ****   {
 189:../../STM32F4-Discovery_FW_V1.1.0/Libraries/STM32F4xx_StdPeriph_Driver/src/stm32f4xx_flash.c ****     FLASH->ACR |= FLASH_ACR_PRFTEN;
 114              		.loc 1 189 0
 115 000e 1A68     		ldr	r2, [r3, #0]	@ D.5970,
 187:../../STM32F4-Discovery_FW_V1.1.0/Libraries/STM32F4xx_StdPeriph_Driver/src/stm32f4xx_flash.c ****   if(NewState != DISABLE)
 116              		.loc 1 187 0
 117 0010 10B1     		cbz	r0, .L5	@ NewState,
 118              		.loc 1 189 0
 119 0012 42F48070 		orr	r0, r2, #256	@ D.5971, D.5970,
 120              	.LVL3:
 121 0016 01E0     		b	.L7	@
 122              	.LVL4:
 123              	.L5:
 190:../../STM32F4-Discovery_FW_V1.1.0/Libraries/STM32F4xx_StdPeriph_Driver/src/stm32f4xx_flash.c ****   }
 191:../../STM32F4-Discovery_FW_V1.1.0/Libraries/STM32F4xx_StdPeriph_Driver/src/stm32f4xx_flash.c ****   else
 192:../../STM32F4-Discovery_FW_V1.1.0/Libraries/STM32F4xx_StdPeriph_Driver/src/stm32f4xx_flash.c ****   {
 193:../../STM32F4-Discovery_FW_V1.1.0/Libraries/STM32F4xx_StdPeriph_Driver/src/stm32f4xx_flash.c ****     FLASH->ACR &= (~FLASH_ACR_PRFTEN);
 124              		.loc 1 193 0
 125 0018 22F48070 		bic	r0, r2, #256	@ D.5974, D.5973,
 126              	.LVL5:
 127              	.L7:
 128 001c 1860     		str	r0, [r3, #0]	@ D.5974,
 129 001e 7047     		bx	lr	@
 130              	.L10:
 131              		.align	2
 132              	.L9:
 133 0020 003C0240 		.word	1073888256
 134              		.cfi_endproc
 135              	.LFE111:
 136              		.size	FLASH_PrefetchBufferCmd, .-FLASH_PrefetchBufferCmd
 137              		.align	1
 138              		.global	FLASH_InstructionCacheCmd
 139              		.thumb
 140              		.thumb_func
 141              		.type	FLASH_InstructionCacheCmd, %function
 142              	FLASH_InstructionCacheCmd:
 143              	.LFB112:
 194:../../STM32F4-Discovery_FW_V1.1.0/Libraries/STM32F4xx_StdPeriph_Driver/src/stm32f4xx_flash.c ****   }
 195:../../STM32F4-Discovery_FW_V1.1.0/Libraries/STM32F4xx_StdPeriph_Driver/src/stm32f4xx_flash.c **** }
 196:../../STM32F4-Discovery_FW_V1.1.0/Libraries/STM32F4xx_StdPeriph_Driver/src/stm32f4xx_flash.c **** 
 197:../../STM32F4-Discovery_FW_V1.1.0/Libraries/STM32F4xx_StdPeriph_Driver/src/stm32f4xx_flash.c **** /**
 198:../../STM32F4-Discovery_FW_V1.1.0/Libraries/STM32F4xx_StdPeriph_Driver/src/stm32f4xx_flash.c ****   * @brief  Enables or disables the Instruction Cache feature.
ARM GAS  /tmp/cc4MBWm7.s 			page 7


 199:../../STM32F4-Discovery_FW_V1.1.0/Libraries/STM32F4xx_StdPeriph_Driver/src/stm32f4xx_flash.c ****   * @param  NewState: new state of the Instruction Cache.
 200:../../STM32F4-Discovery_FW_V1.1.0/Libraries/STM32F4xx_StdPeriph_Driver/src/stm32f4xx_flash.c ****   *          This parameter  can be: ENABLE or DISABLE.
 201:../../STM32F4-Discovery_FW_V1.1.0/Libraries/STM32F4xx_StdPeriph_Driver/src/stm32f4xx_flash.c ****   * @retval None
 202:../../STM32F4-Discovery_FW_V1.1.0/Libraries/STM32F4xx_StdPeriph_Driver/src/stm32f4xx_flash.c ****   */
 203:../../STM32F4-Discovery_FW_V1.1.0/Libraries/STM32F4xx_StdPeriph_Driver/src/stm32f4xx_flash.c **** void FLASH_InstructionCacheCmd(FunctionalState NewState)
 204:../../STM32F4-Discovery_FW_V1.1.0/Libraries/STM32F4xx_StdPeriph_Driver/src/stm32f4xx_flash.c **** {
 144              		.loc 1 204 0
 145              		.cfi_startproc
 146              		@ args = 0, pretend = 0, frame = 0
 147              		@ frame_needed = 0, uses_anonymous_args = 0
 148              		@ link register save eliminated.
 149              	.LVL6:
 150 0024 044B     		ldr	r3, .L15	@ tmp143,
 205:../../STM32F4-Discovery_FW_V1.1.0/Libraries/STM32F4xx_StdPeriph_Driver/src/stm32f4xx_flash.c ****   /* Check the parameters */
 206:../../STM32F4-Discovery_FW_V1.1.0/Libraries/STM32F4xx_StdPeriph_Driver/src/stm32f4xx_flash.c ****   assert_param(IS_FUNCTIONAL_STATE(NewState));
 207:../../STM32F4-Discovery_FW_V1.1.0/Libraries/STM32F4xx_StdPeriph_Driver/src/stm32f4xx_flash.c ****   
 208:../../STM32F4-Discovery_FW_V1.1.0/Libraries/STM32F4xx_StdPeriph_Driver/src/stm32f4xx_flash.c ****   if(NewState != DISABLE)
 209:../../STM32F4-Discovery_FW_V1.1.0/Libraries/STM32F4xx_StdPeriph_Driver/src/stm32f4xx_flash.c ****   {
 210:../../STM32F4-Discovery_FW_V1.1.0/Libraries/STM32F4xx_StdPeriph_Driver/src/stm32f4xx_flash.c ****     FLASH->ACR |= FLASH_ACR_ICEN;
 151              		.loc 1 210 0
 152 0026 1A68     		ldr	r2, [r3, #0]	@ D.5962,
 208:../../STM32F4-Discovery_FW_V1.1.0/Libraries/STM32F4xx_StdPeriph_Driver/src/stm32f4xx_flash.c ****   if(NewState != DISABLE)
 153              		.loc 1 208 0
 154 0028 10B1     		cbz	r0, .L12	@ NewState,
 155              		.loc 1 210 0
 156 002a 42F40070 		orr	r0, r2, #512	@ D.5963, D.5962,
 157              	.LVL7:
 158 002e 01E0     		b	.L14	@
 159              	.LVL8:
 160              	.L12:
 211:../../STM32F4-Discovery_FW_V1.1.0/Libraries/STM32F4xx_StdPeriph_Driver/src/stm32f4xx_flash.c ****   }
 212:../../STM32F4-Discovery_FW_V1.1.0/Libraries/STM32F4xx_StdPeriph_Driver/src/stm32f4xx_flash.c ****   else
 213:../../STM32F4-Discovery_FW_V1.1.0/Libraries/STM32F4xx_StdPeriph_Driver/src/stm32f4xx_flash.c ****   {
 214:../../STM32F4-Discovery_FW_V1.1.0/Libraries/STM32F4xx_StdPeriph_Driver/src/stm32f4xx_flash.c ****     FLASH->ACR &= (~FLASH_ACR_ICEN);
 161              		.loc 1 214 0
 162 0030 22F40070 		bic	r0, r2, #512	@ D.5966, D.5965,
 163              	.LVL9:
 164              	.L14:
 165 0034 1860     		str	r0, [r3, #0]	@ D.5966,
 166 0036 7047     		bx	lr	@
 167              	.L16:
 168              		.align	2
 169              	.L15:
 170 0038 003C0240 		.word	1073888256
 171              		.cfi_endproc
 172              	.LFE112:
 173              		.size	FLASH_InstructionCacheCmd, .-FLASH_InstructionCacheCmd
 174              		.align	1
 175              		.global	FLASH_DataCacheCmd
 176              		.thumb
 177              		.thumb_func
 178              		.type	FLASH_DataCacheCmd, %function
 179              	FLASH_DataCacheCmd:
 180              	.LFB113:
 215:../../STM32F4-Discovery_FW_V1.1.0/Libraries/STM32F4xx_StdPeriph_Driver/src/stm32f4xx_flash.c ****   }
 216:../../STM32F4-Discovery_FW_V1.1.0/Libraries/STM32F4xx_StdPeriph_Driver/src/stm32f4xx_flash.c **** }
 217:../../STM32F4-Discovery_FW_V1.1.0/Libraries/STM32F4xx_StdPeriph_Driver/src/stm32f4xx_flash.c **** 
ARM GAS  /tmp/cc4MBWm7.s 			page 8


 218:../../STM32F4-Discovery_FW_V1.1.0/Libraries/STM32F4xx_StdPeriph_Driver/src/stm32f4xx_flash.c **** /**
 219:../../STM32F4-Discovery_FW_V1.1.0/Libraries/STM32F4xx_StdPeriph_Driver/src/stm32f4xx_flash.c ****   * @brief  Enables or disables the Data Cache feature.
 220:../../STM32F4-Discovery_FW_V1.1.0/Libraries/STM32F4xx_StdPeriph_Driver/src/stm32f4xx_flash.c ****   * @param  NewState: new state of the Data Cache.
 221:../../STM32F4-Discovery_FW_V1.1.0/Libraries/STM32F4xx_StdPeriph_Driver/src/stm32f4xx_flash.c ****   *          This parameter  can be: ENABLE or DISABLE.
 222:../../STM32F4-Discovery_FW_V1.1.0/Libraries/STM32F4xx_StdPeriph_Driver/src/stm32f4xx_flash.c ****   * @retval None
 223:../../STM32F4-Discovery_FW_V1.1.0/Libraries/STM32F4xx_StdPeriph_Driver/src/stm32f4xx_flash.c ****   */
 224:../../STM32F4-Discovery_FW_V1.1.0/Libraries/STM32F4xx_StdPeriph_Driver/src/stm32f4xx_flash.c **** void FLASH_DataCacheCmd(FunctionalState NewState)
 225:../../STM32F4-Discovery_FW_V1.1.0/Libraries/STM32F4xx_StdPeriph_Driver/src/stm32f4xx_flash.c **** {
 181              		.loc 1 225 0
 182              		.cfi_startproc
 183              		@ args = 0, pretend = 0, frame = 0
 184              		@ frame_needed = 0, uses_anonymous_args = 0
 185              		@ link register save eliminated.
 186              	.LVL10:
 187 003c 044B     		ldr	r3, .L21	@ tmp143,
 226:../../STM32F4-Discovery_FW_V1.1.0/Libraries/STM32F4xx_StdPeriph_Driver/src/stm32f4xx_flash.c ****   /* Check the parameters */
 227:../../STM32F4-Discovery_FW_V1.1.0/Libraries/STM32F4xx_StdPeriph_Driver/src/stm32f4xx_flash.c ****   assert_param(IS_FUNCTIONAL_STATE(NewState));
 228:../../STM32F4-Discovery_FW_V1.1.0/Libraries/STM32F4xx_StdPeriph_Driver/src/stm32f4xx_flash.c ****   
 229:../../STM32F4-Discovery_FW_V1.1.0/Libraries/STM32F4xx_StdPeriph_Driver/src/stm32f4xx_flash.c ****   if(NewState != DISABLE)
 230:../../STM32F4-Discovery_FW_V1.1.0/Libraries/STM32F4xx_StdPeriph_Driver/src/stm32f4xx_flash.c ****   {
 231:../../STM32F4-Discovery_FW_V1.1.0/Libraries/STM32F4xx_StdPeriph_Driver/src/stm32f4xx_flash.c ****     FLASH->ACR |= FLASH_ACR_DCEN;
 188              		.loc 1 231 0
 189 003e 1A68     		ldr	r2, [r3, #0]	@ D.5954,
 229:../../STM32F4-Discovery_FW_V1.1.0/Libraries/STM32F4xx_StdPeriph_Driver/src/stm32f4xx_flash.c ****   if(NewState != DISABLE)
 190              		.loc 1 229 0
 191 0040 10B1     		cbz	r0, .L18	@ NewState,
 192              		.loc 1 231 0
 193 0042 42F48060 		orr	r0, r2, #1024	@ D.5955, D.5954,
 194              	.LVL11:
 195 0046 01E0     		b	.L20	@
 196              	.LVL12:
 197              	.L18:
 232:../../STM32F4-Discovery_FW_V1.1.0/Libraries/STM32F4xx_StdPeriph_Driver/src/stm32f4xx_flash.c ****   }
 233:../../STM32F4-Discovery_FW_V1.1.0/Libraries/STM32F4xx_StdPeriph_Driver/src/stm32f4xx_flash.c ****   else
 234:../../STM32F4-Discovery_FW_V1.1.0/Libraries/STM32F4xx_StdPeriph_Driver/src/stm32f4xx_flash.c ****   {
 235:../../STM32F4-Discovery_FW_V1.1.0/Libraries/STM32F4xx_StdPeriph_Driver/src/stm32f4xx_flash.c ****     FLASH->ACR &= (~FLASH_ACR_DCEN);
 198              		.loc 1 235 0
 199 0048 22F48060 		bic	r0, r2, #1024	@ D.5958, D.5957,
 200              	.LVL13:
 201              	.L20:
 202 004c 1860     		str	r0, [r3, #0]	@ D.5958,
 203 004e 7047     		bx	lr	@
 204              	.L22:
 205              		.align	2
 206              	.L21:
 207 0050 003C0240 		.word	1073888256
 208              		.cfi_endproc
 209              	.LFE113:
 210              		.size	FLASH_DataCacheCmd, .-FLASH_DataCacheCmd
 211              		.align	1
 212              		.global	FLASH_InstructionCacheReset
 213              		.thumb
 214              		.thumb_func
 215              		.type	FLASH_InstructionCacheReset, %function
 216              	FLASH_InstructionCacheReset:
 217              	.LFB114:
 236:../../STM32F4-Discovery_FW_V1.1.0/Libraries/STM32F4xx_StdPeriph_Driver/src/stm32f4xx_flash.c ****   }
ARM GAS  /tmp/cc4MBWm7.s 			page 9


 237:../../STM32F4-Discovery_FW_V1.1.0/Libraries/STM32F4xx_StdPeriph_Driver/src/stm32f4xx_flash.c **** }
 238:../../STM32F4-Discovery_FW_V1.1.0/Libraries/STM32F4xx_StdPeriph_Driver/src/stm32f4xx_flash.c **** 
 239:../../STM32F4-Discovery_FW_V1.1.0/Libraries/STM32F4xx_StdPeriph_Driver/src/stm32f4xx_flash.c **** /**
 240:../../STM32F4-Discovery_FW_V1.1.0/Libraries/STM32F4xx_StdPeriph_Driver/src/stm32f4xx_flash.c ****   * @brief  Resets the Instruction Cache.
 241:../../STM32F4-Discovery_FW_V1.1.0/Libraries/STM32F4xx_StdPeriph_Driver/src/stm32f4xx_flash.c ****   * @note   This function must be used only when the Instruction Cache is disabled.  
 242:../../STM32F4-Discovery_FW_V1.1.0/Libraries/STM32F4xx_StdPeriph_Driver/src/stm32f4xx_flash.c ****   * @param  None
 243:../../STM32F4-Discovery_FW_V1.1.0/Libraries/STM32F4xx_StdPeriph_Driver/src/stm32f4xx_flash.c ****   * @retval None
 244:../../STM32F4-Discovery_FW_V1.1.0/Libraries/STM32F4xx_StdPeriph_Driver/src/stm32f4xx_flash.c ****   */
 245:../../STM32F4-Discovery_FW_V1.1.0/Libraries/STM32F4xx_StdPeriph_Driver/src/stm32f4xx_flash.c **** void FLASH_InstructionCacheReset(void)
 246:../../STM32F4-Discovery_FW_V1.1.0/Libraries/STM32F4xx_StdPeriph_Driver/src/stm32f4xx_flash.c **** {
 218              		.loc 1 246 0
 219              		.cfi_startproc
 220              		@ args = 0, pretend = 0, frame = 0
 221              		@ frame_needed = 0, uses_anonymous_args = 0
 222              		@ link register save eliminated.
 247:../../STM32F4-Discovery_FW_V1.1.0/Libraries/STM32F4xx_StdPeriph_Driver/src/stm32f4xx_flash.c ****   FLASH->ACR |= FLASH_ACR_ICRST;
 223              		.loc 1 247 0
 224 0054 024B     		ldr	r3, .L24	@ tmp136,
 225 0056 1A68     		ldr	r2, [r3, #0]	@ D.5949, MEM[(struct FLASH_TypeDef *)1073888256B].ACR
 226 0058 42F40060 		orr	r0, r2, #2048	@ D.5950, D.5949,
 227 005c 1860     		str	r0, [r3, #0]	@ D.5950, MEM[(struct FLASH_TypeDef *)1073888256B].ACR
 228 005e 7047     		bx	lr	@
 229              	.L25:
 230              		.align	2
 231              	.L24:
 232 0060 003C0240 		.word	1073888256
 233              		.cfi_endproc
 234              	.LFE114:
 235              		.size	FLASH_InstructionCacheReset, .-FLASH_InstructionCacheReset
 236              		.align	1
 237              		.global	FLASH_DataCacheReset
 238              		.thumb
 239              		.thumb_func
 240              		.type	FLASH_DataCacheReset, %function
 241              	FLASH_DataCacheReset:
 242              	.LFB115:
 248:../../STM32F4-Discovery_FW_V1.1.0/Libraries/STM32F4xx_StdPeriph_Driver/src/stm32f4xx_flash.c **** }
 249:../../STM32F4-Discovery_FW_V1.1.0/Libraries/STM32F4xx_StdPeriph_Driver/src/stm32f4xx_flash.c **** 
 250:../../STM32F4-Discovery_FW_V1.1.0/Libraries/STM32F4xx_StdPeriph_Driver/src/stm32f4xx_flash.c **** /**
 251:../../STM32F4-Discovery_FW_V1.1.0/Libraries/STM32F4xx_StdPeriph_Driver/src/stm32f4xx_flash.c ****   * @brief  Resets the Data Cache.
 252:../../STM32F4-Discovery_FW_V1.1.0/Libraries/STM32F4xx_StdPeriph_Driver/src/stm32f4xx_flash.c ****   * @note   This function must be used only when the Data Cache is disabled.  
 253:../../STM32F4-Discovery_FW_V1.1.0/Libraries/STM32F4xx_StdPeriph_Driver/src/stm32f4xx_flash.c ****   * @param  None
 254:../../STM32F4-Discovery_FW_V1.1.0/Libraries/STM32F4xx_StdPeriph_Driver/src/stm32f4xx_flash.c ****   * @retval None
 255:../../STM32F4-Discovery_FW_V1.1.0/Libraries/STM32F4xx_StdPeriph_Driver/src/stm32f4xx_flash.c ****   */
 256:../../STM32F4-Discovery_FW_V1.1.0/Libraries/STM32F4xx_StdPeriph_Driver/src/stm32f4xx_flash.c **** void FLASH_DataCacheReset(void)
 257:../../STM32F4-Discovery_FW_V1.1.0/Libraries/STM32F4xx_StdPeriph_Driver/src/stm32f4xx_flash.c **** {
 243              		.loc 1 257 0
 244              		.cfi_startproc
 245              		@ args = 0, pretend = 0, frame = 0
 246              		@ frame_needed = 0, uses_anonymous_args = 0
 247              		@ link register save eliminated.
 258:../../STM32F4-Discovery_FW_V1.1.0/Libraries/STM32F4xx_StdPeriph_Driver/src/stm32f4xx_flash.c ****   FLASH->ACR |= FLASH_ACR_DCRST;
 248              		.loc 1 258 0
 249 0064 024B     		ldr	r3, .L27	@ tmp136,
 250 0066 1A68     		ldr	r2, [r3, #0]	@ D.5946, MEM[(struct FLASH_TypeDef *)1073888256B].ACR
 251 0068 42F48050 		orr	r0, r2, #4096	@ D.5947, D.5946,
 252 006c 1860     		str	r0, [r3, #0]	@ D.5947, MEM[(struct FLASH_TypeDef *)1073888256B].ACR
ARM GAS  /tmp/cc4MBWm7.s 			page 10


 253 006e 7047     		bx	lr	@
 254              	.L28:
 255              		.align	2
 256              	.L27:
 257 0070 003C0240 		.word	1073888256
 258              		.cfi_endproc
 259              	.LFE115:
 260              		.size	FLASH_DataCacheReset, .-FLASH_DataCacheReset
 261              		.align	1
 262              		.global	FLASH_Unlock
 263              		.thumb
 264              		.thumb_func
 265              		.type	FLASH_Unlock, %function
 266              	FLASH_Unlock:
 267              	.LFB116:
 259:../../STM32F4-Discovery_FW_V1.1.0/Libraries/STM32F4xx_StdPeriph_Driver/src/stm32f4xx_flash.c **** }
 260:../../STM32F4-Discovery_FW_V1.1.0/Libraries/STM32F4xx_StdPeriph_Driver/src/stm32f4xx_flash.c **** 
 261:../../STM32F4-Discovery_FW_V1.1.0/Libraries/STM32F4xx_StdPeriph_Driver/src/stm32f4xx_flash.c **** /**
 262:../../STM32F4-Discovery_FW_V1.1.0/Libraries/STM32F4xx_StdPeriph_Driver/src/stm32f4xx_flash.c ****   * @}
 263:../../STM32F4-Discovery_FW_V1.1.0/Libraries/STM32F4xx_StdPeriph_Driver/src/stm32f4xx_flash.c ****   */
 264:../../STM32F4-Discovery_FW_V1.1.0/Libraries/STM32F4xx_StdPeriph_Driver/src/stm32f4xx_flash.c **** 
 265:../../STM32F4-Discovery_FW_V1.1.0/Libraries/STM32F4xx_StdPeriph_Driver/src/stm32f4xx_flash.c **** /** @defgroup FLASH_Group2 FLASH Memory Programming functions
 266:../../STM32F4-Discovery_FW_V1.1.0/Libraries/STM32F4xx_StdPeriph_Driver/src/stm32f4xx_flash.c ****  *  @brief   FLASH Memory Programming functions
 267:../../STM32F4-Discovery_FW_V1.1.0/Libraries/STM32F4xx_StdPeriph_Driver/src/stm32f4xx_flash.c ****  *
 268:../../STM32F4-Discovery_FW_V1.1.0/Libraries/STM32F4xx_StdPeriph_Driver/src/stm32f4xx_flash.c **** @verbatim   
 269:../../STM32F4-Discovery_FW_V1.1.0/Libraries/STM32F4xx_StdPeriph_Driver/src/stm32f4xx_flash.c ****  ===============================================================================
 270:../../STM32F4-Discovery_FW_V1.1.0/Libraries/STM32F4xx_StdPeriph_Driver/src/stm32f4xx_flash.c ****                       FLASH Memory Programming functions
 271:../../STM32F4-Discovery_FW_V1.1.0/Libraries/STM32F4xx_StdPeriph_Driver/src/stm32f4xx_flash.c ****  ===============================================================================   
 272:../../STM32F4-Discovery_FW_V1.1.0/Libraries/STM32F4xx_StdPeriph_Driver/src/stm32f4xx_flash.c **** 
 273:../../STM32F4-Discovery_FW_V1.1.0/Libraries/STM32F4xx_StdPeriph_Driver/src/stm32f4xx_flash.c ****    This group includes the following functions:
 274:../../STM32F4-Discovery_FW_V1.1.0/Libraries/STM32F4xx_StdPeriph_Driver/src/stm32f4xx_flash.c ****     - void FLASH_Unlock(void)
 275:../../STM32F4-Discovery_FW_V1.1.0/Libraries/STM32F4xx_StdPeriph_Driver/src/stm32f4xx_flash.c ****     - void FLASH_Lock(void)
 276:../../STM32F4-Discovery_FW_V1.1.0/Libraries/STM32F4xx_StdPeriph_Driver/src/stm32f4xx_flash.c ****     - FLASH_Status FLASH_EraseSector(uint32_t FLASH_Sector, uint8_t VoltageRange)
 277:../../STM32F4-Discovery_FW_V1.1.0/Libraries/STM32F4xx_StdPeriph_Driver/src/stm32f4xx_flash.c ****     - FLASH_Status FLASH_EraseAllSectors(uint8_t VoltageRange)
 278:../../STM32F4-Discovery_FW_V1.1.0/Libraries/STM32F4xx_StdPeriph_Driver/src/stm32f4xx_flash.c ****     - FLASH_Status FLASH_ProgramDoubleWord(uint32_t Address, uint64_t Data)
 279:../../STM32F4-Discovery_FW_V1.1.0/Libraries/STM32F4xx_StdPeriph_Driver/src/stm32f4xx_flash.c ****     - FLASH_Status FLASH_ProgramWord(uint32_t Address, uint32_t Data)
 280:../../STM32F4-Discovery_FW_V1.1.0/Libraries/STM32F4xx_StdPeriph_Driver/src/stm32f4xx_flash.c ****     - FLASH_Status FLASH_ProgramHalfWord(uint32_t Address, uint16_t Data)
 281:../../STM32F4-Discovery_FW_V1.1.0/Libraries/STM32F4xx_StdPeriph_Driver/src/stm32f4xx_flash.c ****     - FLASH_Status FLASH_ProgramByte(uint32_t Address, uint8_t Data)
 282:../../STM32F4-Discovery_FW_V1.1.0/Libraries/STM32F4xx_StdPeriph_Driver/src/stm32f4xx_flash.c ****    
 283:../../STM32F4-Discovery_FW_V1.1.0/Libraries/STM32F4xx_StdPeriph_Driver/src/stm32f4xx_flash.c ****    Any operation of erase or program should follow these steps:
 284:../../STM32F4-Discovery_FW_V1.1.0/Libraries/STM32F4xx_StdPeriph_Driver/src/stm32f4xx_flash.c ****    1. Call the FLASH_Unlock() function to enable the FLASH control register access
 285:../../STM32F4-Discovery_FW_V1.1.0/Libraries/STM32F4xx_StdPeriph_Driver/src/stm32f4xx_flash.c **** 
 286:../../STM32F4-Discovery_FW_V1.1.0/Libraries/STM32F4xx_StdPeriph_Driver/src/stm32f4xx_flash.c ****    2. Call the desired function to erase sector(s) or program data
 287:../../STM32F4-Discovery_FW_V1.1.0/Libraries/STM32F4xx_StdPeriph_Driver/src/stm32f4xx_flash.c **** 
 288:../../STM32F4-Discovery_FW_V1.1.0/Libraries/STM32F4xx_StdPeriph_Driver/src/stm32f4xx_flash.c ****    3. Call the FLASH_Lock() function to disable the FLASH control register access
 289:../../STM32F4-Discovery_FW_V1.1.0/Libraries/STM32F4xx_StdPeriph_Driver/src/stm32f4xx_flash.c ****       (recommended to protect the FLASH memory against possible unwanted operation)
 290:../../STM32F4-Discovery_FW_V1.1.0/Libraries/STM32F4xx_StdPeriph_Driver/src/stm32f4xx_flash.c ****     
 291:../../STM32F4-Discovery_FW_V1.1.0/Libraries/STM32F4xx_StdPeriph_Driver/src/stm32f4xx_flash.c **** @endverbatim
 292:../../STM32F4-Discovery_FW_V1.1.0/Libraries/STM32F4xx_StdPeriph_Driver/src/stm32f4xx_flash.c ****   * @{
 293:../../STM32F4-Discovery_FW_V1.1.0/Libraries/STM32F4xx_StdPeriph_Driver/src/stm32f4xx_flash.c ****   */
 294:../../STM32F4-Discovery_FW_V1.1.0/Libraries/STM32F4xx_StdPeriph_Driver/src/stm32f4xx_flash.c **** 
 295:../../STM32F4-Discovery_FW_V1.1.0/Libraries/STM32F4xx_StdPeriph_Driver/src/stm32f4xx_flash.c **** /**
 296:../../STM32F4-Discovery_FW_V1.1.0/Libraries/STM32F4xx_StdPeriph_Driver/src/stm32f4xx_flash.c ****   * @brief  Unlocks the FLASH control register access
 297:../../STM32F4-Discovery_FW_V1.1.0/Libraries/STM32F4xx_StdPeriph_Driver/src/stm32f4xx_flash.c ****   * @param  None
 298:../../STM32F4-Discovery_FW_V1.1.0/Libraries/STM32F4xx_StdPeriph_Driver/src/stm32f4xx_flash.c ****   * @retval None
 299:../../STM32F4-Discovery_FW_V1.1.0/Libraries/STM32F4xx_StdPeriph_Driver/src/stm32f4xx_flash.c ****   */
 300:../../STM32F4-Discovery_FW_V1.1.0/Libraries/STM32F4xx_StdPeriph_Driver/src/stm32f4xx_flash.c **** void FLASH_Unlock(void)
ARM GAS  /tmp/cc4MBWm7.s 			page 11


 301:../../STM32F4-Discovery_FW_V1.1.0/Libraries/STM32F4xx_StdPeriph_Driver/src/stm32f4xx_flash.c **** {
 268              		.loc 1 301 0
 269              		.cfi_startproc
 270              		@ args = 0, pretend = 0, frame = 0
 271              		@ frame_needed = 0, uses_anonymous_args = 0
 272              		@ link register save eliminated.
 302:../../STM32F4-Discovery_FW_V1.1.0/Libraries/STM32F4xx_StdPeriph_Driver/src/stm32f4xx_flash.c ****   if((FLASH->CR & FLASH_CR_LOCK) != RESET)
 273              		.loc 1 302 0
 274 0074 044B     		ldr	r3, .L31	@ tmp136,
 275 0076 1A69     		ldr	r2, [r3, #16]	@ D.5941, MEM[(struct FLASH_TypeDef *)1073888256B].CR
 276 0078 002A     		cmp	r2, #0	@ D.5941,
 277 007a 04DA     		bge	.L29	@,
 303:../../STM32F4-Discovery_FW_V1.1.0/Libraries/STM32F4xx_StdPeriph_Driver/src/stm32f4xx_flash.c ****   {
 304:../../STM32F4-Discovery_FW_V1.1.0/Libraries/STM32F4xx_StdPeriph_Driver/src/stm32f4xx_flash.c ****     /* Authorize the FLASH Registers access */
 305:../../STM32F4-Discovery_FW_V1.1.0/Libraries/STM32F4xx_StdPeriph_Driver/src/stm32f4xx_flash.c ****     FLASH->KEYR = FLASH_KEY1;
 278              		.loc 1 305 0
 279 007c 0348     		ldr	r0, .L31+4	@ tmp138,
 306:../../STM32F4-Discovery_FW_V1.1.0/Libraries/STM32F4xx_StdPeriph_Driver/src/stm32f4xx_flash.c ****     FLASH->KEYR = FLASH_KEY2;
 280              		.loc 1 306 0
 281 007e 00F18831 		add	r1, r0, #-2004318072	@ tmp140, tmp140,
 305:../../STM32F4-Discovery_FW_V1.1.0/Libraries/STM32F4xx_StdPeriph_Driver/src/stm32f4xx_flash.c ****     FLASH->KEYR = FLASH_KEY1;
 282              		.loc 1 305 0
 283 0082 5860     		str	r0, [r3, #4]	@ tmp138, MEM[(struct FLASH_TypeDef *)1073888256B].KEYR
 284              		.loc 1 306 0
 285 0084 5960     		str	r1, [r3, #4]	@ tmp140, MEM[(struct FLASH_TypeDef *)1073888256B].KEYR
 286              	.L29:
 287 0086 7047     		bx	lr	@
 288              	.L32:
 289              		.align	2
 290              	.L31:
 291 0088 003C0240 		.word	1073888256
 292 008c 23016745 		.word	1164378403
 293              		.cfi_endproc
 294              	.LFE116:
 295              		.size	FLASH_Unlock, .-FLASH_Unlock
 296              		.align	1
 297              		.global	FLASH_Lock
 298              		.thumb
 299              		.thumb_func
 300              		.type	FLASH_Lock, %function
 301              	FLASH_Lock:
 302              	.LFB117:
 307:../../STM32F4-Discovery_FW_V1.1.0/Libraries/STM32F4xx_StdPeriph_Driver/src/stm32f4xx_flash.c ****   }  
 308:../../STM32F4-Discovery_FW_V1.1.0/Libraries/STM32F4xx_StdPeriph_Driver/src/stm32f4xx_flash.c **** }
 309:../../STM32F4-Discovery_FW_V1.1.0/Libraries/STM32F4xx_StdPeriph_Driver/src/stm32f4xx_flash.c **** 
 310:../../STM32F4-Discovery_FW_V1.1.0/Libraries/STM32F4xx_StdPeriph_Driver/src/stm32f4xx_flash.c **** /**
 311:../../STM32F4-Discovery_FW_V1.1.0/Libraries/STM32F4xx_StdPeriph_Driver/src/stm32f4xx_flash.c ****   * @brief  Locks the FLASH control register access
 312:../../STM32F4-Discovery_FW_V1.1.0/Libraries/STM32F4xx_StdPeriph_Driver/src/stm32f4xx_flash.c ****   * @param  None
 313:../../STM32F4-Discovery_FW_V1.1.0/Libraries/STM32F4xx_StdPeriph_Driver/src/stm32f4xx_flash.c ****   * @retval None
 314:../../STM32F4-Discovery_FW_V1.1.0/Libraries/STM32F4xx_StdPeriph_Driver/src/stm32f4xx_flash.c ****   */
 315:../../STM32F4-Discovery_FW_V1.1.0/Libraries/STM32F4xx_StdPeriph_Driver/src/stm32f4xx_flash.c **** void FLASH_Lock(void)
 316:../../STM32F4-Discovery_FW_V1.1.0/Libraries/STM32F4xx_StdPeriph_Driver/src/stm32f4xx_flash.c **** {
 303              		.loc 1 316 0
 304              		.cfi_startproc
 305              		@ args = 0, pretend = 0, frame = 0
 306              		@ frame_needed = 0, uses_anonymous_args = 0
 307              		@ link register save eliminated.
ARM GAS  /tmp/cc4MBWm7.s 			page 12


 317:../../STM32F4-Discovery_FW_V1.1.0/Libraries/STM32F4xx_StdPeriph_Driver/src/stm32f4xx_flash.c ****   /* Set the LOCK Bit to lock the FLASH Registers access */
 318:../../STM32F4-Discovery_FW_V1.1.0/Libraries/STM32F4xx_StdPeriph_Driver/src/stm32f4xx_flash.c ****   FLASH->CR |= FLASH_CR_LOCK;
 308              		.loc 1 318 0
 309 0090 024B     		ldr	r3, .L34	@ tmp136,
 310 0092 1A69     		ldr	r2, [r3, #16]	@ D.5938, MEM[(struct FLASH_TypeDef *)1073888256B].CR
 311 0094 42F00040 		orr	r0, r2, #-2147483648	@ D.5939, D.5938,
 312 0098 1861     		str	r0, [r3, #16]	@ D.5939, MEM[(struct FLASH_TypeDef *)1073888256B].CR
 313 009a 7047     		bx	lr	@
 314              	.L35:
 315              		.align	2
 316              	.L34:
 317 009c 003C0240 		.word	1073888256
 318              		.cfi_endproc
 319              	.LFE117:
 320              		.size	FLASH_Lock, .-FLASH_Lock
 321              		.align	1
 322              		.global	FLASH_OB_Unlock
 323              		.thumb
 324              		.thumb_func
 325              		.type	FLASH_OB_Unlock, %function
 326              	FLASH_OB_Unlock:
 327              	.LFB124:
 319:../../STM32F4-Discovery_FW_V1.1.0/Libraries/STM32F4xx_StdPeriph_Driver/src/stm32f4xx_flash.c **** }
 320:../../STM32F4-Discovery_FW_V1.1.0/Libraries/STM32F4xx_StdPeriph_Driver/src/stm32f4xx_flash.c **** 
 321:../../STM32F4-Discovery_FW_V1.1.0/Libraries/STM32F4xx_StdPeriph_Driver/src/stm32f4xx_flash.c **** /**
 322:../../STM32F4-Discovery_FW_V1.1.0/Libraries/STM32F4xx_StdPeriph_Driver/src/stm32f4xx_flash.c ****   * @brief  Erases a specified FLASH Sector.
 323:../../STM32F4-Discovery_FW_V1.1.0/Libraries/STM32F4xx_StdPeriph_Driver/src/stm32f4xx_flash.c ****   *   
 324:../../STM32F4-Discovery_FW_V1.1.0/Libraries/STM32F4xx_StdPeriph_Driver/src/stm32f4xx_flash.c ****   * @param  FLASH_Sector: The Sector number to be erased.
 325:../../STM32F4-Discovery_FW_V1.1.0/Libraries/STM32F4xx_StdPeriph_Driver/src/stm32f4xx_flash.c ****   *          This parameter can be a value between FLASH_Sector_0 and FLASH_Sector_11
 326:../../STM32F4-Discovery_FW_V1.1.0/Libraries/STM32F4xx_StdPeriph_Driver/src/stm32f4xx_flash.c ****   *    
 327:../../STM32F4-Discovery_FW_V1.1.0/Libraries/STM32F4xx_StdPeriph_Driver/src/stm32f4xx_flash.c ****   * @param  VoltageRange: The device voltage range which defines the erase parallelism.  
 328:../../STM32F4-Discovery_FW_V1.1.0/Libraries/STM32F4xx_StdPeriph_Driver/src/stm32f4xx_flash.c ****   *          This parameter can be one of the following values:
 329:../../STM32F4-Discovery_FW_V1.1.0/Libraries/STM32F4xx_StdPeriph_Driver/src/stm32f4xx_flash.c ****   *            @arg VoltageRange_1: when the device voltage range is 1.8V to 2.1V, 
 330:../../STM32F4-Discovery_FW_V1.1.0/Libraries/STM32F4xx_StdPeriph_Driver/src/stm32f4xx_flash.c ****   *                                  the operation will be done by byte (8-bit) 
 331:../../STM32F4-Discovery_FW_V1.1.0/Libraries/STM32F4xx_StdPeriph_Driver/src/stm32f4xx_flash.c ****   *            @arg VoltageRange_2: when the device voltage range is 2.1V to 2.7V,
 332:../../STM32F4-Discovery_FW_V1.1.0/Libraries/STM32F4xx_StdPeriph_Driver/src/stm32f4xx_flash.c ****   *                                  the operation will be done by half word (16-bit)
 333:../../STM32F4-Discovery_FW_V1.1.0/Libraries/STM32F4xx_StdPeriph_Driver/src/stm32f4xx_flash.c ****   *            @arg VoltageRange_3: when the device voltage range is 2.7V to 3.6V,
 334:../../STM32F4-Discovery_FW_V1.1.0/Libraries/STM32F4xx_StdPeriph_Driver/src/stm32f4xx_flash.c ****   *                                  the operation will be done by word (32-bit)
 335:../../STM32F4-Discovery_FW_V1.1.0/Libraries/STM32F4xx_StdPeriph_Driver/src/stm32f4xx_flash.c ****   *            @arg VoltageRange_4: when the device voltage range is 2.7V to 3.6V + External Vpp, 
 336:../../STM32F4-Discovery_FW_V1.1.0/Libraries/STM32F4xx_StdPeriph_Driver/src/stm32f4xx_flash.c ****   *                                  the operation will be done by double word (64-bit)
 337:../../STM32F4-Discovery_FW_V1.1.0/Libraries/STM32F4xx_StdPeriph_Driver/src/stm32f4xx_flash.c ****   *       
 338:../../STM32F4-Discovery_FW_V1.1.0/Libraries/STM32F4xx_StdPeriph_Driver/src/stm32f4xx_flash.c ****   * @retval FLASH Status: The returned value can be: FLASH_BUSY, FLASH_ERROR_PROGRAM,
 339:../../STM32F4-Discovery_FW_V1.1.0/Libraries/STM32F4xx_StdPeriph_Driver/src/stm32f4xx_flash.c ****   *                       FLASH_ERROR_WRP, FLASH_ERROR_OPERATION or FLASH_COMPLETE.
 340:../../STM32F4-Discovery_FW_V1.1.0/Libraries/STM32F4xx_StdPeriph_Driver/src/stm32f4xx_flash.c ****   */
 341:../../STM32F4-Discovery_FW_V1.1.0/Libraries/STM32F4xx_StdPeriph_Driver/src/stm32f4xx_flash.c **** FLASH_Status FLASH_EraseSector(uint32_t FLASH_Sector, uint8_t VoltageRange)
 342:../../STM32F4-Discovery_FW_V1.1.0/Libraries/STM32F4xx_StdPeriph_Driver/src/stm32f4xx_flash.c **** {
 343:../../STM32F4-Discovery_FW_V1.1.0/Libraries/STM32F4xx_StdPeriph_Driver/src/stm32f4xx_flash.c ****   uint32_t tmp_psize = 0x0;
 344:../../STM32F4-Discovery_FW_V1.1.0/Libraries/STM32F4xx_StdPeriph_Driver/src/stm32f4xx_flash.c ****   FLASH_Status status = FLASH_COMPLETE;
 345:../../STM32F4-Discovery_FW_V1.1.0/Libraries/STM32F4xx_StdPeriph_Driver/src/stm32f4xx_flash.c **** 
 346:../../STM32F4-Discovery_FW_V1.1.0/Libraries/STM32F4xx_StdPeriph_Driver/src/stm32f4xx_flash.c ****   /* Check the parameters */
 347:../../STM32F4-Discovery_FW_V1.1.0/Libraries/STM32F4xx_StdPeriph_Driver/src/stm32f4xx_flash.c ****   assert_param(IS_FLASH_SECTOR(FLASH_Sector));
 348:../../STM32F4-Discovery_FW_V1.1.0/Libraries/STM32F4xx_StdPeriph_Driver/src/stm32f4xx_flash.c ****   assert_param(IS_VOLTAGERANGE(VoltageRange));
 349:../../STM32F4-Discovery_FW_V1.1.0/Libraries/STM32F4xx_StdPeriph_Driver/src/stm32f4xx_flash.c ****   
 350:../../STM32F4-Discovery_FW_V1.1.0/Libraries/STM32F4xx_StdPeriph_Driver/src/stm32f4xx_flash.c ****   if(VoltageRange == VoltageRange_1)
 351:../../STM32F4-Discovery_FW_V1.1.0/Libraries/STM32F4xx_StdPeriph_Driver/src/stm32f4xx_flash.c ****   {
 352:../../STM32F4-Discovery_FW_V1.1.0/Libraries/STM32F4xx_StdPeriph_Driver/src/stm32f4xx_flash.c ****      tmp_psize = FLASH_PSIZE_BYTE;
 353:../../STM32F4-Discovery_FW_V1.1.0/Libraries/STM32F4xx_StdPeriph_Driver/src/stm32f4xx_flash.c ****   }
ARM GAS  /tmp/cc4MBWm7.s 			page 13


 354:../../STM32F4-Discovery_FW_V1.1.0/Libraries/STM32F4xx_StdPeriph_Driver/src/stm32f4xx_flash.c ****   else if(VoltageRange == VoltageRange_2)
 355:../../STM32F4-Discovery_FW_V1.1.0/Libraries/STM32F4xx_StdPeriph_Driver/src/stm32f4xx_flash.c ****   {
 356:../../STM32F4-Discovery_FW_V1.1.0/Libraries/STM32F4xx_StdPeriph_Driver/src/stm32f4xx_flash.c ****     tmp_psize = FLASH_PSIZE_HALF_WORD;
 357:../../STM32F4-Discovery_FW_V1.1.0/Libraries/STM32F4xx_StdPeriph_Driver/src/stm32f4xx_flash.c ****   }
 358:../../STM32F4-Discovery_FW_V1.1.0/Libraries/STM32F4xx_StdPeriph_Driver/src/stm32f4xx_flash.c ****   else if(VoltageRange == VoltageRange_3)
 359:../../STM32F4-Discovery_FW_V1.1.0/Libraries/STM32F4xx_StdPeriph_Driver/src/stm32f4xx_flash.c ****   {
 360:../../STM32F4-Discovery_FW_V1.1.0/Libraries/STM32F4xx_StdPeriph_Driver/src/stm32f4xx_flash.c ****     tmp_psize = FLASH_PSIZE_WORD;
 361:../../STM32F4-Discovery_FW_V1.1.0/Libraries/STM32F4xx_StdPeriph_Driver/src/stm32f4xx_flash.c ****   }
 362:../../STM32F4-Discovery_FW_V1.1.0/Libraries/STM32F4xx_StdPeriph_Driver/src/stm32f4xx_flash.c ****   else
 363:../../STM32F4-Discovery_FW_V1.1.0/Libraries/STM32F4xx_StdPeriph_Driver/src/stm32f4xx_flash.c ****   {
 364:../../STM32F4-Discovery_FW_V1.1.0/Libraries/STM32F4xx_StdPeriph_Driver/src/stm32f4xx_flash.c ****     tmp_psize = FLASH_PSIZE_DOUBLE_WORD;
 365:../../STM32F4-Discovery_FW_V1.1.0/Libraries/STM32F4xx_StdPeriph_Driver/src/stm32f4xx_flash.c ****   }
 366:../../STM32F4-Discovery_FW_V1.1.0/Libraries/STM32F4xx_StdPeriph_Driver/src/stm32f4xx_flash.c ****   /* Wait for last operation to be completed */
 367:../../STM32F4-Discovery_FW_V1.1.0/Libraries/STM32F4xx_StdPeriph_Driver/src/stm32f4xx_flash.c ****   status = FLASH_WaitForLastOperation();
 368:../../STM32F4-Discovery_FW_V1.1.0/Libraries/STM32F4xx_StdPeriph_Driver/src/stm32f4xx_flash.c ****   
 369:../../STM32F4-Discovery_FW_V1.1.0/Libraries/STM32F4xx_StdPeriph_Driver/src/stm32f4xx_flash.c ****   if(status == FLASH_COMPLETE)
 370:../../STM32F4-Discovery_FW_V1.1.0/Libraries/STM32F4xx_StdPeriph_Driver/src/stm32f4xx_flash.c ****   { 
 371:../../STM32F4-Discovery_FW_V1.1.0/Libraries/STM32F4xx_StdPeriph_Driver/src/stm32f4xx_flash.c ****     /* if the previous operation is completed, proceed to erase the sector */
 372:../../STM32F4-Discovery_FW_V1.1.0/Libraries/STM32F4xx_StdPeriph_Driver/src/stm32f4xx_flash.c ****     FLASH->CR &= CR_PSIZE_MASK;
 373:../../STM32F4-Discovery_FW_V1.1.0/Libraries/STM32F4xx_StdPeriph_Driver/src/stm32f4xx_flash.c ****     FLASH->CR |= tmp_psize;
 374:../../STM32F4-Discovery_FW_V1.1.0/Libraries/STM32F4xx_StdPeriph_Driver/src/stm32f4xx_flash.c ****     FLASH->CR &= SECTOR_MASK;
 375:../../STM32F4-Discovery_FW_V1.1.0/Libraries/STM32F4xx_StdPeriph_Driver/src/stm32f4xx_flash.c ****     FLASH->CR |= FLASH_CR_SER | FLASH_Sector;
 376:../../STM32F4-Discovery_FW_V1.1.0/Libraries/STM32F4xx_StdPeriph_Driver/src/stm32f4xx_flash.c ****     FLASH->CR |= FLASH_CR_STRT;
 377:../../STM32F4-Discovery_FW_V1.1.0/Libraries/STM32F4xx_StdPeriph_Driver/src/stm32f4xx_flash.c ****     
 378:../../STM32F4-Discovery_FW_V1.1.0/Libraries/STM32F4xx_StdPeriph_Driver/src/stm32f4xx_flash.c ****     /* Wait for last operation to be completed */
 379:../../STM32F4-Discovery_FW_V1.1.0/Libraries/STM32F4xx_StdPeriph_Driver/src/stm32f4xx_flash.c ****     status = FLASH_WaitForLastOperation();
 380:../../STM32F4-Discovery_FW_V1.1.0/Libraries/STM32F4xx_StdPeriph_Driver/src/stm32f4xx_flash.c ****     
 381:../../STM32F4-Discovery_FW_V1.1.0/Libraries/STM32F4xx_StdPeriph_Driver/src/stm32f4xx_flash.c ****     /* if the erase operation is completed, disable the SER Bit */
 382:../../STM32F4-Discovery_FW_V1.1.0/Libraries/STM32F4xx_StdPeriph_Driver/src/stm32f4xx_flash.c ****     FLASH->CR &= (~FLASH_CR_SER);
 383:../../STM32F4-Discovery_FW_V1.1.0/Libraries/STM32F4xx_StdPeriph_Driver/src/stm32f4xx_flash.c ****     FLASH->CR &= SECTOR_MASK; 
 384:../../STM32F4-Discovery_FW_V1.1.0/Libraries/STM32F4xx_StdPeriph_Driver/src/stm32f4xx_flash.c ****   }
 385:../../STM32F4-Discovery_FW_V1.1.0/Libraries/STM32F4xx_StdPeriph_Driver/src/stm32f4xx_flash.c ****   /* Return the Erase Status */
 386:../../STM32F4-Discovery_FW_V1.1.0/Libraries/STM32F4xx_StdPeriph_Driver/src/stm32f4xx_flash.c ****   return status;
 387:../../STM32F4-Discovery_FW_V1.1.0/Libraries/STM32F4xx_StdPeriph_Driver/src/stm32f4xx_flash.c **** }
 388:../../STM32F4-Discovery_FW_V1.1.0/Libraries/STM32F4xx_StdPeriph_Driver/src/stm32f4xx_flash.c **** 
 389:../../STM32F4-Discovery_FW_V1.1.0/Libraries/STM32F4xx_StdPeriph_Driver/src/stm32f4xx_flash.c **** /**
 390:../../STM32F4-Discovery_FW_V1.1.0/Libraries/STM32F4xx_StdPeriph_Driver/src/stm32f4xx_flash.c ****   * @brief  Erases all FLASH Sectors.
 391:../../STM32F4-Discovery_FW_V1.1.0/Libraries/STM32F4xx_StdPeriph_Driver/src/stm32f4xx_flash.c ****   *    
 392:../../STM32F4-Discovery_FW_V1.1.0/Libraries/STM32F4xx_StdPeriph_Driver/src/stm32f4xx_flash.c ****   * @param  VoltageRange: The device voltage range which defines the erase parallelism.  
 393:../../STM32F4-Discovery_FW_V1.1.0/Libraries/STM32F4xx_StdPeriph_Driver/src/stm32f4xx_flash.c ****   *          This parameter can be one of the following values:
 394:../../STM32F4-Discovery_FW_V1.1.0/Libraries/STM32F4xx_StdPeriph_Driver/src/stm32f4xx_flash.c ****   *            @arg VoltageRange_1: when the device voltage range is 1.8V to 2.1V, 
 395:../../STM32F4-Discovery_FW_V1.1.0/Libraries/STM32F4xx_StdPeriph_Driver/src/stm32f4xx_flash.c ****   *                                  the operation will be done by byte (8-bit) 
 396:../../STM32F4-Discovery_FW_V1.1.0/Libraries/STM32F4xx_StdPeriph_Driver/src/stm32f4xx_flash.c ****   *            @arg VoltageRange_2: when the device voltage range is 2.1V to 2.7V,
 397:../../STM32F4-Discovery_FW_V1.1.0/Libraries/STM32F4xx_StdPeriph_Driver/src/stm32f4xx_flash.c ****   *                                  the operation will be done by half word (16-bit)
 398:../../STM32F4-Discovery_FW_V1.1.0/Libraries/STM32F4xx_StdPeriph_Driver/src/stm32f4xx_flash.c ****   *            @arg VoltageRange_3: when the device voltage range is 2.7V to 3.6V,
 399:../../STM32F4-Discovery_FW_V1.1.0/Libraries/STM32F4xx_StdPeriph_Driver/src/stm32f4xx_flash.c ****   *                                  the operation will be done by word (32-bit)
 400:../../STM32F4-Discovery_FW_V1.1.0/Libraries/STM32F4xx_StdPeriph_Driver/src/stm32f4xx_flash.c ****   *            @arg VoltageRange_4: when the device voltage range is 2.7V to 3.6V + External Vpp, 
 401:../../STM32F4-Discovery_FW_V1.1.0/Libraries/STM32F4xx_StdPeriph_Driver/src/stm32f4xx_flash.c ****   *                                  the operation will be done by double word (64-bit)
 402:../../STM32F4-Discovery_FW_V1.1.0/Libraries/STM32F4xx_StdPeriph_Driver/src/stm32f4xx_flash.c ****   *       
 403:../../STM32F4-Discovery_FW_V1.1.0/Libraries/STM32F4xx_StdPeriph_Driver/src/stm32f4xx_flash.c ****   * @retval FLASH Status: The returned value can be: FLASH_BUSY, FLASH_ERROR_PROGRAM,
 404:../../STM32F4-Discovery_FW_V1.1.0/Libraries/STM32F4xx_StdPeriph_Driver/src/stm32f4xx_flash.c ****   *                       FLASH_ERROR_WRP, FLASH_ERROR_OPERATION or FLASH_COMPLETE.
 405:../../STM32F4-Discovery_FW_V1.1.0/Libraries/STM32F4xx_StdPeriph_Driver/src/stm32f4xx_flash.c ****   */
 406:../../STM32F4-Discovery_FW_V1.1.0/Libraries/STM32F4xx_StdPeriph_Driver/src/stm32f4xx_flash.c **** FLASH_Status FLASH_EraseAllSectors(uint8_t VoltageRange)
 407:../../STM32F4-Discovery_FW_V1.1.0/Libraries/STM32F4xx_StdPeriph_Driver/src/stm32f4xx_flash.c **** {
 408:../../STM32F4-Discovery_FW_V1.1.0/Libraries/STM32F4xx_StdPeriph_Driver/src/stm32f4xx_flash.c ****   uint32_t tmp_psize = 0x0;
 409:../../STM32F4-Discovery_FW_V1.1.0/Libraries/STM32F4xx_StdPeriph_Driver/src/stm32f4xx_flash.c ****   FLASH_Status status = FLASH_COMPLETE;
 410:../../STM32F4-Discovery_FW_V1.1.0/Libraries/STM32F4xx_StdPeriph_Driver/src/stm32f4xx_flash.c ****   
ARM GAS  /tmp/cc4MBWm7.s 			page 14


 411:../../STM32F4-Discovery_FW_V1.1.0/Libraries/STM32F4xx_StdPeriph_Driver/src/stm32f4xx_flash.c ****   /* Wait for last operation to be completed */
 412:../../STM32F4-Discovery_FW_V1.1.0/Libraries/STM32F4xx_StdPeriph_Driver/src/stm32f4xx_flash.c ****   status = FLASH_WaitForLastOperation();
 413:../../STM32F4-Discovery_FW_V1.1.0/Libraries/STM32F4xx_StdPeriph_Driver/src/stm32f4xx_flash.c ****   assert_param(IS_VOLTAGERANGE(VoltageRange));
 414:../../STM32F4-Discovery_FW_V1.1.0/Libraries/STM32F4xx_StdPeriph_Driver/src/stm32f4xx_flash.c ****   
 415:../../STM32F4-Discovery_FW_V1.1.0/Libraries/STM32F4xx_StdPeriph_Driver/src/stm32f4xx_flash.c ****   if(VoltageRange == VoltageRange_1)
 416:../../STM32F4-Discovery_FW_V1.1.0/Libraries/STM32F4xx_StdPeriph_Driver/src/stm32f4xx_flash.c ****   {
 417:../../STM32F4-Discovery_FW_V1.1.0/Libraries/STM32F4xx_StdPeriph_Driver/src/stm32f4xx_flash.c ****      tmp_psize = FLASH_PSIZE_BYTE;
 418:../../STM32F4-Discovery_FW_V1.1.0/Libraries/STM32F4xx_StdPeriph_Driver/src/stm32f4xx_flash.c ****   }
 419:../../STM32F4-Discovery_FW_V1.1.0/Libraries/STM32F4xx_StdPeriph_Driver/src/stm32f4xx_flash.c ****   else if(VoltageRange == VoltageRange_2)
 420:../../STM32F4-Discovery_FW_V1.1.0/Libraries/STM32F4xx_StdPeriph_Driver/src/stm32f4xx_flash.c ****   {
 421:../../STM32F4-Discovery_FW_V1.1.0/Libraries/STM32F4xx_StdPeriph_Driver/src/stm32f4xx_flash.c ****     tmp_psize = FLASH_PSIZE_HALF_WORD;
 422:../../STM32F4-Discovery_FW_V1.1.0/Libraries/STM32F4xx_StdPeriph_Driver/src/stm32f4xx_flash.c ****   }
 423:../../STM32F4-Discovery_FW_V1.1.0/Libraries/STM32F4xx_StdPeriph_Driver/src/stm32f4xx_flash.c ****   else if(VoltageRange == VoltageRange_3)
 424:../../STM32F4-Discovery_FW_V1.1.0/Libraries/STM32F4xx_StdPeriph_Driver/src/stm32f4xx_flash.c ****   {
 425:../../STM32F4-Discovery_FW_V1.1.0/Libraries/STM32F4xx_StdPeriph_Driver/src/stm32f4xx_flash.c ****     tmp_psize = FLASH_PSIZE_WORD;
 426:../../STM32F4-Discovery_FW_V1.1.0/Libraries/STM32F4xx_StdPeriph_Driver/src/stm32f4xx_flash.c ****   }
 427:../../STM32F4-Discovery_FW_V1.1.0/Libraries/STM32F4xx_StdPeriph_Driver/src/stm32f4xx_flash.c ****   else
 428:../../STM32F4-Discovery_FW_V1.1.0/Libraries/STM32F4xx_StdPeriph_Driver/src/stm32f4xx_flash.c ****   {
 429:../../STM32F4-Discovery_FW_V1.1.0/Libraries/STM32F4xx_StdPeriph_Driver/src/stm32f4xx_flash.c ****     tmp_psize = FLASH_PSIZE_DOUBLE_WORD;
 430:../../STM32F4-Discovery_FW_V1.1.0/Libraries/STM32F4xx_StdPeriph_Driver/src/stm32f4xx_flash.c ****   }  
 431:../../STM32F4-Discovery_FW_V1.1.0/Libraries/STM32F4xx_StdPeriph_Driver/src/stm32f4xx_flash.c ****   if(status == FLASH_COMPLETE)
 432:../../STM32F4-Discovery_FW_V1.1.0/Libraries/STM32F4xx_StdPeriph_Driver/src/stm32f4xx_flash.c ****   {
 433:../../STM32F4-Discovery_FW_V1.1.0/Libraries/STM32F4xx_StdPeriph_Driver/src/stm32f4xx_flash.c ****     /* if the previous operation is completed, proceed to erase all sectors */
 434:../../STM32F4-Discovery_FW_V1.1.0/Libraries/STM32F4xx_StdPeriph_Driver/src/stm32f4xx_flash.c ****      FLASH->CR &= CR_PSIZE_MASK;
 435:../../STM32F4-Discovery_FW_V1.1.0/Libraries/STM32F4xx_StdPeriph_Driver/src/stm32f4xx_flash.c ****      FLASH->CR |= tmp_psize;
 436:../../STM32F4-Discovery_FW_V1.1.0/Libraries/STM32F4xx_StdPeriph_Driver/src/stm32f4xx_flash.c ****      FLASH->CR |= FLASH_CR_MER;
 437:../../STM32F4-Discovery_FW_V1.1.0/Libraries/STM32F4xx_StdPeriph_Driver/src/stm32f4xx_flash.c ****      FLASH->CR |= FLASH_CR_STRT;
 438:../../STM32F4-Discovery_FW_V1.1.0/Libraries/STM32F4xx_StdPeriph_Driver/src/stm32f4xx_flash.c ****     
 439:../../STM32F4-Discovery_FW_V1.1.0/Libraries/STM32F4xx_StdPeriph_Driver/src/stm32f4xx_flash.c ****     /* Wait for last operation to be completed */
 440:../../STM32F4-Discovery_FW_V1.1.0/Libraries/STM32F4xx_StdPeriph_Driver/src/stm32f4xx_flash.c ****     status = FLASH_WaitForLastOperation();
 441:../../STM32F4-Discovery_FW_V1.1.0/Libraries/STM32F4xx_StdPeriph_Driver/src/stm32f4xx_flash.c **** 
 442:../../STM32F4-Discovery_FW_V1.1.0/Libraries/STM32F4xx_StdPeriph_Driver/src/stm32f4xx_flash.c ****     /* if the erase operation is completed, disable the MER Bit */
 443:../../STM32F4-Discovery_FW_V1.1.0/Libraries/STM32F4xx_StdPeriph_Driver/src/stm32f4xx_flash.c ****     FLASH->CR &= (~FLASH_CR_MER);
 444:../../STM32F4-Discovery_FW_V1.1.0/Libraries/STM32F4xx_StdPeriph_Driver/src/stm32f4xx_flash.c **** 
 445:../../STM32F4-Discovery_FW_V1.1.0/Libraries/STM32F4xx_StdPeriph_Driver/src/stm32f4xx_flash.c ****   }   
 446:../../STM32F4-Discovery_FW_V1.1.0/Libraries/STM32F4xx_StdPeriph_Driver/src/stm32f4xx_flash.c ****   /* Return the Erase Status */
 447:../../STM32F4-Discovery_FW_V1.1.0/Libraries/STM32F4xx_StdPeriph_Driver/src/stm32f4xx_flash.c ****   return status;
 448:../../STM32F4-Discovery_FW_V1.1.0/Libraries/STM32F4xx_StdPeriph_Driver/src/stm32f4xx_flash.c **** }
 449:../../STM32F4-Discovery_FW_V1.1.0/Libraries/STM32F4xx_StdPeriph_Driver/src/stm32f4xx_flash.c **** 
 450:../../STM32F4-Discovery_FW_V1.1.0/Libraries/STM32F4xx_StdPeriph_Driver/src/stm32f4xx_flash.c **** /**
 451:../../STM32F4-Discovery_FW_V1.1.0/Libraries/STM32F4xx_StdPeriph_Driver/src/stm32f4xx_flash.c ****   * @brief  Programs a double word (64-bit) at a specified address.
 452:../../STM32F4-Discovery_FW_V1.1.0/Libraries/STM32F4xx_StdPeriph_Driver/src/stm32f4xx_flash.c ****   * @note   This function must be used when the device voltage range is from
 453:../../STM32F4-Discovery_FW_V1.1.0/Libraries/STM32F4xx_StdPeriph_Driver/src/stm32f4xx_flash.c ****   *         2.7V to 3.6V and an External Vpp is present.           
 454:../../STM32F4-Discovery_FW_V1.1.0/Libraries/STM32F4xx_StdPeriph_Driver/src/stm32f4xx_flash.c ****   * @param  Address: specifies the address to be programmed.
 455:../../STM32F4-Discovery_FW_V1.1.0/Libraries/STM32F4xx_StdPeriph_Driver/src/stm32f4xx_flash.c ****   * @param  Data: specifies the data to be programmed.
 456:../../STM32F4-Discovery_FW_V1.1.0/Libraries/STM32F4xx_StdPeriph_Driver/src/stm32f4xx_flash.c ****   * @retval FLASH Status: The returned value can be: FLASH_BUSY, FLASH_ERROR_PROGRAM,
 457:../../STM32F4-Discovery_FW_V1.1.0/Libraries/STM32F4xx_StdPeriph_Driver/src/stm32f4xx_flash.c ****   *                       FLASH_ERROR_WRP, FLASH_ERROR_OPERATION or FLASH_COMPLETE.
 458:../../STM32F4-Discovery_FW_V1.1.0/Libraries/STM32F4xx_StdPeriph_Driver/src/stm32f4xx_flash.c ****   */
 459:../../STM32F4-Discovery_FW_V1.1.0/Libraries/STM32F4xx_StdPeriph_Driver/src/stm32f4xx_flash.c **** FLASH_Status FLASH_ProgramDoubleWord(uint32_t Address, uint64_t Data)
 460:../../STM32F4-Discovery_FW_V1.1.0/Libraries/STM32F4xx_StdPeriph_Driver/src/stm32f4xx_flash.c **** {
 461:../../STM32F4-Discovery_FW_V1.1.0/Libraries/STM32F4xx_StdPeriph_Driver/src/stm32f4xx_flash.c ****   FLASH_Status status = FLASH_COMPLETE;
 462:../../STM32F4-Discovery_FW_V1.1.0/Libraries/STM32F4xx_StdPeriph_Driver/src/stm32f4xx_flash.c **** 
 463:../../STM32F4-Discovery_FW_V1.1.0/Libraries/STM32F4xx_StdPeriph_Driver/src/stm32f4xx_flash.c ****   /* Check the parameters */
 464:../../STM32F4-Discovery_FW_V1.1.0/Libraries/STM32F4xx_StdPeriph_Driver/src/stm32f4xx_flash.c ****   assert_param(IS_FLASH_ADDRESS(Address));
 465:../../STM32F4-Discovery_FW_V1.1.0/Libraries/STM32F4xx_StdPeriph_Driver/src/stm32f4xx_flash.c **** 
 466:../../STM32F4-Discovery_FW_V1.1.0/Libraries/STM32F4xx_StdPeriph_Driver/src/stm32f4xx_flash.c ****   /* Wait for last operation to be completed */
 467:../../STM32F4-Discovery_FW_V1.1.0/Libraries/STM32F4xx_StdPeriph_Driver/src/stm32f4xx_flash.c ****   status = FLASH_WaitForLastOperation();
ARM GAS  /tmp/cc4MBWm7.s 			page 15


 468:../../STM32F4-Discovery_FW_V1.1.0/Libraries/STM32F4xx_StdPeriph_Driver/src/stm32f4xx_flash.c ****   
 469:../../STM32F4-Discovery_FW_V1.1.0/Libraries/STM32F4xx_StdPeriph_Driver/src/stm32f4xx_flash.c ****   if(status == FLASH_COMPLETE)
 470:../../STM32F4-Discovery_FW_V1.1.0/Libraries/STM32F4xx_StdPeriph_Driver/src/stm32f4xx_flash.c ****   {
 471:../../STM32F4-Discovery_FW_V1.1.0/Libraries/STM32F4xx_StdPeriph_Driver/src/stm32f4xx_flash.c ****     /* if the previous operation is completed, proceed to program the new data */
 472:../../STM32F4-Discovery_FW_V1.1.0/Libraries/STM32F4xx_StdPeriph_Driver/src/stm32f4xx_flash.c ****     FLASH->CR &= CR_PSIZE_MASK;
 473:../../STM32F4-Discovery_FW_V1.1.0/Libraries/STM32F4xx_StdPeriph_Driver/src/stm32f4xx_flash.c ****     FLASH->CR |= FLASH_PSIZE_DOUBLE_WORD;
 474:../../STM32F4-Discovery_FW_V1.1.0/Libraries/STM32F4xx_StdPeriph_Driver/src/stm32f4xx_flash.c ****     FLASH->CR |= FLASH_CR_PG;
 475:../../STM32F4-Discovery_FW_V1.1.0/Libraries/STM32F4xx_StdPeriph_Driver/src/stm32f4xx_flash.c ****   
 476:../../STM32F4-Discovery_FW_V1.1.0/Libraries/STM32F4xx_StdPeriph_Driver/src/stm32f4xx_flash.c ****     *(__IO uint64_t*)Address = Data;
 477:../../STM32F4-Discovery_FW_V1.1.0/Libraries/STM32F4xx_StdPeriph_Driver/src/stm32f4xx_flash.c ****         
 478:../../STM32F4-Discovery_FW_V1.1.0/Libraries/STM32F4xx_StdPeriph_Driver/src/stm32f4xx_flash.c ****     /* Wait for last operation to be completed */
 479:../../STM32F4-Discovery_FW_V1.1.0/Libraries/STM32F4xx_StdPeriph_Driver/src/stm32f4xx_flash.c ****     status = FLASH_WaitForLastOperation();
 480:../../STM32F4-Discovery_FW_V1.1.0/Libraries/STM32F4xx_StdPeriph_Driver/src/stm32f4xx_flash.c **** 
 481:../../STM32F4-Discovery_FW_V1.1.0/Libraries/STM32F4xx_StdPeriph_Driver/src/stm32f4xx_flash.c ****     /* if the program operation is completed, disable the PG Bit */
 482:../../STM32F4-Discovery_FW_V1.1.0/Libraries/STM32F4xx_StdPeriph_Driver/src/stm32f4xx_flash.c ****     FLASH->CR &= (~FLASH_CR_PG);
 483:../../STM32F4-Discovery_FW_V1.1.0/Libraries/STM32F4xx_StdPeriph_Driver/src/stm32f4xx_flash.c ****   } 
 484:../../STM32F4-Discovery_FW_V1.1.0/Libraries/STM32F4xx_StdPeriph_Driver/src/stm32f4xx_flash.c ****   /* Return the Program Status */
 485:../../STM32F4-Discovery_FW_V1.1.0/Libraries/STM32F4xx_StdPeriph_Driver/src/stm32f4xx_flash.c ****   return status;
 486:../../STM32F4-Discovery_FW_V1.1.0/Libraries/STM32F4xx_StdPeriph_Driver/src/stm32f4xx_flash.c **** }
 487:../../STM32F4-Discovery_FW_V1.1.0/Libraries/STM32F4xx_StdPeriph_Driver/src/stm32f4xx_flash.c **** 
 488:../../STM32F4-Discovery_FW_V1.1.0/Libraries/STM32F4xx_StdPeriph_Driver/src/stm32f4xx_flash.c **** /**
 489:../../STM32F4-Discovery_FW_V1.1.0/Libraries/STM32F4xx_StdPeriph_Driver/src/stm32f4xx_flash.c ****   * @brief  Programs a word (32-bit) at a specified address.
 490:../../STM32F4-Discovery_FW_V1.1.0/Libraries/STM32F4xx_StdPeriph_Driver/src/stm32f4xx_flash.c ****   * @param  Address: specifies the address to be programmed.
 491:../../STM32F4-Discovery_FW_V1.1.0/Libraries/STM32F4xx_StdPeriph_Driver/src/stm32f4xx_flash.c ****   *         This parameter can be any address in Program memory zone or in OTP zone.  
 492:../../STM32F4-Discovery_FW_V1.1.0/Libraries/STM32F4xx_StdPeriph_Driver/src/stm32f4xx_flash.c ****   * @note   This function must be used when the device voltage range is from 2.7V to 3.6V. 
 493:../../STM32F4-Discovery_FW_V1.1.0/Libraries/STM32F4xx_StdPeriph_Driver/src/stm32f4xx_flash.c ****   * @param  Data: specifies the data to be programmed.
 494:../../STM32F4-Discovery_FW_V1.1.0/Libraries/STM32F4xx_StdPeriph_Driver/src/stm32f4xx_flash.c ****   * @retval FLASH Status: The returned value can be: FLASH_BUSY, FLASH_ERROR_PROGRAM,
 495:../../STM32F4-Discovery_FW_V1.1.0/Libraries/STM32F4xx_StdPeriph_Driver/src/stm32f4xx_flash.c ****   *                       FLASH_ERROR_WRP, FLASH_ERROR_OPERATION or FLASH_COMPLETE.
 496:../../STM32F4-Discovery_FW_V1.1.0/Libraries/STM32F4xx_StdPeriph_Driver/src/stm32f4xx_flash.c ****   */
 497:../../STM32F4-Discovery_FW_V1.1.0/Libraries/STM32F4xx_StdPeriph_Driver/src/stm32f4xx_flash.c **** FLASH_Status FLASH_ProgramWord(uint32_t Address, uint32_t Data)
 498:../../STM32F4-Discovery_FW_V1.1.0/Libraries/STM32F4xx_StdPeriph_Driver/src/stm32f4xx_flash.c **** {
 499:../../STM32F4-Discovery_FW_V1.1.0/Libraries/STM32F4xx_StdPeriph_Driver/src/stm32f4xx_flash.c ****   FLASH_Status status = FLASH_COMPLETE;
 500:../../STM32F4-Discovery_FW_V1.1.0/Libraries/STM32F4xx_StdPeriph_Driver/src/stm32f4xx_flash.c **** 
 501:../../STM32F4-Discovery_FW_V1.1.0/Libraries/STM32F4xx_StdPeriph_Driver/src/stm32f4xx_flash.c ****   /* Check the parameters */
 502:../../STM32F4-Discovery_FW_V1.1.0/Libraries/STM32F4xx_StdPeriph_Driver/src/stm32f4xx_flash.c ****   assert_param(IS_FLASH_ADDRESS(Address));
 503:../../STM32F4-Discovery_FW_V1.1.0/Libraries/STM32F4xx_StdPeriph_Driver/src/stm32f4xx_flash.c **** 
 504:../../STM32F4-Discovery_FW_V1.1.0/Libraries/STM32F4xx_StdPeriph_Driver/src/stm32f4xx_flash.c ****   /* Wait for last operation to be completed */
 505:../../STM32F4-Discovery_FW_V1.1.0/Libraries/STM32F4xx_StdPeriph_Driver/src/stm32f4xx_flash.c ****   status = FLASH_WaitForLastOperation();
 506:../../STM32F4-Discovery_FW_V1.1.0/Libraries/STM32F4xx_StdPeriph_Driver/src/stm32f4xx_flash.c ****   
 507:../../STM32F4-Discovery_FW_V1.1.0/Libraries/STM32F4xx_StdPeriph_Driver/src/stm32f4xx_flash.c ****   if(status == FLASH_COMPLETE)
 508:../../STM32F4-Discovery_FW_V1.1.0/Libraries/STM32F4xx_StdPeriph_Driver/src/stm32f4xx_flash.c ****   {
 509:../../STM32F4-Discovery_FW_V1.1.0/Libraries/STM32F4xx_StdPeriph_Driver/src/stm32f4xx_flash.c ****     /* if the previous operation is completed, proceed to program the new data */
 510:../../STM32F4-Discovery_FW_V1.1.0/Libraries/STM32F4xx_StdPeriph_Driver/src/stm32f4xx_flash.c ****     FLASH->CR &= CR_PSIZE_MASK;
 511:../../STM32F4-Discovery_FW_V1.1.0/Libraries/STM32F4xx_StdPeriph_Driver/src/stm32f4xx_flash.c ****     FLASH->CR |= FLASH_PSIZE_WORD;
 512:../../STM32F4-Discovery_FW_V1.1.0/Libraries/STM32F4xx_StdPeriph_Driver/src/stm32f4xx_flash.c ****     FLASH->CR |= FLASH_CR_PG;
 513:../../STM32F4-Discovery_FW_V1.1.0/Libraries/STM32F4xx_StdPeriph_Driver/src/stm32f4xx_flash.c ****   
 514:../../STM32F4-Discovery_FW_V1.1.0/Libraries/STM32F4xx_StdPeriph_Driver/src/stm32f4xx_flash.c ****     *(__IO uint32_t*)Address = Data;
 515:../../STM32F4-Discovery_FW_V1.1.0/Libraries/STM32F4xx_StdPeriph_Driver/src/stm32f4xx_flash.c ****         
 516:../../STM32F4-Discovery_FW_V1.1.0/Libraries/STM32F4xx_StdPeriph_Driver/src/stm32f4xx_flash.c ****     /* Wait for last operation to be completed */
 517:../../STM32F4-Discovery_FW_V1.1.0/Libraries/STM32F4xx_StdPeriph_Driver/src/stm32f4xx_flash.c ****     status = FLASH_WaitForLastOperation();
 518:../../STM32F4-Discovery_FW_V1.1.0/Libraries/STM32F4xx_StdPeriph_Driver/src/stm32f4xx_flash.c **** 
 519:../../STM32F4-Discovery_FW_V1.1.0/Libraries/STM32F4xx_StdPeriph_Driver/src/stm32f4xx_flash.c ****     /* if the program operation is completed, disable the PG Bit */
 520:../../STM32F4-Discovery_FW_V1.1.0/Libraries/STM32F4xx_StdPeriph_Driver/src/stm32f4xx_flash.c ****     FLASH->CR &= (~FLASH_CR_PG);
 521:../../STM32F4-Discovery_FW_V1.1.0/Libraries/STM32F4xx_StdPeriph_Driver/src/stm32f4xx_flash.c ****   } 
 522:../../STM32F4-Discovery_FW_V1.1.0/Libraries/STM32F4xx_StdPeriph_Driver/src/stm32f4xx_flash.c ****   /* Return the Program Status */
 523:../../STM32F4-Discovery_FW_V1.1.0/Libraries/STM32F4xx_StdPeriph_Driver/src/stm32f4xx_flash.c ****   return status;
 524:../../STM32F4-Discovery_FW_V1.1.0/Libraries/STM32F4xx_StdPeriph_Driver/src/stm32f4xx_flash.c **** }
ARM GAS  /tmp/cc4MBWm7.s 			page 16


 525:../../STM32F4-Discovery_FW_V1.1.0/Libraries/STM32F4xx_StdPeriph_Driver/src/stm32f4xx_flash.c **** 
 526:../../STM32F4-Discovery_FW_V1.1.0/Libraries/STM32F4xx_StdPeriph_Driver/src/stm32f4xx_flash.c **** /**
 527:../../STM32F4-Discovery_FW_V1.1.0/Libraries/STM32F4xx_StdPeriph_Driver/src/stm32f4xx_flash.c ****   * @brief  Programs a half word (16-bit) at a specified address. 
 528:../../STM32F4-Discovery_FW_V1.1.0/Libraries/STM32F4xx_StdPeriph_Driver/src/stm32f4xx_flash.c ****   * @note   This function must be used when the device voltage range is from 2.1V to 3.6V.         
 529:../../STM32F4-Discovery_FW_V1.1.0/Libraries/STM32F4xx_StdPeriph_Driver/src/stm32f4xx_flash.c ****   * @param  Address: specifies the address to be programmed.
 530:../../STM32F4-Discovery_FW_V1.1.0/Libraries/STM32F4xx_StdPeriph_Driver/src/stm32f4xx_flash.c ****   *         This parameter can be any address in Program memory zone or in OTP zone.  
 531:../../STM32F4-Discovery_FW_V1.1.0/Libraries/STM32F4xx_StdPeriph_Driver/src/stm32f4xx_flash.c ****   * @param  Data: specifies the data to be programmed.
 532:../../STM32F4-Discovery_FW_V1.1.0/Libraries/STM32F4xx_StdPeriph_Driver/src/stm32f4xx_flash.c ****   * @retval FLASH Status: The returned value can be: FLASH_BUSY, FLASH_ERROR_PROGRAM,
 533:../../STM32F4-Discovery_FW_V1.1.0/Libraries/STM32F4xx_StdPeriph_Driver/src/stm32f4xx_flash.c ****   *                       FLASH_ERROR_WRP, FLASH_ERROR_OPERATION or FLASH_COMPLETE.
 534:../../STM32F4-Discovery_FW_V1.1.0/Libraries/STM32F4xx_StdPeriph_Driver/src/stm32f4xx_flash.c ****   */
 535:../../STM32F4-Discovery_FW_V1.1.0/Libraries/STM32F4xx_StdPeriph_Driver/src/stm32f4xx_flash.c **** FLASH_Status FLASH_ProgramHalfWord(uint32_t Address, uint16_t Data)
 536:../../STM32F4-Discovery_FW_V1.1.0/Libraries/STM32F4xx_StdPeriph_Driver/src/stm32f4xx_flash.c **** {
 537:../../STM32F4-Discovery_FW_V1.1.0/Libraries/STM32F4xx_StdPeriph_Driver/src/stm32f4xx_flash.c ****   FLASH_Status status = FLASH_COMPLETE;
 538:../../STM32F4-Discovery_FW_V1.1.0/Libraries/STM32F4xx_StdPeriph_Driver/src/stm32f4xx_flash.c **** 
 539:../../STM32F4-Discovery_FW_V1.1.0/Libraries/STM32F4xx_StdPeriph_Driver/src/stm32f4xx_flash.c ****   /* Check the parameters */
 540:../../STM32F4-Discovery_FW_V1.1.0/Libraries/STM32F4xx_StdPeriph_Driver/src/stm32f4xx_flash.c ****   assert_param(IS_FLASH_ADDRESS(Address));
 541:../../STM32F4-Discovery_FW_V1.1.0/Libraries/STM32F4xx_StdPeriph_Driver/src/stm32f4xx_flash.c **** 
 542:../../STM32F4-Discovery_FW_V1.1.0/Libraries/STM32F4xx_StdPeriph_Driver/src/stm32f4xx_flash.c ****   /* Wait for last operation to be completed */
 543:../../STM32F4-Discovery_FW_V1.1.0/Libraries/STM32F4xx_StdPeriph_Driver/src/stm32f4xx_flash.c ****   status = FLASH_WaitForLastOperation();
 544:../../STM32F4-Discovery_FW_V1.1.0/Libraries/STM32F4xx_StdPeriph_Driver/src/stm32f4xx_flash.c ****   
 545:../../STM32F4-Discovery_FW_V1.1.0/Libraries/STM32F4xx_StdPeriph_Driver/src/stm32f4xx_flash.c ****   if(status == FLASH_COMPLETE)
 546:../../STM32F4-Discovery_FW_V1.1.0/Libraries/STM32F4xx_StdPeriph_Driver/src/stm32f4xx_flash.c ****   {
 547:../../STM32F4-Discovery_FW_V1.1.0/Libraries/STM32F4xx_StdPeriph_Driver/src/stm32f4xx_flash.c ****     /* if the previous operation is completed, proceed to program the new data */
 548:../../STM32F4-Discovery_FW_V1.1.0/Libraries/STM32F4xx_StdPeriph_Driver/src/stm32f4xx_flash.c ****     FLASH->CR &= CR_PSIZE_MASK;
 549:../../STM32F4-Discovery_FW_V1.1.0/Libraries/STM32F4xx_StdPeriph_Driver/src/stm32f4xx_flash.c ****     FLASH->CR |= FLASH_PSIZE_HALF_WORD;
 550:../../STM32F4-Discovery_FW_V1.1.0/Libraries/STM32F4xx_StdPeriph_Driver/src/stm32f4xx_flash.c ****     FLASH->CR |= FLASH_CR_PG;
 551:../../STM32F4-Discovery_FW_V1.1.0/Libraries/STM32F4xx_StdPeriph_Driver/src/stm32f4xx_flash.c ****   
 552:../../STM32F4-Discovery_FW_V1.1.0/Libraries/STM32F4xx_StdPeriph_Driver/src/stm32f4xx_flash.c ****     *(__IO uint16_t*)Address = Data;
 553:../../STM32F4-Discovery_FW_V1.1.0/Libraries/STM32F4xx_StdPeriph_Driver/src/stm32f4xx_flash.c ****         
 554:../../STM32F4-Discovery_FW_V1.1.0/Libraries/STM32F4xx_StdPeriph_Driver/src/stm32f4xx_flash.c ****     /* Wait for last operation to be completed */
 555:../../STM32F4-Discovery_FW_V1.1.0/Libraries/STM32F4xx_StdPeriph_Driver/src/stm32f4xx_flash.c ****     status = FLASH_WaitForLastOperation();
 556:../../STM32F4-Discovery_FW_V1.1.0/Libraries/STM32F4xx_StdPeriph_Driver/src/stm32f4xx_flash.c **** 
 557:../../STM32F4-Discovery_FW_V1.1.0/Libraries/STM32F4xx_StdPeriph_Driver/src/stm32f4xx_flash.c ****     /* if the program operation is completed, disable the PG Bit */
 558:../../STM32F4-Discovery_FW_V1.1.0/Libraries/STM32F4xx_StdPeriph_Driver/src/stm32f4xx_flash.c ****     FLASH->CR &= (~FLASH_CR_PG);
 559:../../STM32F4-Discovery_FW_V1.1.0/Libraries/STM32F4xx_StdPeriph_Driver/src/stm32f4xx_flash.c ****   } 
 560:../../STM32F4-Discovery_FW_V1.1.0/Libraries/STM32F4xx_StdPeriph_Driver/src/stm32f4xx_flash.c ****   /* Return the Program Status */
 561:../../STM32F4-Discovery_FW_V1.1.0/Libraries/STM32F4xx_StdPeriph_Driver/src/stm32f4xx_flash.c ****   return status;
 562:../../STM32F4-Discovery_FW_V1.1.0/Libraries/STM32F4xx_StdPeriph_Driver/src/stm32f4xx_flash.c **** }
 563:../../STM32F4-Discovery_FW_V1.1.0/Libraries/STM32F4xx_StdPeriph_Driver/src/stm32f4xx_flash.c **** 
 564:../../STM32F4-Discovery_FW_V1.1.0/Libraries/STM32F4xx_StdPeriph_Driver/src/stm32f4xx_flash.c **** /**
 565:../../STM32F4-Discovery_FW_V1.1.0/Libraries/STM32F4xx_StdPeriph_Driver/src/stm32f4xx_flash.c ****   * @brief  Programs a byte (8-bit) at a specified address.
 566:../../STM32F4-Discovery_FW_V1.1.0/Libraries/STM32F4xx_StdPeriph_Driver/src/stm32f4xx_flash.c ****   * @note   This function can be used within all the device supply voltage ranges.               
 567:../../STM32F4-Discovery_FW_V1.1.0/Libraries/STM32F4xx_StdPeriph_Driver/src/stm32f4xx_flash.c ****   * @param  Address: specifies the address to be programmed.
 568:../../STM32F4-Discovery_FW_V1.1.0/Libraries/STM32F4xx_StdPeriph_Driver/src/stm32f4xx_flash.c ****   *         This parameter can be any address in Program memory zone or in OTP zone.  
 569:../../STM32F4-Discovery_FW_V1.1.0/Libraries/STM32F4xx_StdPeriph_Driver/src/stm32f4xx_flash.c ****   * @param  Data: specifies the data to be programmed.
 570:../../STM32F4-Discovery_FW_V1.1.0/Libraries/STM32F4xx_StdPeriph_Driver/src/stm32f4xx_flash.c ****   * @retval FLASH Status: The returned value can be: FLASH_BUSY, FLASH_ERROR_PROGRAM,
 571:../../STM32F4-Discovery_FW_V1.1.0/Libraries/STM32F4xx_StdPeriph_Driver/src/stm32f4xx_flash.c ****   *                       FLASH_ERROR_WRP, FLASH_ERROR_OPERATION or FLASH_COMPLETE.
 572:../../STM32F4-Discovery_FW_V1.1.0/Libraries/STM32F4xx_StdPeriph_Driver/src/stm32f4xx_flash.c ****   */
 573:../../STM32F4-Discovery_FW_V1.1.0/Libraries/STM32F4xx_StdPeriph_Driver/src/stm32f4xx_flash.c **** FLASH_Status FLASH_ProgramByte(uint32_t Address, uint8_t Data)
 574:../../STM32F4-Discovery_FW_V1.1.0/Libraries/STM32F4xx_StdPeriph_Driver/src/stm32f4xx_flash.c **** {
 575:../../STM32F4-Discovery_FW_V1.1.0/Libraries/STM32F4xx_StdPeriph_Driver/src/stm32f4xx_flash.c ****   FLASH_Status status = FLASH_COMPLETE;
 576:../../STM32F4-Discovery_FW_V1.1.0/Libraries/STM32F4xx_StdPeriph_Driver/src/stm32f4xx_flash.c **** 
 577:../../STM32F4-Discovery_FW_V1.1.0/Libraries/STM32F4xx_StdPeriph_Driver/src/stm32f4xx_flash.c ****   /* Check the parameters */
 578:../../STM32F4-Discovery_FW_V1.1.0/Libraries/STM32F4xx_StdPeriph_Driver/src/stm32f4xx_flash.c ****   assert_param(IS_FLASH_ADDRESS(Address));
 579:../../STM32F4-Discovery_FW_V1.1.0/Libraries/STM32F4xx_StdPeriph_Driver/src/stm32f4xx_flash.c **** 
 580:../../STM32F4-Discovery_FW_V1.1.0/Libraries/STM32F4xx_StdPeriph_Driver/src/stm32f4xx_flash.c ****   /* Wait for last operation to be completed */
 581:../../STM32F4-Discovery_FW_V1.1.0/Libraries/STM32F4xx_StdPeriph_Driver/src/stm32f4xx_flash.c ****   status = FLASH_WaitForLastOperation();
ARM GAS  /tmp/cc4MBWm7.s 			page 17


 582:../../STM32F4-Discovery_FW_V1.1.0/Libraries/STM32F4xx_StdPeriph_Driver/src/stm32f4xx_flash.c ****   
 583:../../STM32F4-Discovery_FW_V1.1.0/Libraries/STM32F4xx_StdPeriph_Driver/src/stm32f4xx_flash.c ****   if(status == FLASH_COMPLETE)
 584:../../STM32F4-Discovery_FW_V1.1.0/Libraries/STM32F4xx_StdPeriph_Driver/src/stm32f4xx_flash.c ****   {
 585:../../STM32F4-Discovery_FW_V1.1.0/Libraries/STM32F4xx_StdPeriph_Driver/src/stm32f4xx_flash.c ****     /* if the previous operation is completed, proceed to program the new data */
 586:../../STM32F4-Discovery_FW_V1.1.0/Libraries/STM32F4xx_StdPeriph_Driver/src/stm32f4xx_flash.c ****     FLASH->CR &= CR_PSIZE_MASK;
 587:../../STM32F4-Discovery_FW_V1.1.0/Libraries/STM32F4xx_StdPeriph_Driver/src/stm32f4xx_flash.c ****     FLASH->CR |= FLASH_PSIZE_BYTE;
 588:../../STM32F4-Discovery_FW_V1.1.0/Libraries/STM32F4xx_StdPeriph_Driver/src/stm32f4xx_flash.c ****     FLASH->CR |= FLASH_CR_PG;
 589:../../STM32F4-Discovery_FW_V1.1.0/Libraries/STM32F4xx_StdPeriph_Driver/src/stm32f4xx_flash.c ****   
 590:../../STM32F4-Discovery_FW_V1.1.0/Libraries/STM32F4xx_StdPeriph_Driver/src/stm32f4xx_flash.c ****     *(__IO uint8_t*)Address = Data;
 591:../../STM32F4-Discovery_FW_V1.1.0/Libraries/STM32F4xx_StdPeriph_Driver/src/stm32f4xx_flash.c ****         
 592:../../STM32F4-Discovery_FW_V1.1.0/Libraries/STM32F4xx_StdPeriph_Driver/src/stm32f4xx_flash.c ****     /* Wait for last operation to be completed */
 593:../../STM32F4-Discovery_FW_V1.1.0/Libraries/STM32F4xx_StdPeriph_Driver/src/stm32f4xx_flash.c ****     status = FLASH_WaitForLastOperation();
 594:../../STM32F4-Discovery_FW_V1.1.0/Libraries/STM32F4xx_StdPeriph_Driver/src/stm32f4xx_flash.c **** 
 595:../../STM32F4-Discovery_FW_V1.1.0/Libraries/STM32F4xx_StdPeriph_Driver/src/stm32f4xx_flash.c ****     /* if the program operation is completed, disable the PG Bit */
 596:../../STM32F4-Discovery_FW_V1.1.0/Libraries/STM32F4xx_StdPeriph_Driver/src/stm32f4xx_flash.c ****     FLASH->CR &= (~FLASH_CR_PG);
 597:../../STM32F4-Discovery_FW_V1.1.0/Libraries/STM32F4xx_StdPeriph_Driver/src/stm32f4xx_flash.c ****   } 
 598:../../STM32F4-Discovery_FW_V1.1.0/Libraries/STM32F4xx_StdPeriph_Driver/src/stm32f4xx_flash.c **** 
 599:../../STM32F4-Discovery_FW_V1.1.0/Libraries/STM32F4xx_StdPeriph_Driver/src/stm32f4xx_flash.c ****   /* Return the Program Status */
 600:../../STM32F4-Discovery_FW_V1.1.0/Libraries/STM32F4xx_StdPeriph_Driver/src/stm32f4xx_flash.c ****   return status;
 601:../../STM32F4-Discovery_FW_V1.1.0/Libraries/STM32F4xx_StdPeriph_Driver/src/stm32f4xx_flash.c **** }
 602:../../STM32F4-Discovery_FW_V1.1.0/Libraries/STM32F4xx_StdPeriph_Driver/src/stm32f4xx_flash.c **** 
 603:../../STM32F4-Discovery_FW_V1.1.0/Libraries/STM32F4xx_StdPeriph_Driver/src/stm32f4xx_flash.c **** /**
 604:../../STM32F4-Discovery_FW_V1.1.0/Libraries/STM32F4xx_StdPeriph_Driver/src/stm32f4xx_flash.c ****   * @}
 605:../../STM32F4-Discovery_FW_V1.1.0/Libraries/STM32F4xx_StdPeriph_Driver/src/stm32f4xx_flash.c ****   */
 606:../../STM32F4-Discovery_FW_V1.1.0/Libraries/STM32F4xx_StdPeriph_Driver/src/stm32f4xx_flash.c **** 
 607:../../STM32F4-Discovery_FW_V1.1.0/Libraries/STM32F4xx_StdPeriph_Driver/src/stm32f4xx_flash.c **** /** @defgroup FLASH_Group3 Option Bytes Programming functions
 608:../../STM32F4-Discovery_FW_V1.1.0/Libraries/STM32F4xx_StdPeriph_Driver/src/stm32f4xx_flash.c ****  *  @brief   Option Bytes Programming functions 
 609:../../STM32F4-Discovery_FW_V1.1.0/Libraries/STM32F4xx_StdPeriph_Driver/src/stm32f4xx_flash.c ****  *
 610:../../STM32F4-Discovery_FW_V1.1.0/Libraries/STM32F4xx_StdPeriph_Driver/src/stm32f4xx_flash.c **** @verbatim   
 611:../../STM32F4-Discovery_FW_V1.1.0/Libraries/STM32F4xx_StdPeriph_Driver/src/stm32f4xx_flash.c ****  ===============================================================================
 612:../../STM32F4-Discovery_FW_V1.1.0/Libraries/STM32F4xx_StdPeriph_Driver/src/stm32f4xx_flash.c ****                         Option Bytes Programming functions
 613:../../STM32F4-Discovery_FW_V1.1.0/Libraries/STM32F4xx_StdPeriph_Driver/src/stm32f4xx_flash.c ****  ===============================================================================  
 614:../../STM32F4-Discovery_FW_V1.1.0/Libraries/STM32F4xx_StdPeriph_Driver/src/stm32f4xx_flash.c ****  
 615:../../STM32F4-Discovery_FW_V1.1.0/Libraries/STM32F4xx_StdPeriph_Driver/src/stm32f4xx_flash.c ****    This group includes the following functions:
 616:../../STM32F4-Discovery_FW_V1.1.0/Libraries/STM32F4xx_StdPeriph_Driver/src/stm32f4xx_flash.c ****    - void FLASH_OB_Unlock(void)
 617:../../STM32F4-Discovery_FW_V1.1.0/Libraries/STM32F4xx_StdPeriph_Driver/src/stm32f4xx_flash.c ****    - void FLASH_OB_Lock(void)
 618:../../STM32F4-Discovery_FW_V1.1.0/Libraries/STM32F4xx_StdPeriph_Driver/src/stm32f4xx_flash.c ****    - void FLASH_OB_WRPConfig(uint32_t OB_WRP, FunctionalState NewState)
 619:../../STM32F4-Discovery_FW_V1.1.0/Libraries/STM32F4xx_StdPeriph_Driver/src/stm32f4xx_flash.c ****    - void FLASH_OB_RDPConfig(uint8_t OB_RDP)
 620:../../STM32F4-Discovery_FW_V1.1.0/Libraries/STM32F4xx_StdPeriph_Driver/src/stm32f4xx_flash.c ****    - void FLASH_OB_UserConfig(uint8_t OB_IWDG, uint8_t OB_STOP, uint8_t OB_STDBY)
 621:../../STM32F4-Discovery_FW_V1.1.0/Libraries/STM32F4xx_StdPeriph_Driver/src/stm32f4xx_flash.c ****    - void FLASH_OB_BORConfig(uint8_t OB_BOR)
 622:../../STM32F4-Discovery_FW_V1.1.0/Libraries/STM32F4xx_StdPeriph_Driver/src/stm32f4xx_flash.c ****    - FLASH_Status FLASH_ProgramOTP(uint32_t Address, uint32_t Data)							
 623:../../STM32F4-Discovery_FW_V1.1.0/Libraries/STM32F4xx_StdPeriph_Driver/src/stm32f4xx_flash.c ****    - FLASH_Status FLASH_OB_Launch(void)
 624:../../STM32F4-Discovery_FW_V1.1.0/Libraries/STM32F4xx_StdPeriph_Driver/src/stm32f4xx_flash.c ****    - uint32_t FLASH_OB_GetUser(void)						
 625:../../STM32F4-Discovery_FW_V1.1.0/Libraries/STM32F4xx_StdPeriph_Driver/src/stm32f4xx_flash.c ****    - uint8_t FLASH_OB_GetWRP(void)						
 626:../../STM32F4-Discovery_FW_V1.1.0/Libraries/STM32F4xx_StdPeriph_Driver/src/stm32f4xx_flash.c ****    - uint8_t FLASH_OB_GetRDP(void)							
 627:../../STM32F4-Discovery_FW_V1.1.0/Libraries/STM32F4xx_StdPeriph_Driver/src/stm32f4xx_flash.c ****    - uint8_t FLASH_OB_GetBOR(void)
 628:../../STM32F4-Discovery_FW_V1.1.0/Libraries/STM32F4xx_StdPeriph_Driver/src/stm32f4xx_flash.c ****    
 629:../../STM32F4-Discovery_FW_V1.1.0/Libraries/STM32F4xx_StdPeriph_Driver/src/stm32f4xx_flash.c ****    Any operation of erase or program should follow these steps:
 630:../../STM32F4-Discovery_FW_V1.1.0/Libraries/STM32F4xx_StdPeriph_Driver/src/stm32f4xx_flash.c ****    1. Call the FLASH_OB_Unlock() function to enable the FLASH option control register access
 631:../../STM32F4-Discovery_FW_V1.1.0/Libraries/STM32F4xx_StdPeriph_Driver/src/stm32f4xx_flash.c **** 
 632:../../STM32F4-Discovery_FW_V1.1.0/Libraries/STM32F4xx_StdPeriph_Driver/src/stm32f4xx_flash.c ****    2. Call one or several functions to program the desired Option Bytes:
 633:../../STM32F4-Discovery_FW_V1.1.0/Libraries/STM32F4xx_StdPeriph_Driver/src/stm32f4xx_flash.c ****       - void FLASH_OB_WRPConfig(uint32_t OB_WRP, FunctionalState NewState) => to Enable/Disable 
 634:../../STM32F4-Discovery_FW_V1.1.0/Libraries/STM32F4xx_StdPeriph_Driver/src/stm32f4xx_flash.c ****         the desired sector write protection
 635:../../STM32F4-Discovery_FW_V1.1.0/Libraries/STM32F4xx_StdPeriph_Driver/src/stm32f4xx_flash.c ****       - void FLASH_OB_RDPConfig(uint8_t OB_RDP) => to set the desired read Protection Level
 636:../../STM32F4-Discovery_FW_V1.1.0/Libraries/STM32F4xx_StdPeriph_Driver/src/stm32f4xx_flash.c ****       - void FLASH_OB_UserConfig(uint8_t OB_IWDG, uint8_t OB_STOP, uint8_t OB_STDBY) => to configur
 637:../../STM32F4-Discovery_FW_V1.1.0/Libraries/STM32F4xx_StdPeriph_Driver/src/stm32f4xx_flash.c ****         the user Option Bytes.
 638:../../STM32F4-Discovery_FW_V1.1.0/Libraries/STM32F4xx_StdPeriph_Driver/src/stm32f4xx_flash.c ****       - void FLASH_OB_BORConfig(uint8_t OB_BOR) => to set the BOR Level 			 
ARM GAS  /tmp/cc4MBWm7.s 			page 18


 639:../../STM32F4-Discovery_FW_V1.1.0/Libraries/STM32F4xx_StdPeriph_Driver/src/stm32f4xx_flash.c **** 
 640:../../STM32F4-Discovery_FW_V1.1.0/Libraries/STM32F4xx_StdPeriph_Driver/src/stm32f4xx_flash.c ****    3. Once all needed Option Bytes to be programmed are correctly written, call the
 641:../../STM32F4-Discovery_FW_V1.1.0/Libraries/STM32F4xx_StdPeriph_Driver/src/stm32f4xx_flash.c ****       FLASH_OB_Launch() function to launch the Option Bytes programming process.
 642:../../STM32F4-Discovery_FW_V1.1.0/Libraries/STM32F4xx_StdPeriph_Driver/src/stm32f4xx_flash.c ****      
 643:../../STM32F4-Discovery_FW_V1.1.0/Libraries/STM32F4xx_StdPeriph_Driver/src/stm32f4xx_flash.c ****      @note When changing the IWDG mode from HW to SW or from SW to HW, a system 
 644:../../STM32F4-Discovery_FW_V1.1.0/Libraries/STM32F4xx_StdPeriph_Driver/src/stm32f4xx_flash.c ****            reset is needed to make the change effective.  
 645:../../STM32F4-Discovery_FW_V1.1.0/Libraries/STM32F4xx_StdPeriph_Driver/src/stm32f4xx_flash.c **** 
 646:../../STM32F4-Discovery_FW_V1.1.0/Libraries/STM32F4xx_StdPeriph_Driver/src/stm32f4xx_flash.c ****    4. Call the FLASH_OB_Lock() function to disable the FLASH option control register
 647:../../STM32F4-Discovery_FW_V1.1.0/Libraries/STM32F4xx_StdPeriph_Driver/src/stm32f4xx_flash.c ****       access (recommended to protect the Option Bytes against possible unwanted operations)
 648:../../STM32F4-Discovery_FW_V1.1.0/Libraries/STM32F4xx_StdPeriph_Driver/src/stm32f4xx_flash.c ****     
 649:../../STM32F4-Discovery_FW_V1.1.0/Libraries/STM32F4xx_StdPeriph_Driver/src/stm32f4xx_flash.c **** @endverbatim
 650:../../STM32F4-Discovery_FW_V1.1.0/Libraries/STM32F4xx_StdPeriph_Driver/src/stm32f4xx_flash.c ****   * @{
 651:../../STM32F4-Discovery_FW_V1.1.0/Libraries/STM32F4xx_StdPeriph_Driver/src/stm32f4xx_flash.c ****   */
 652:../../STM32F4-Discovery_FW_V1.1.0/Libraries/STM32F4xx_StdPeriph_Driver/src/stm32f4xx_flash.c **** 
 653:../../STM32F4-Discovery_FW_V1.1.0/Libraries/STM32F4xx_StdPeriph_Driver/src/stm32f4xx_flash.c **** /**
 654:../../STM32F4-Discovery_FW_V1.1.0/Libraries/STM32F4xx_StdPeriph_Driver/src/stm32f4xx_flash.c ****   * @brief  Unlocks the FLASH Option Control Registers access.
 655:../../STM32F4-Discovery_FW_V1.1.0/Libraries/STM32F4xx_StdPeriph_Driver/src/stm32f4xx_flash.c ****   * @param  None
 656:../../STM32F4-Discovery_FW_V1.1.0/Libraries/STM32F4xx_StdPeriph_Driver/src/stm32f4xx_flash.c ****   * @retval None
 657:../../STM32F4-Discovery_FW_V1.1.0/Libraries/STM32F4xx_StdPeriph_Driver/src/stm32f4xx_flash.c ****   */
 658:../../STM32F4-Discovery_FW_V1.1.0/Libraries/STM32F4xx_StdPeriph_Driver/src/stm32f4xx_flash.c **** void FLASH_OB_Unlock(void)
 659:../../STM32F4-Discovery_FW_V1.1.0/Libraries/STM32F4xx_StdPeriph_Driver/src/stm32f4xx_flash.c **** {
 328              		.loc 1 659 0
 329              		.cfi_startproc
 330              		@ args = 0, pretend = 0, frame = 0
 331              		@ frame_needed = 0, uses_anonymous_args = 0
 332              		@ link register save eliminated.
 660:../../STM32F4-Discovery_FW_V1.1.0/Libraries/STM32F4xx_StdPeriph_Driver/src/stm32f4xx_flash.c ****   if((FLASH->OPTCR & FLASH_OPTCR_OPTLOCK) != RESET)
 333              		.loc 1 660 0
 334 00a0 044B     		ldr	r3, .L41	@ tmp136,
 335 00a2 5A69     		ldr	r2, [r3, #20]	@ D.5825, MEM[(struct FLASH_TypeDef *)1073888256B].OPTCR
 336 00a4 D207     		lsls	r2, r2, #31	@, D.5825,
 337 00a6 04D5     		bpl	.L36	@,
 661:../../STM32F4-Discovery_FW_V1.1.0/Libraries/STM32F4xx_StdPeriph_Driver/src/stm32f4xx_flash.c ****   {
 662:../../STM32F4-Discovery_FW_V1.1.0/Libraries/STM32F4xx_StdPeriph_Driver/src/stm32f4xx_flash.c ****     /* Authorizes the Option Byte register programming */
 663:../../STM32F4-Discovery_FW_V1.1.0/Libraries/STM32F4xx_StdPeriph_Driver/src/stm32f4xx_flash.c ****     FLASH->OPTKEYR = FLASH_OPT_KEY1;
 338              		.loc 1 663 0
 339 00a8 0348     		ldr	r0, .L41+4	@ tmp139,
 664:../../STM32F4-Discovery_FW_V1.1.0/Libraries/STM32F4xx_StdPeriph_Driver/src/stm32f4xx_flash.c ****     FLASH->OPTKEYR = FLASH_OPT_KEY2;
 340              		.loc 1 664 0
 341 00aa 00F14431 		add	r1, r0, #1145324612	@ tmp141, tmp141,
 663:../../STM32F4-Discovery_FW_V1.1.0/Libraries/STM32F4xx_StdPeriph_Driver/src/stm32f4xx_flash.c ****     FLASH->OPTKEYR = FLASH_OPT_KEY1;
 342              		.loc 1 663 0
 343 00ae 9860     		str	r0, [r3, #8]	@ tmp139, MEM[(struct FLASH_TypeDef *)1073888256B].OPTKEYR
 344              		.loc 1 664 0
 345 00b0 9960     		str	r1, [r3, #8]	@ tmp141, MEM[(struct FLASH_TypeDef *)1073888256B].OPTKEYR
 346              	.L36:
 347 00b2 7047     		bx	lr	@
 348              	.L42:
 349              		.align	2
 350              	.L41:
 351 00b4 003C0240 		.word	1073888256
 352 00b8 3B2A1908 		.word	135866939
 353              		.cfi_endproc
 354              	.LFE124:
 355              		.size	FLASH_OB_Unlock, .-FLASH_OB_Unlock
 356              		.align	1
 357              		.global	FLASH_OB_Lock
ARM GAS  /tmp/cc4MBWm7.s 			page 19


 358              		.thumb
 359              		.thumb_func
 360              		.type	FLASH_OB_Lock, %function
 361              	FLASH_OB_Lock:
 362              	.LFB125:
 665:../../STM32F4-Discovery_FW_V1.1.0/Libraries/STM32F4xx_StdPeriph_Driver/src/stm32f4xx_flash.c ****   }  
 666:../../STM32F4-Discovery_FW_V1.1.0/Libraries/STM32F4xx_StdPeriph_Driver/src/stm32f4xx_flash.c **** }
 667:../../STM32F4-Discovery_FW_V1.1.0/Libraries/STM32F4xx_StdPeriph_Driver/src/stm32f4xx_flash.c **** 
 668:../../STM32F4-Discovery_FW_V1.1.0/Libraries/STM32F4xx_StdPeriph_Driver/src/stm32f4xx_flash.c **** /**
 669:../../STM32F4-Discovery_FW_V1.1.0/Libraries/STM32F4xx_StdPeriph_Driver/src/stm32f4xx_flash.c ****   * @brief  Locks the FLASH Option Control Registers access.
 670:../../STM32F4-Discovery_FW_V1.1.0/Libraries/STM32F4xx_StdPeriph_Driver/src/stm32f4xx_flash.c ****   * @param  None
 671:../../STM32F4-Discovery_FW_V1.1.0/Libraries/STM32F4xx_StdPeriph_Driver/src/stm32f4xx_flash.c ****   * @retval None
 672:../../STM32F4-Discovery_FW_V1.1.0/Libraries/STM32F4xx_StdPeriph_Driver/src/stm32f4xx_flash.c ****   */
 673:../../STM32F4-Discovery_FW_V1.1.0/Libraries/STM32F4xx_StdPeriph_Driver/src/stm32f4xx_flash.c **** void FLASH_OB_Lock(void)
 674:../../STM32F4-Discovery_FW_V1.1.0/Libraries/STM32F4xx_StdPeriph_Driver/src/stm32f4xx_flash.c **** {
 363              		.loc 1 674 0
 364              		.cfi_startproc
 365              		@ args = 0, pretend = 0, frame = 0
 366              		@ frame_needed = 0, uses_anonymous_args = 0
 367              		@ link register save eliminated.
 675:../../STM32F4-Discovery_FW_V1.1.0/Libraries/STM32F4xx_StdPeriph_Driver/src/stm32f4xx_flash.c ****   /* Set the OPTLOCK Bit to lock the FLASH Option Byte Registers access */
 676:../../STM32F4-Discovery_FW_V1.1.0/Libraries/STM32F4xx_StdPeriph_Driver/src/stm32f4xx_flash.c ****   FLASH->OPTCR |= FLASH_OPTCR_OPTLOCK;
 368              		.loc 1 676 0
 369 00bc 024B     		ldr	r3, .L44	@ tmp136,
 370 00be 5A69     		ldr	r2, [r3, #20]	@ D.5822, MEM[(struct FLASH_TypeDef *)1073888256B].OPTCR
 371 00c0 42F00100 		orr	r0, r2, #1	@ D.5823, D.5822,
 372 00c4 5861     		str	r0, [r3, #20]	@ D.5823, MEM[(struct FLASH_TypeDef *)1073888256B].OPTCR
 373 00c6 7047     		bx	lr	@
 374              	.L45:
 375              		.align	2
 376              	.L44:
 377 00c8 003C0240 		.word	1073888256
 378              		.cfi_endproc
 379              	.LFE125:
 380              		.size	FLASH_OB_Lock, .-FLASH_OB_Lock
 381              		.align	1
 382              		.global	FLASH_OB_BORConfig
 383              		.thumb
 384              		.thumb_func
 385              		.type	FLASH_OB_BORConfig, %function
 386              	FLASH_OB_BORConfig:
 387              	.LFB129:
 677:../../STM32F4-Discovery_FW_V1.1.0/Libraries/STM32F4xx_StdPeriph_Driver/src/stm32f4xx_flash.c **** }
 678:../../STM32F4-Discovery_FW_V1.1.0/Libraries/STM32F4xx_StdPeriph_Driver/src/stm32f4xx_flash.c **** 
 679:../../STM32F4-Discovery_FW_V1.1.0/Libraries/STM32F4xx_StdPeriph_Driver/src/stm32f4xx_flash.c **** /**
 680:../../STM32F4-Discovery_FW_V1.1.0/Libraries/STM32F4xx_StdPeriph_Driver/src/stm32f4xx_flash.c ****   * @brief  Enables or disables the write protection of the desired sectors
 681:../../STM32F4-Discovery_FW_V1.1.0/Libraries/STM32F4xx_StdPeriph_Driver/src/stm32f4xx_flash.c ****   * @param  OB_WRP: specifies the sector(s) to be write protected or unprotected.
 682:../../STM32F4-Discovery_FW_V1.1.0/Libraries/STM32F4xx_StdPeriph_Driver/src/stm32f4xx_flash.c ****   *          This parameter can be one of the following values:
 683:../../STM32F4-Discovery_FW_V1.1.0/Libraries/STM32F4xx_StdPeriph_Driver/src/stm32f4xx_flash.c ****   *            @arg OB_WRP: A value between OB_WRP_Sector0 and OB_WRP_Sector11                     
 684:../../STM32F4-Discovery_FW_V1.1.0/Libraries/STM32F4xx_StdPeriph_Driver/src/stm32f4xx_flash.c ****   *            @arg OB_WRP_Sector_All
 685:../../STM32F4-Discovery_FW_V1.1.0/Libraries/STM32F4xx_StdPeriph_Driver/src/stm32f4xx_flash.c ****   * @param  Newstate: new state of the Write Protection.
 686:../../STM32F4-Discovery_FW_V1.1.0/Libraries/STM32F4xx_StdPeriph_Driver/src/stm32f4xx_flash.c ****   *          This parameter can be: ENABLE or DISABLE.
 687:../../STM32F4-Discovery_FW_V1.1.0/Libraries/STM32F4xx_StdPeriph_Driver/src/stm32f4xx_flash.c ****   * @retval None  
 688:../../STM32F4-Discovery_FW_V1.1.0/Libraries/STM32F4xx_StdPeriph_Driver/src/stm32f4xx_flash.c ****   */
 689:../../STM32F4-Discovery_FW_V1.1.0/Libraries/STM32F4xx_StdPeriph_Driver/src/stm32f4xx_flash.c **** void FLASH_OB_WRPConfig(uint32_t OB_WRP, FunctionalState NewState)
 690:../../STM32F4-Discovery_FW_V1.1.0/Libraries/STM32F4xx_StdPeriph_Driver/src/stm32f4xx_flash.c **** { 
 691:../../STM32F4-Discovery_FW_V1.1.0/Libraries/STM32F4xx_StdPeriph_Driver/src/stm32f4xx_flash.c ****   FLASH_Status status = FLASH_COMPLETE;
ARM GAS  /tmp/cc4MBWm7.s 			page 20


 692:../../STM32F4-Discovery_FW_V1.1.0/Libraries/STM32F4xx_StdPeriph_Driver/src/stm32f4xx_flash.c ****   
 693:../../STM32F4-Discovery_FW_V1.1.0/Libraries/STM32F4xx_StdPeriph_Driver/src/stm32f4xx_flash.c ****   /* Check the parameters */
 694:../../STM32F4-Discovery_FW_V1.1.0/Libraries/STM32F4xx_StdPeriph_Driver/src/stm32f4xx_flash.c ****   assert_param(IS_OB_WRP(OB_WRP));
 695:../../STM32F4-Discovery_FW_V1.1.0/Libraries/STM32F4xx_StdPeriph_Driver/src/stm32f4xx_flash.c ****   assert_param(IS_FUNCTIONAL_STATE(NewState));
 696:../../STM32F4-Discovery_FW_V1.1.0/Libraries/STM32F4xx_StdPeriph_Driver/src/stm32f4xx_flash.c ****     
 697:../../STM32F4-Discovery_FW_V1.1.0/Libraries/STM32F4xx_StdPeriph_Driver/src/stm32f4xx_flash.c ****   status = FLASH_WaitForLastOperation();
 698:../../STM32F4-Discovery_FW_V1.1.0/Libraries/STM32F4xx_StdPeriph_Driver/src/stm32f4xx_flash.c **** 
 699:../../STM32F4-Discovery_FW_V1.1.0/Libraries/STM32F4xx_StdPeriph_Driver/src/stm32f4xx_flash.c ****   if(status == FLASH_COMPLETE)
 700:../../STM32F4-Discovery_FW_V1.1.0/Libraries/STM32F4xx_StdPeriph_Driver/src/stm32f4xx_flash.c ****   { 
 701:../../STM32F4-Discovery_FW_V1.1.0/Libraries/STM32F4xx_StdPeriph_Driver/src/stm32f4xx_flash.c ****     if(NewState != DISABLE)
 702:../../STM32F4-Discovery_FW_V1.1.0/Libraries/STM32F4xx_StdPeriph_Driver/src/stm32f4xx_flash.c ****     {
 703:../../STM32F4-Discovery_FW_V1.1.0/Libraries/STM32F4xx_StdPeriph_Driver/src/stm32f4xx_flash.c ****       *(__IO uint16_t*)OPTCR_BYTE2_ADDRESS &= (~OB_WRP);
 704:../../STM32F4-Discovery_FW_V1.1.0/Libraries/STM32F4xx_StdPeriph_Driver/src/stm32f4xx_flash.c ****     }
 705:../../STM32F4-Discovery_FW_V1.1.0/Libraries/STM32F4xx_StdPeriph_Driver/src/stm32f4xx_flash.c ****     else
 706:../../STM32F4-Discovery_FW_V1.1.0/Libraries/STM32F4xx_StdPeriph_Driver/src/stm32f4xx_flash.c ****     {
 707:../../STM32F4-Discovery_FW_V1.1.0/Libraries/STM32F4xx_StdPeriph_Driver/src/stm32f4xx_flash.c ****       *(__IO uint16_t*)OPTCR_BYTE2_ADDRESS |= (uint16_t)OB_WRP;
 708:../../STM32F4-Discovery_FW_V1.1.0/Libraries/STM32F4xx_StdPeriph_Driver/src/stm32f4xx_flash.c ****     }
 709:../../STM32F4-Discovery_FW_V1.1.0/Libraries/STM32F4xx_StdPeriph_Driver/src/stm32f4xx_flash.c ****   }
 710:../../STM32F4-Discovery_FW_V1.1.0/Libraries/STM32F4xx_StdPeriph_Driver/src/stm32f4xx_flash.c **** }
 711:../../STM32F4-Discovery_FW_V1.1.0/Libraries/STM32F4xx_StdPeriph_Driver/src/stm32f4xx_flash.c **** 
 712:../../STM32F4-Discovery_FW_V1.1.0/Libraries/STM32F4xx_StdPeriph_Driver/src/stm32f4xx_flash.c **** /**
 713:../../STM32F4-Discovery_FW_V1.1.0/Libraries/STM32F4xx_StdPeriph_Driver/src/stm32f4xx_flash.c ****   * @brief  Sets the read protection level.
 714:../../STM32F4-Discovery_FW_V1.1.0/Libraries/STM32F4xx_StdPeriph_Driver/src/stm32f4xx_flash.c ****   * @param  OB_RDP: specifies the read protection level.
 715:../../STM32F4-Discovery_FW_V1.1.0/Libraries/STM32F4xx_StdPeriph_Driver/src/stm32f4xx_flash.c ****   *          This parameter can be one of the following values:
 716:../../STM32F4-Discovery_FW_V1.1.0/Libraries/STM32F4xx_StdPeriph_Driver/src/stm32f4xx_flash.c ****   *            @arg OB_RDP_Level_0: No protection
 717:../../STM32F4-Discovery_FW_V1.1.0/Libraries/STM32F4xx_StdPeriph_Driver/src/stm32f4xx_flash.c ****   *            @arg OB_RDP_Level_1: Read protection of the memory
 718:../../STM32F4-Discovery_FW_V1.1.0/Libraries/STM32F4xx_StdPeriph_Driver/src/stm32f4xx_flash.c ****   *            @arg OB_RDP_Level_2: Full chip protection
 719:../../STM32F4-Discovery_FW_V1.1.0/Libraries/STM32F4xx_StdPeriph_Driver/src/stm32f4xx_flash.c ****   *   
 720:../../STM32F4-Discovery_FW_V1.1.0/Libraries/STM32F4xx_StdPeriph_Driver/src/stm32f4xx_flash.c ****   * !!!Warning!!! When enabling OB_RDP level 2 it's no more possible to go back to level 1 or 0
 721:../../STM32F4-Discovery_FW_V1.1.0/Libraries/STM32F4xx_StdPeriph_Driver/src/stm32f4xx_flash.c ****   *    
 722:../../STM32F4-Discovery_FW_V1.1.0/Libraries/STM32F4xx_StdPeriph_Driver/src/stm32f4xx_flash.c ****   * @retval None
 723:../../STM32F4-Discovery_FW_V1.1.0/Libraries/STM32F4xx_StdPeriph_Driver/src/stm32f4xx_flash.c ****   */
 724:../../STM32F4-Discovery_FW_V1.1.0/Libraries/STM32F4xx_StdPeriph_Driver/src/stm32f4xx_flash.c **** void FLASH_OB_RDPConfig(uint8_t OB_RDP)
 725:../../STM32F4-Discovery_FW_V1.1.0/Libraries/STM32F4xx_StdPeriph_Driver/src/stm32f4xx_flash.c **** {
 726:../../STM32F4-Discovery_FW_V1.1.0/Libraries/STM32F4xx_StdPeriph_Driver/src/stm32f4xx_flash.c ****   FLASH_Status status = FLASH_COMPLETE;
 727:../../STM32F4-Discovery_FW_V1.1.0/Libraries/STM32F4xx_StdPeriph_Driver/src/stm32f4xx_flash.c **** 
 728:../../STM32F4-Discovery_FW_V1.1.0/Libraries/STM32F4xx_StdPeriph_Driver/src/stm32f4xx_flash.c ****   /* Check the parameters */
 729:../../STM32F4-Discovery_FW_V1.1.0/Libraries/STM32F4xx_StdPeriph_Driver/src/stm32f4xx_flash.c ****   assert_param(IS_OB_RDP(OB_RDP));
 730:../../STM32F4-Discovery_FW_V1.1.0/Libraries/STM32F4xx_StdPeriph_Driver/src/stm32f4xx_flash.c **** 
 731:../../STM32F4-Discovery_FW_V1.1.0/Libraries/STM32F4xx_StdPeriph_Driver/src/stm32f4xx_flash.c ****   status = FLASH_WaitForLastOperation();
 732:../../STM32F4-Discovery_FW_V1.1.0/Libraries/STM32F4xx_StdPeriph_Driver/src/stm32f4xx_flash.c **** 
 733:../../STM32F4-Discovery_FW_V1.1.0/Libraries/STM32F4xx_StdPeriph_Driver/src/stm32f4xx_flash.c ****   if(status == FLASH_COMPLETE)
 734:../../STM32F4-Discovery_FW_V1.1.0/Libraries/STM32F4xx_StdPeriph_Driver/src/stm32f4xx_flash.c ****   {
 735:../../STM32F4-Discovery_FW_V1.1.0/Libraries/STM32F4xx_StdPeriph_Driver/src/stm32f4xx_flash.c ****     *(__IO uint8_t*)OPTCR_BYTE1_ADDRESS = OB_RDP;
 736:../../STM32F4-Discovery_FW_V1.1.0/Libraries/STM32F4xx_StdPeriph_Driver/src/stm32f4xx_flash.c **** 
 737:../../STM32F4-Discovery_FW_V1.1.0/Libraries/STM32F4xx_StdPeriph_Driver/src/stm32f4xx_flash.c ****   }
 738:../../STM32F4-Discovery_FW_V1.1.0/Libraries/STM32F4xx_StdPeriph_Driver/src/stm32f4xx_flash.c **** }
 739:../../STM32F4-Discovery_FW_V1.1.0/Libraries/STM32F4xx_StdPeriph_Driver/src/stm32f4xx_flash.c **** 
 740:../../STM32F4-Discovery_FW_V1.1.0/Libraries/STM32F4xx_StdPeriph_Driver/src/stm32f4xx_flash.c **** /**
 741:../../STM32F4-Discovery_FW_V1.1.0/Libraries/STM32F4xx_StdPeriph_Driver/src/stm32f4xx_flash.c ****   * @brief  Programs the FLASH User Option Byte: IWDG_SW / RST_STOP / RST_STDBY.    
 742:../../STM32F4-Discovery_FW_V1.1.0/Libraries/STM32F4xx_StdPeriph_Driver/src/stm32f4xx_flash.c ****   * @param  OB_IWDG: Selects the IWDG mode
 743:../../STM32F4-Discovery_FW_V1.1.0/Libraries/STM32F4xx_StdPeriph_Driver/src/stm32f4xx_flash.c ****   *          This parameter can be one of the following values:
 744:../../STM32F4-Discovery_FW_V1.1.0/Libraries/STM32F4xx_StdPeriph_Driver/src/stm32f4xx_flash.c ****   *            @arg OB_IWDG_SW: Software IWDG selected
 745:../../STM32F4-Discovery_FW_V1.1.0/Libraries/STM32F4xx_StdPeriph_Driver/src/stm32f4xx_flash.c ****   *            @arg OB_IWDG_HW: Hardware IWDG selected
 746:../../STM32F4-Discovery_FW_V1.1.0/Libraries/STM32F4xx_StdPeriph_Driver/src/stm32f4xx_flash.c ****   * @param  OB_STOP: Reset event when entering STOP mode.
 747:../../STM32F4-Discovery_FW_V1.1.0/Libraries/STM32F4xx_StdPeriph_Driver/src/stm32f4xx_flash.c ****   *          This parameter  can be one of the following values:
 748:../../STM32F4-Discovery_FW_V1.1.0/Libraries/STM32F4xx_StdPeriph_Driver/src/stm32f4xx_flash.c ****   *            @arg OB_STOP_NoRST: No reset generated when entering in STOP
ARM GAS  /tmp/cc4MBWm7.s 			page 21


 749:../../STM32F4-Discovery_FW_V1.1.0/Libraries/STM32F4xx_StdPeriph_Driver/src/stm32f4xx_flash.c ****   *            @arg OB_STOP_RST: Reset generated when entering in STOP
 750:../../STM32F4-Discovery_FW_V1.1.0/Libraries/STM32F4xx_StdPeriph_Driver/src/stm32f4xx_flash.c ****   * @param  OB_STDBY: Reset event when entering Standby mode.
 751:../../STM32F4-Discovery_FW_V1.1.0/Libraries/STM32F4xx_StdPeriph_Driver/src/stm32f4xx_flash.c ****   *          This parameter  can be one of the following values:
 752:../../STM32F4-Discovery_FW_V1.1.0/Libraries/STM32F4xx_StdPeriph_Driver/src/stm32f4xx_flash.c ****   *            @arg OB_STDBY_NoRST: No reset generated when entering in STANDBY
 753:../../STM32F4-Discovery_FW_V1.1.0/Libraries/STM32F4xx_StdPeriph_Driver/src/stm32f4xx_flash.c ****   *            @arg OB_STDBY_RST: Reset generated when entering in STANDBY
 754:../../STM32F4-Discovery_FW_V1.1.0/Libraries/STM32F4xx_StdPeriph_Driver/src/stm32f4xx_flash.c ****   * @retval None
 755:../../STM32F4-Discovery_FW_V1.1.0/Libraries/STM32F4xx_StdPeriph_Driver/src/stm32f4xx_flash.c ****   */
 756:../../STM32F4-Discovery_FW_V1.1.0/Libraries/STM32F4xx_StdPeriph_Driver/src/stm32f4xx_flash.c **** void FLASH_OB_UserConfig(uint8_t OB_IWDG, uint8_t OB_STOP, uint8_t OB_STDBY)
 757:../../STM32F4-Discovery_FW_V1.1.0/Libraries/STM32F4xx_StdPeriph_Driver/src/stm32f4xx_flash.c **** {
 758:../../STM32F4-Discovery_FW_V1.1.0/Libraries/STM32F4xx_StdPeriph_Driver/src/stm32f4xx_flash.c ****   uint8_t optiontmp = 0xFF;
 759:../../STM32F4-Discovery_FW_V1.1.0/Libraries/STM32F4xx_StdPeriph_Driver/src/stm32f4xx_flash.c ****   FLASH_Status status = FLASH_COMPLETE; 
 760:../../STM32F4-Discovery_FW_V1.1.0/Libraries/STM32F4xx_StdPeriph_Driver/src/stm32f4xx_flash.c **** 
 761:../../STM32F4-Discovery_FW_V1.1.0/Libraries/STM32F4xx_StdPeriph_Driver/src/stm32f4xx_flash.c ****   /* Check the parameters */
 762:../../STM32F4-Discovery_FW_V1.1.0/Libraries/STM32F4xx_StdPeriph_Driver/src/stm32f4xx_flash.c ****   assert_param(IS_OB_IWDG_SOURCE(OB_IWDG));
 763:../../STM32F4-Discovery_FW_V1.1.0/Libraries/STM32F4xx_StdPeriph_Driver/src/stm32f4xx_flash.c ****   assert_param(IS_OB_STOP_SOURCE(OB_STOP));
 764:../../STM32F4-Discovery_FW_V1.1.0/Libraries/STM32F4xx_StdPeriph_Driver/src/stm32f4xx_flash.c ****   assert_param(IS_OB_STDBY_SOURCE(OB_STDBY));
 765:../../STM32F4-Discovery_FW_V1.1.0/Libraries/STM32F4xx_StdPeriph_Driver/src/stm32f4xx_flash.c **** 
 766:../../STM32F4-Discovery_FW_V1.1.0/Libraries/STM32F4xx_StdPeriph_Driver/src/stm32f4xx_flash.c ****   /* Wait for last operation to be completed */
 767:../../STM32F4-Discovery_FW_V1.1.0/Libraries/STM32F4xx_StdPeriph_Driver/src/stm32f4xx_flash.c ****   status = FLASH_WaitForLastOperation();
 768:../../STM32F4-Discovery_FW_V1.1.0/Libraries/STM32F4xx_StdPeriph_Driver/src/stm32f4xx_flash.c ****   
 769:../../STM32F4-Discovery_FW_V1.1.0/Libraries/STM32F4xx_StdPeriph_Driver/src/stm32f4xx_flash.c ****   if(status == FLASH_COMPLETE)
 770:../../STM32F4-Discovery_FW_V1.1.0/Libraries/STM32F4xx_StdPeriph_Driver/src/stm32f4xx_flash.c ****   { 
 771:../../STM32F4-Discovery_FW_V1.1.0/Libraries/STM32F4xx_StdPeriph_Driver/src/stm32f4xx_flash.c ****     /* Mask OPTLOCK, OPTSTRT and BOR_LEV bits */
 772:../../STM32F4-Discovery_FW_V1.1.0/Libraries/STM32F4xx_StdPeriph_Driver/src/stm32f4xx_flash.c ****     optiontmp =  (uint8_t)((*(__IO uint8_t *)OPTCR_BYTE0_ADDRESS) & (uint8_t)0x0F); 
 773:../../STM32F4-Discovery_FW_V1.1.0/Libraries/STM32F4xx_StdPeriph_Driver/src/stm32f4xx_flash.c **** 
 774:../../STM32F4-Discovery_FW_V1.1.0/Libraries/STM32F4xx_StdPeriph_Driver/src/stm32f4xx_flash.c ****     /* Update User Option Byte */
 775:../../STM32F4-Discovery_FW_V1.1.0/Libraries/STM32F4xx_StdPeriph_Driver/src/stm32f4xx_flash.c ****     *(__IO uint8_t *)OPTCR_BYTE0_ADDRESS = OB_IWDG | (uint8_t)(OB_STDBY | (uint8_t)(OB_STOP | ((uin
 776:../../STM32F4-Discovery_FW_V1.1.0/Libraries/STM32F4xx_StdPeriph_Driver/src/stm32f4xx_flash.c ****   }  
 777:../../STM32F4-Discovery_FW_V1.1.0/Libraries/STM32F4xx_StdPeriph_Driver/src/stm32f4xx_flash.c **** }
 778:../../STM32F4-Discovery_FW_V1.1.0/Libraries/STM32F4xx_StdPeriph_Driver/src/stm32f4xx_flash.c **** 
 779:../../STM32F4-Discovery_FW_V1.1.0/Libraries/STM32F4xx_StdPeriph_Driver/src/stm32f4xx_flash.c **** /**
 780:../../STM32F4-Discovery_FW_V1.1.0/Libraries/STM32F4xx_StdPeriph_Driver/src/stm32f4xx_flash.c ****   * @brief  Sets the BOR Level. 
 781:../../STM32F4-Discovery_FW_V1.1.0/Libraries/STM32F4xx_StdPeriph_Driver/src/stm32f4xx_flash.c ****   * @param  OB_BOR: specifies the Option Bytes BOR Reset Level.
 782:../../STM32F4-Discovery_FW_V1.1.0/Libraries/STM32F4xx_StdPeriph_Driver/src/stm32f4xx_flash.c ****   *          This parameter can be one of the following values:
 783:../../STM32F4-Discovery_FW_V1.1.0/Libraries/STM32F4xx_StdPeriph_Driver/src/stm32f4xx_flash.c ****   *            @arg OB_BOR_LEVEL3: Supply voltage ranges from 2.7 to 3.6 V
 784:../../STM32F4-Discovery_FW_V1.1.0/Libraries/STM32F4xx_StdPeriph_Driver/src/stm32f4xx_flash.c ****   *            @arg OB_BOR_LEVEL2: Supply voltage ranges from 2.4 to 2.7 V
 785:../../STM32F4-Discovery_FW_V1.1.0/Libraries/STM32F4xx_StdPeriph_Driver/src/stm32f4xx_flash.c ****   *            @arg OB_BOR_LEVEL1: Supply voltage ranges from 2.1 to 2.4 V
 786:../../STM32F4-Discovery_FW_V1.1.0/Libraries/STM32F4xx_StdPeriph_Driver/src/stm32f4xx_flash.c ****   *            @arg OB_BOR_OFF: Supply voltage ranges from 1.62 to 2.1 V
 787:../../STM32F4-Discovery_FW_V1.1.0/Libraries/STM32F4xx_StdPeriph_Driver/src/stm32f4xx_flash.c ****   * @retval None
 788:../../STM32F4-Discovery_FW_V1.1.0/Libraries/STM32F4xx_StdPeriph_Driver/src/stm32f4xx_flash.c ****   */
 789:../../STM32F4-Discovery_FW_V1.1.0/Libraries/STM32F4xx_StdPeriph_Driver/src/stm32f4xx_flash.c **** void FLASH_OB_BORConfig(uint8_t OB_BOR)
 790:../../STM32F4-Discovery_FW_V1.1.0/Libraries/STM32F4xx_StdPeriph_Driver/src/stm32f4xx_flash.c **** {
 388              		.loc 1 790 0
 389              		.cfi_startproc
 390              		@ args = 0, pretend = 0, frame = 0
 391              		@ frame_needed = 0, uses_anonymous_args = 0
 392              		@ link register save eliminated.
 393              	.LVL14:
 791:../../STM32F4-Discovery_FW_V1.1.0/Libraries/STM32F4xx_StdPeriph_Driver/src/stm32f4xx_flash.c ****   /* Check the parameters */
 792:../../STM32F4-Discovery_FW_V1.1.0/Libraries/STM32F4xx_StdPeriph_Driver/src/stm32f4xx_flash.c ****   assert_param(IS_OB_BOR(OB_BOR));
 793:../../STM32F4-Discovery_FW_V1.1.0/Libraries/STM32F4xx_StdPeriph_Driver/src/stm32f4xx_flash.c **** 
 794:../../STM32F4-Discovery_FW_V1.1.0/Libraries/STM32F4xx_StdPeriph_Driver/src/stm32f4xx_flash.c ****   /* Set the BOR Level */
 795:../../STM32F4-Discovery_FW_V1.1.0/Libraries/STM32F4xx_StdPeriph_Driver/src/stm32f4xx_flash.c ****   *(__IO uint8_t *)OPTCR_BYTE0_ADDRESS &= (~FLASH_OPTCR_BOR_LEV);
 394              		.loc 1 795 0
 395 00cc 044B     		ldr	r3, .L47	@ tmp139,
 396 00ce 1A78     		ldrb	r2, [r3, #0]	@ zero_extendqisi2	@ MEM[(volatile uint8_t *)1073888276B], MEM[(volatile uint8_t
 397 00d0 02F0F301 		and	r1, r2, #243	@ D.5795, MEM[(volatile uint8_t *)1073888276B],
ARM GAS  /tmp/cc4MBWm7.s 			page 22


 398 00d4 1970     		strb	r1, [r3, #0]	@ D.5795, MEM[(volatile uint8_t *)1073888276B]
 796:../../STM32F4-Discovery_FW_V1.1.0/Libraries/STM32F4xx_StdPeriph_Driver/src/stm32f4xx_flash.c ****   *(__IO uint8_t *)OPTCR_BYTE0_ADDRESS |= OB_BOR;
 399              		.loc 1 796 0
 400 00d6 1A78     		ldrb	r2, [r3, #0]	@ zero_extendqisi2	@ MEM[(volatile uint8_t *)1073888276B], MEM[(volatile uint8_t
 401 00d8 1043     		orrs	r0, r0, r2	@, D.5797, OB_BOR, MEM[(volatile uint8_t *)1073888276B]
 402              	.LVL15:
 403 00da 1870     		strb	r0, [r3, #0]	@ D.5797, MEM[(volatile uint8_t *)1073888276B]
 404 00dc 7047     		bx	lr	@
 405              	.L48:
 406 00de 00BF     		.align	2
 407              	.L47:
 408 00e0 143C0240 		.word	1073888276
 409              		.cfi_endproc
 410              	.LFE129:
 411              		.size	FLASH_OB_BORConfig, .-FLASH_OB_BORConfig
 412              		.align	1
 413              		.global	FLASH_OB_GetUser
 414              		.thumb
 415              		.thumb_func
 416              		.type	FLASH_OB_GetUser, %function
 417              	FLASH_OB_GetUser:
 418              	.LFB131:
 797:../../STM32F4-Discovery_FW_V1.1.0/Libraries/STM32F4xx_StdPeriph_Driver/src/stm32f4xx_flash.c **** 
 798:../../STM32F4-Discovery_FW_V1.1.0/Libraries/STM32F4xx_StdPeriph_Driver/src/stm32f4xx_flash.c **** }
 799:../../STM32F4-Discovery_FW_V1.1.0/Libraries/STM32F4xx_StdPeriph_Driver/src/stm32f4xx_flash.c **** 
 800:../../STM32F4-Discovery_FW_V1.1.0/Libraries/STM32F4xx_StdPeriph_Driver/src/stm32f4xx_flash.c **** /**
 801:../../STM32F4-Discovery_FW_V1.1.0/Libraries/STM32F4xx_StdPeriph_Driver/src/stm32f4xx_flash.c ****   * @brief  Launch the option byte loading.
 802:../../STM32F4-Discovery_FW_V1.1.0/Libraries/STM32F4xx_StdPeriph_Driver/src/stm32f4xx_flash.c ****   * @param  None
 803:../../STM32F4-Discovery_FW_V1.1.0/Libraries/STM32F4xx_StdPeriph_Driver/src/stm32f4xx_flash.c ****   * @retval FLASH Status: The returned value can be: FLASH_BUSY, FLASH_ERROR_PROGRAM,
 804:../../STM32F4-Discovery_FW_V1.1.0/Libraries/STM32F4xx_StdPeriph_Driver/src/stm32f4xx_flash.c ****   *                       FLASH_ERROR_WRP, FLASH_ERROR_OPERATION or FLASH_COMPLETE.
 805:../../STM32F4-Discovery_FW_V1.1.0/Libraries/STM32F4xx_StdPeriph_Driver/src/stm32f4xx_flash.c ****   */
 806:../../STM32F4-Discovery_FW_V1.1.0/Libraries/STM32F4xx_StdPeriph_Driver/src/stm32f4xx_flash.c **** FLASH_Status FLASH_OB_Launch(void)
 807:../../STM32F4-Discovery_FW_V1.1.0/Libraries/STM32F4xx_StdPeriph_Driver/src/stm32f4xx_flash.c **** {
 808:../../STM32F4-Discovery_FW_V1.1.0/Libraries/STM32F4xx_StdPeriph_Driver/src/stm32f4xx_flash.c ****   FLASH_Status status = FLASH_COMPLETE;
 809:../../STM32F4-Discovery_FW_V1.1.0/Libraries/STM32F4xx_StdPeriph_Driver/src/stm32f4xx_flash.c **** 
 810:../../STM32F4-Discovery_FW_V1.1.0/Libraries/STM32F4xx_StdPeriph_Driver/src/stm32f4xx_flash.c ****   /* Set the OPTSTRT bit in OPTCR register */
 811:../../STM32F4-Discovery_FW_V1.1.0/Libraries/STM32F4xx_StdPeriph_Driver/src/stm32f4xx_flash.c ****   *(__IO uint8_t *)OPTCR_BYTE0_ADDRESS |= FLASH_OPTCR_OPTSTRT;
 812:../../STM32F4-Discovery_FW_V1.1.0/Libraries/STM32F4xx_StdPeriph_Driver/src/stm32f4xx_flash.c **** 
 813:../../STM32F4-Discovery_FW_V1.1.0/Libraries/STM32F4xx_StdPeriph_Driver/src/stm32f4xx_flash.c ****   /* Wait for last operation to be completed */
 814:../../STM32F4-Discovery_FW_V1.1.0/Libraries/STM32F4xx_StdPeriph_Driver/src/stm32f4xx_flash.c ****   status = FLASH_WaitForLastOperation();
 815:../../STM32F4-Discovery_FW_V1.1.0/Libraries/STM32F4xx_StdPeriph_Driver/src/stm32f4xx_flash.c **** 
 816:../../STM32F4-Discovery_FW_V1.1.0/Libraries/STM32F4xx_StdPeriph_Driver/src/stm32f4xx_flash.c ****   return status;
 817:../../STM32F4-Discovery_FW_V1.1.0/Libraries/STM32F4xx_StdPeriph_Driver/src/stm32f4xx_flash.c **** }
 818:../../STM32F4-Discovery_FW_V1.1.0/Libraries/STM32F4xx_StdPeriph_Driver/src/stm32f4xx_flash.c **** 
 819:../../STM32F4-Discovery_FW_V1.1.0/Libraries/STM32F4xx_StdPeriph_Driver/src/stm32f4xx_flash.c **** /**
 820:../../STM32F4-Discovery_FW_V1.1.0/Libraries/STM32F4xx_StdPeriph_Driver/src/stm32f4xx_flash.c ****   * @brief  Returns the FLASH User Option Bytes values.
 821:../../STM32F4-Discovery_FW_V1.1.0/Libraries/STM32F4xx_StdPeriph_Driver/src/stm32f4xx_flash.c ****   * @param  None
 822:../../STM32F4-Discovery_FW_V1.1.0/Libraries/STM32F4xx_StdPeriph_Driver/src/stm32f4xx_flash.c ****   * @retval The FLASH User Option Bytes values: IWDG_SW(Bit0), RST_STOP(Bit1)
 823:../../STM32F4-Discovery_FW_V1.1.0/Libraries/STM32F4xx_StdPeriph_Driver/src/stm32f4xx_flash.c ****   *         and RST_STDBY(Bit2).
 824:../../STM32F4-Discovery_FW_V1.1.0/Libraries/STM32F4xx_StdPeriph_Driver/src/stm32f4xx_flash.c ****   */
 825:../../STM32F4-Discovery_FW_V1.1.0/Libraries/STM32F4xx_StdPeriph_Driver/src/stm32f4xx_flash.c **** uint8_t FLASH_OB_GetUser(void)
 826:../../STM32F4-Discovery_FW_V1.1.0/Libraries/STM32F4xx_StdPeriph_Driver/src/stm32f4xx_flash.c **** {
 419              		.loc 1 826 0
 420              		.cfi_startproc
 421              		@ args = 0, pretend = 0, frame = 0
 422              		@ frame_needed = 0, uses_anonymous_args = 0
 423              		@ link register save eliminated.
ARM GAS  /tmp/cc4MBWm7.s 			page 23


 827:../../STM32F4-Discovery_FW_V1.1.0/Libraries/STM32F4xx_StdPeriph_Driver/src/stm32f4xx_flash.c ****   /* Return the User Option Byte */
 828:../../STM32F4-Discovery_FW_V1.1.0/Libraries/STM32F4xx_StdPeriph_Driver/src/stm32f4xx_flash.c ****   return (uint8_t)(FLASH->OPTCR >> 5);
 424              		.loc 1 828 0
 425 00e4 024B     		ldr	r3, .L50	@ tmp138,
 426 00e6 5869     		ldr	r0, [r3, #20]	@ D.5785, MEM[(struct FLASH_TypeDef *)1073888256B].OPTCR
 829:../../STM32F4-Discovery_FW_V1.1.0/Libraries/STM32F4xx_StdPeriph_Driver/src/stm32f4xx_flash.c **** }
 427              		.loc 1 829 0
 428 00e8 C0F34710 		ubfx	r0, r0, #5, #8	@, D.5785,,
 429 00ec 7047     		bx	lr	@
 430              	.L51:
 431 00ee 00BF     		.align	2
 432              	.L50:
 433 00f0 003C0240 		.word	1073888256
 434              		.cfi_endproc
 435              	.LFE131:
 436              		.size	FLASH_OB_GetUser, .-FLASH_OB_GetUser
 437              		.align	1
 438              		.global	FLASH_OB_GetWRP
 439              		.thumb
 440              		.thumb_func
 441              		.type	FLASH_OB_GetWRP, %function
 442              	FLASH_OB_GetWRP:
 443              	.LFB132:
 830:../../STM32F4-Discovery_FW_V1.1.0/Libraries/STM32F4xx_StdPeriph_Driver/src/stm32f4xx_flash.c **** 
 831:../../STM32F4-Discovery_FW_V1.1.0/Libraries/STM32F4xx_StdPeriph_Driver/src/stm32f4xx_flash.c **** /**
 832:../../STM32F4-Discovery_FW_V1.1.0/Libraries/STM32F4xx_StdPeriph_Driver/src/stm32f4xx_flash.c ****   * @brief  Returns the FLASH Write Protection Option Bytes value.
 833:../../STM32F4-Discovery_FW_V1.1.0/Libraries/STM32F4xx_StdPeriph_Driver/src/stm32f4xx_flash.c ****   * @param  None
 834:../../STM32F4-Discovery_FW_V1.1.0/Libraries/STM32F4xx_StdPeriph_Driver/src/stm32f4xx_flash.c ****   * @retval The FLASH Write Protection  Option Bytes value
 835:../../STM32F4-Discovery_FW_V1.1.0/Libraries/STM32F4xx_StdPeriph_Driver/src/stm32f4xx_flash.c ****   */
 836:../../STM32F4-Discovery_FW_V1.1.0/Libraries/STM32F4xx_StdPeriph_Driver/src/stm32f4xx_flash.c **** uint16_t FLASH_OB_GetWRP(void)
 837:../../STM32F4-Discovery_FW_V1.1.0/Libraries/STM32F4xx_StdPeriph_Driver/src/stm32f4xx_flash.c **** {
 444              		.loc 1 837 0
 445              		.cfi_startproc
 446              		@ args = 0, pretend = 0, frame = 0
 447              		@ frame_needed = 0, uses_anonymous_args = 0
 448              		@ link register save eliminated.
 838:../../STM32F4-Discovery_FW_V1.1.0/Libraries/STM32F4xx_StdPeriph_Driver/src/stm32f4xx_flash.c ****   /* Return the FLASH write protection Register value */
 839:../../STM32F4-Discovery_FW_V1.1.0/Libraries/STM32F4xx_StdPeriph_Driver/src/stm32f4xx_flash.c ****   return (*(__IO uint16_t *)(OPTCR_BYTE2_ADDRESS));
 449              		.loc 1 839 0
 450 00f4 014B     		ldr	r3, .L53	@ tmp136,
 451 00f6 1888     		ldrh	r0, [r3, #0]	@, MEM[(volatile uint16_t *)1073888278B]
 840:../../STM32F4-Discovery_FW_V1.1.0/Libraries/STM32F4xx_StdPeriph_Driver/src/stm32f4xx_flash.c **** }
 452              		.loc 1 840 0
 453 00f8 80B2     		uxth	r0, r0	@, MEM[(volatile uint16_t *)1073888278B]
 454 00fa 7047     		bx	lr	@
 455              	.L54:
 456              		.align	2
 457              	.L53:
 458 00fc 163C0240 		.word	1073888278
 459              		.cfi_endproc
 460              	.LFE132:
 461              		.size	FLASH_OB_GetWRP, .-FLASH_OB_GetWRP
 462              		.align	1
 463              		.global	FLASH_OB_GetRDP
 464              		.thumb
 465              		.thumb_func
 466              		.type	FLASH_OB_GetRDP, %function
ARM GAS  /tmp/cc4MBWm7.s 			page 24


 467              	FLASH_OB_GetRDP:
 468              	.LFB133:
 841:../../STM32F4-Discovery_FW_V1.1.0/Libraries/STM32F4xx_StdPeriph_Driver/src/stm32f4xx_flash.c **** 
 842:../../STM32F4-Discovery_FW_V1.1.0/Libraries/STM32F4xx_StdPeriph_Driver/src/stm32f4xx_flash.c **** /**
 843:../../STM32F4-Discovery_FW_V1.1.0/Libraries/STM32F4xx_StdPeriph_Driver/src/stm32f4xx_flash.c ****   * @brief  Returns the FLASH Read Protection level.
 844:../../STM32F4-Discovery_FW_V1.1.0/Libraries/STM32F4xx_StdPeriph_Driver/src/stm32f4xx_flash.c ****   * @param  None
 845:../../STM32F4-Discovery_FW_V1.1.0/Libraries/STM32F4xx_StdPeriph_Driver/src/stm32f4xx_flash.c ****   * @retval FLASH ReadOut Protection Status:
 846:../../STM32F4-Discovery_FW_V1.1.0/Libraries/STM32F4xx_StdPeriph_Driver/src/stm32f4xx_flash.c ****   *           - SET, when OB_RDP_Level_1 or OB_RDP_Level_2 is set
 847:../../STM32F4-Discovery_FW_V1.1.0/Libraries/STM32F4xx_StdPeriph_Driver/src/stm32f4xx_flash.c ****   *           - RESET, when OB_RDP_Level_0 is set
 848:../../STM32F4-Discovery_FW_V1.1.0/Libraries/STM32F4xx_StdPeriph_Driver/src/stm32f4xx_flash.c ****   */
 849:../../STM32F4-Discovery_FW_V1.1.0/Libraries/STM32F4xx_StdPeriph_Driver/src/stm32f4xx_flash.c **** FlagStatus FLASH_OB_GetRDP(void)
 850:../../STM32F4-Discovery_FW_V1.1.0/Libraries/STM32F4xx_StdPeriph_Driver/src/stm32f4xx_flash.c **** {
 469              		.loc 1 850 0
 470              		.cfi_startproc
 471              		@ args = 0, pretend = 0, frame = 0
 472              		@ frame_needed = 0, uses_anonymous_args = 0
 473              		@ link register save eliminated.
 474              	.LVL16:
 851:../../STM32F4-Discovery_FW_V1.1.0/Libraries/STM32F4xx_StdPeriph_Driver/src/stm32f4xx_flash.c ****   FlagStatus readstatus = RESET;
 852:../../STM32F4-Discovery_FW_V1.1.0/Libraries/STM32F4xx_StdPeriph_Driver/src/stm32f4xx_flash.c **** 
 853:../../STM32F4-Discovery_FW_V1.1.0/Libraries/STM32F4xx_StdPeriph_Driver/src/stm32f4xx_flash.c ****   if ((*(__IO uint8_t*)(OPTCR_BYTE1_ADDRESS) != (uint8_t)OB_RDP_Level_0))
 475              		.loc 1 853 0
 476 0100 024B     		ldr	r3, .L56	@ tmp138,
 477 0102 1878     		ldrb	r0, [r3, #0]	@ zero_extendqisi2	@ MEM[(volatile uint8_t *)1073888277B], MEM[(volatile uint8_t
 478              	.LVL17:
 854:../../STM32F4-Discovery_FW_V1.1.0/Libraries/STM32F4xx_StdPeriph_Driver/src/stm32f4xx_flash.c ****   {
 855:../../STM32F4-Discovery_FW_V1.1.0/Libraries/STM32F4xx_StdPeriph_Driver/src/stm32f4xx_flash.c ****     readstatus = SET;
 856:../../STM32F4-Discovery_FW_V1.1.0/Libraries/STM32F4xx_StdPeriph_Driver/src/stm32f4xx_flash.c ****   }
 857:../../STM32F4-Discovery_FW_V1.1.0/Libraries/STM32F4xx_StdPeriph_Driver/src/stm32f4xx_flash.c ****   else
 858:../../STM32F4-Discovery_FW_V1.1.0/Libraries/STM32F4xx_StdPeriph_Driver/src/stm32f4xx_flash.c ****   {
 859:../../STM32F4-Discovery_FW_V1.1.0/Libraries/STM32F4xx_StdPeriph_Driver/src/stm32f4xx_flash.c ****     readstatus = RESET;
 860:../../STM32F4-Discovery_FW_V1.1.0/Libraries/STM32F4xx_StdPeriph_Driver/src/stm32f4xx_flash.c ****   }
 861:../../STM32F4-Discovery_FW_V1.1.0/Libraries/STM32F4xx_StdPeriph_Driver/src/stm32f4xx_flash.c ****   return readstatus;
 862:../../STM32F4-Discovery_FW_V1.1.0/Libraries/STM32F4xx_StdPeriph_Driver/src/stm32f4xx_flash.c **** }
 479              		.loc 1 862 0
 480 0104 AA38     		subs	r0, r0, #170	@, MEM[(volatile uint8_t *)1073888277B],
 481              	.LVL18:
 482 0106 18BF     		it	ne
 483 0108 0120     		movne	r0, #1	@,
 484              	.LVL19:
 485 010a 7047     		bx	lr	@
 486              	.L57:
 487              		.align	2
 488              	.L56:
 489 010c 153C0240 		.word	1073888277
 490              		.cfi_endproc
 491              	.LFE133:
 492              		.size	FLASH_OB_GetRDP, .-FLASH_OB_GetRDP
 493              		.align	1
 494              		.global	FLASH_OB_GetBOR
 495              		.thumb
 496              		.thumb_func
 497              		.type	FLASH_OB_GetBOR, %function
 498              	FLASH_OB_GetBOR:
 499              	.LFB134:
 863:../../STM32F4-Discovery_FW_V1.1.0/Libraries/STM32F4xx_StdPeriph_Driver/src/stm32f4xx_flash.c **** 
 864:../../STM32F4-Discovery_FW_V1.1.0/Libraries/STM32F4xx_StdPeriph_Driver/src/stm32f4xx_flash.c **** /**
ARM GAS  /tmp/cc4MBWm7.s 			page 25


 865:../../STM32F4-Discovery_FW_V1.1.0/Libraries/STM32F4xx_StdPeriph_Driver/src/stm32f4xx_flash.c ****   * @brief  Returns the FLASH BOR level.
 866:../../STM32F4-Discovery_FW_V1.1.0/Libraries/STM32F4xx_StdPeriph_Driver/src/stm32f4xx_flash.c ****   * @param  None
 867:../../STM32F4-Discovery_FW_V1.1.0/Libraries/STM32F4xx_StdPeriph_Driver/src/stm32f4xx_flash.c ****   * @retval The FLASH BOR level:
 868:../../STM32F4-Discovery_FW_V1.1.0/Libraries/STM32F4xx_StdPeriph_Driver/src/stm32f4xx_flash.c ****   *           - OB_BOR_LEVEL3: Supply voltage ranges from 2.7 to 3.6 V
 869:../../STM32F4-Discovery_FW_V1.1.0/Libraries/STM32F4xx_StdPeriph_Driver/src/stm32f4xx_flash.c ****   *           - OB_BOR_LEVEL2: Supply voltage ranges from 2.4 to 2.7 V
 870:../../STM32F4-Discovery_FW_V1.1.0/Libraries/STM32F4xx_StdPeriph_Driver/src/stm32f4xx_flash.c ****   *           - OB_BOR_LEVEL1: Supply voltage ranges from 2.1 to 2.4 V
 871:../../STM32F4-Discovery_FW_V1.1.0/Libraries/STM32F4xx_StdPeriph_Driver/src/stm32f4xx_flash.c ****   *           - OB_BOR_OFF   : Supply voltage ranges from 1.62 to 2.1 V  
 872:../../STM32F4-Discovery_FW_V1.1.0/Libraries/STM32F4xx_StdPeriph_Driver/src/stm32f4xx_flash.c ****   */
 873:../../STM32F4-Discovery_FW_V1.1.0/Libraries/STM32F4xx_StdPeriph_Driver/src/stm32f4xx_flash.c **** uint8_t FLASH_OB_GetBOR(void)
 874:../../STM32F4-Discovery_FW_V1.1.0/Libraries/STM32F4xx_StdPeriph_Driver/src/stm32f4xx_flash.c **** {
 500              		.loc 1 874 0
 501              		.cfi_startproc
 502              		@ args = 0, pretend = 0, frame = 0
 503              		@ frame_needed = 0, uses_anonymous_args = 0
 504              		@ link register save eliminated.
 875:../../STM32F4-Discovery_FW_V1.1.0/Libraries/STM32F4xx_StdPeriph_Driver/src/stm32f4xx_flash.c ****   /* Return the FLASH BOR level */
 876:../../STM32F4-Discovery_FW_V1.1.0/Libraries/STM32F4xx_StdPeriph_Driver/src/stm32f4xx_flash.c ****   return (uint8_t)(*(__IO uint8_t *)(OPTCR_BYTE0_ADDRESS) & (uint8_t)0x0C);
 505              		.loc 1 876 0
 506 0110 024B     		ldr	r3, .L59	@ tmp137,
 507 0112 1878     		ldrb	r0, [r3, #0]	@ zero_extendqisi2	@ MEM[(volatile uint8_t *)1073888276B], MEM[(volatile uint8_t
 877:../../STM32F4-Discovery_FW_V1.1.0/Libraries/STM32F4xx_StdPeriph_Driver/src/stm32f4xx_flash.c **** }
 508              		.loc 1 877 0
 509 0114 00F00C00 		and	r0, r0, #12	@, MEM[(volatile uint8_t *)1073888276B],
 510 0118 7047     		bx	lr	@
 511              	.L60:
 512 011a 00BF     		.align	2
 513              	.L59:
 514 011c 143C0240 		.word	1073888276
 515              		.cfi_endproc
 516              	.LFE134:
 517              		.size	FLASH_OB_GetBOR, .-FLASH_OB_GetBOR
 518              		.align	1
 519              		.global	FLASH_ITConfig
 520              		.thumb
 521              		.thumb_func
 522              		.type	FLASH_ITConfig, %function
 523              	FLASH_ITConfig:
 524              	.LFB135:
 878:../../STM32F4-Discovery_FW_V1.1.0/Libraries/STM32F4xx_StdPeriph_Driver/src/stm32f4xx_flash.c **** 
 879:../../STM32F4-Discovery_FW_V1.1.0/Libraries/STM32F4xx_StdPeriph_Driver/src/stm32f4xx_flash.c **** /**
 880:../../STM32F4-Discovery_FW_V1.1.0/Libraries/STM32F4xx_StdPeriph_Driver/src/stm32f4xx_flash.c ****   * @}
 881:../../STM32F4-Discovery_FW_V1.1.0/Libraries/STM32F4xx_StdPeriph_Driver/src/stm32f4xx_flash.c ****   */
 882:../../STM32F4-Discovery_FW_V1.1.0/Libraries/STM32F4xx_StdPeriph_Driver/src/stm32f4xx_flash.c **** 
 883:../../STM32F4-Discovery_FW_V1.1.0/Libraries/STM32F4xx_StdPeriph_Driver/src/stm32f4xx_flash.c **** /** @defgroup FLASH_Group4 Interrupts and flags management functions
 884:../../STM32F4-Discovery_FW_V1.1.0/Libraries/STM32F4xx_StdPeriph_Driver/src/stm32f4xx_flash.c ****  *  @brief   Interrupts and flags management functions
 885:../../STM32F4-Discovery_FW_V1.1.0/Libraries/STM32F4xx_StdPeriph_Driver/src/stm32f4xx_flash.c ****  *
 886:../../STM32F4-Discovery_FW_V1.1.0/Libraries/STM32F4xx_StdPeriph_Driver/src/stm32f4xx_flash.c **** @verbatim   
 887:../../STM32F4-Discovery_FW_V1.1.0/Libraries/STM32F4xx_StdPeriph_Driver/src/stm32f4xx_flash.c ****  ===============================================================================
 888:../../STM32F4-Discovery_FW_V1.1.0/Libraries/STM32F4xx_StdPeriph_Driver/src/stm32f4xx_flash.c ****                   Interrupts and flags management functions
 889:../../STM32F4-Discovery_FW_V1.1.0/Libraries/STM32F4xx_StdPeriph_Driver/src/stm32f4xx_flash.c ****  ===============================================================================  
 890:../../STM32F4-Discovery_FW_V1.1.0/Libraries/STM32F4xx_StdPeriph_Driver/src/stm32f4xx_flash.c **** 
 891:../../STM32F4-Discovery_FW_V1.1.0/Libraries/STM32F4xx_StdPeriph_Driver/src/stm32f4xx_flash.c **** @endverbatim
 892:../../STM32F4-Discovery_FW_V1.1.0/Libraries/STM32F4xx_StdPeriph_Driver/src/stm32f4xx_flash.c ****   * @{
 893:../../STM32F4-Discovery_FW_V1.1.0/Libraries/STM32F4xx_StdPeriph_Driver/src/stm32f4xx_flash.c ****   */
 894:../../STM32F4-Discovery_FW_V1.1.0/Libraries/STM32F4xx_StdPeriph_Driver/src/stm32f4xx_flash.c **** 
 895:../../STM32F4-Discovery_FW_V1.1.0/Libraries/STM32F4xx_StdPeriph_Driver/src/stm32f4xx_flash.c **** /**
 896:../../STM32F4-Discovery_FW_V1.1.0/Libraries/STM32F4xx_StdPeriph_Driver/src/stm32f4xx_flash.c ****   * @brief  Enables or disables the specified FLASH interrupts.
ARM GAS  /tmp/cc4MBWm7.s 			page 26


 897:../../STM32F4-Discovery_FW_V1.1.0/Libraries/STM32F4xx_StdPeriph_Driver/src/stm32f4xx_flash.c ****   * @param  FLASH_IT: specifies the FLASH interrupt sources to be enabled or disabled.
 898:../../STM32F4-Discovery_FW_V1.1.0/Libraries/STM32F4xx_StdPeriph_Driver/src/stm32f4xx_flash.c ****   *          This parameter can be any combination of the following values:
 899:../../STM32F4-Discovery_FW_V1.1.0/Libraries/STM32F4xx_StdPeriph_Driver/src/stm32f4xx_flash.c ****   *            @arg FLASH_IT_ERR: FLASH Error Interrupt
 900:../../STM32F4-Discovery_FW_V1.1.0/Libraries/STM32F4xx_StdPeriph_Driver/src/stm32f4xx_flash.c ****   *            @arg FLASH_IT_EOP: FLASH end of operation Interrupt
 901:../../STM32F4-Discovery_FW_V1.1.0/Libraries/STM32F4xx_StdPeriph_Driver/src/stm32f4xx_flash.c ****   * @retval None 
 902:../../STM32F4-Discovery_FW_V1.1.0/Libraries/STM32F4xx_StdPeriph_Driver/src/stm32f4xx_flash.c ****   */
 903:../../STM32F4-Discovery_FW_V1.1.0/Libraries/STM32F4xx_StdPeriph_Driver/src/stm32f4xx_flash.c **** void FLASH_ITConfig(uint32_t FLASH_IT, FunctionalState NewState)
 904:../../STM32F4-Discovery_FW_V1.1.0/Libraries/STM32F4xx_StdPeriph_Driver/src/stm32f4xx_flash.c **** {
 525              		.loc 1 904 0
 526              		.cfi_startproc
 527              		@ args = 0, pretend = 0, frame = 0
 528              		@ frame_needed = 0, uses_anonymous_args = 0
 529              		@ link register save eliminated.
 530              	.LVL20:
 531 0120 044B     		ldr	r3, .L65	@ tmp146,
 905:../../STM32F4-Discovery_FW_V1.1.0/Libraries/STM32F4xx_StdPeriph_Driver/src/stm32f4xx_flash.c ****   /* Check the parameters */
 906:../../STM32F4-Discovery_FW_V1.1.0/Libraries/STM32F4xx_StdPeriph_Driver/src/stm32f4xx_flash.c ****   assert_param(IS_FLASH_IT(FLASH_IT)); 
 907:../../STM32F4-Discovery_FW_V1.1.0/Libraries/STM32F4xx_StdPeriph_Driver/src/stm32f4xx_flash.c ****   assert_param(IS_FUNCTIONAL_STATE(NewState));
 908:../../STM32F4-Discovery_FW_V1.1.0/Libraries/STM32F4xx_StdPeriph_Driver/src/stm32f4xx_flash.c **** 
 909:../../STM32F4-Discovery_FW_V1.1.0/Libraries/STM32F4xx_StdPeriph_Driver/src/stm32f4xx_flash.c ****   if(NewState != DISABLE)
 910:../../STM32F4-Discovery_FW_V1.1.0/Libraries/STM32F4xx_StdPeriph_Driver/src/stm32f4xx_flash.c ****   {
 911:../../STM32F4-Discovery_FW_V1.1.0/Libraries/STM32F4xx_StdPeriph_Driver/src/stm32f4xx_flash.c ****     /* Enable the interrupt sources */
 912:../../STM32F4-Discovery_FW_V1.1.0/Libraries/STM32F4xx_StdPeriph_Driver/src/stm32f4xx_flash.c ****     FLASH->CR |= FLASH_IT;
 532              		.loc 1 912 0
 533 0122 1A69     		ldr	r2, [r3, #16]	@ D.5763,
 909:../../STM32F4-Discovery_FW_V1.1.0/Libraries/STM32F4xx_StdPeriph_Driver/src/stm32f4xx_flash.c ****   if(NewState != DISABLE)
 534              		.loc 1 909 0
 535 0124 09B1     		cbz	r1, .L62	@ NewState,
 536              		.loc 1 912 0
 537 0126 1043     		orrs	r0, r0, r2	@, D.5764, FLASH_IT, D.5763
 538              	.LVL21:
 539 0128 01E0     		b	.L64	@
 540              	.LVL22:
 541              	.L62:
 913:../../STM32F4-Discovery_FW_V1.1.0/Libraries/STM32F4xx_StdPeriph_Driver/src/stm32f4xx_flash.c ****   }
 914:../../STM32F4-Discovery_FW_V1.1.0/Libraries/STM32F4xx_StdPeriph_Driver/src/stm32f4xx_flash.c ****   else
 915:../../STM32F4-Discovery_FW_V1.1.0/Libraries/STM32F4xx_StdPeriph_Driver/src/stm32f4xx_flash.c ****   {
 916:../../STM32F4-Discovery_FW_V1.1.0/Libraries/STM32F4xx_StdPeriph_Driver/src/stm32f4xx_flash.c ****     /* Disable the interrupt sources */
 917:../../STM32F4-Discovery_FW_V1.1.0/Libraries/STM32F4xx_StdPeriph_Driver/src/stm32f4xx_flash.c ****     FLASH->CR &= ~(uint32_t)FLASH_IT;
 542              		.loc 1 917 0
 543 012a 22EA0000 		bic	r0, r2, r0	@ D.5768, D.5766, FLASH_IT
 544              	.LVL23:
 545              	.L64:
 546 012e 1861     		str	r0, [r3, #16]	@ D.5768,
 547 0130 7047     		bx	lr	@
 548              	.L66:
 549 0132 00BF     		.align	2
 550              	.L65:
 551 0134 003C0240 		.word	1073888256
 552              		.cfi_endproc
 553              	.LFE135:
 554              		.size	FLASH_ITConfig, .-FLASH_ITConfig
 555              		.align	1
 556              		.global	FLASH_GetFlagStatus
 557              		.thumb
 558              		.thumb_func
 559              		.type	FLASH_GetFlagStatus, %function
ARM GAS  /tmp/cc4MBWm7.s 			page 27


 560              	FLASH_GetFlagStatus:
 561              	.LFB136:
 918:../../STM32F4-Discovery_FW_V1.1.0/Libraries/STM32F4xx_StdPeriph_Driver/src/stm32f4xx_flash.c ****   }
 919:../../STM32F4-Discovery_FW_V1.1.0/Libraries/STM32F4xx_StdPeriph_Driver/src/stm32f4xx_flash.c **** }
 920:../../STM32F4-Discovery_FW_V1.1.0/Libraries/STM32F4xx_StdPeriph_Driver/src/stm32f4xx_flash.c **** 
 921:../../STM32F4-Discovery_FW_V1.1.0/Libraries/STM32F4xx_StdPeriph_Driver/src/stm32f4xx_flash.c **** /**
 922:../../STM32F4-Discovery_FW_V1.1.0/Libraries/STM32F4xx_StdPeriph_Driver/src/stm32f4xx_flash.c ****   * @brief  Checks whether the specified FLASH flag is set or not.
 923:../../STM32F4-Discovery_FW_V1.1.0/Libraries/STM32F4xx_StdPeriph_Driver/src/stm32f4xx_flash.c ****   * @param  FLASH_FLAG: specifies the FLASH flag to check.
 924:../../STM32F4-Discovery_FW_V1.1.0/Libraries/STM32F4xx_StdPeriph_Driver/src/stm32f4xx_flash.c ****   *          This parameter can be one of the following values:
 925:../../STM32F4-Discovery_FW_V1.1.0/Libraries/STM32F4xx_StdPeriph_Driver/src/stm32f4xx_flash.c ****   *            @arg FLASH_FLAG_EOP: FLASH End of Operation flag 
 926:../../STM32F4-Discovery_FW_V1.1.0/Libraries/STM32F4xx_StdPeriph_Driver/src/stm32f4xx_flash.c ****   *            @arg FLASH_FLAG_OPERR: FLASH operation Error flag 
 927:../../STM32F4-Discovery_FW_V1.1.0/Libraries/STM32F4xx_StdPeriph_Driver/src/stm32f4xx_flash.c ****   *            @arg FLASH_FLAG_WRPERR: FLASH Write protected error flag 
 928:../../STM32F4-Discovery_FW_V1.1.0/Libraries/STM32F4xx_StdPeriph_Driver/src/stm32f4xx_flash.c ****   *            @arg FLASH_FLAG_PGAERR: FLASH Programming Alignment error flag
 929:../../STM32F4-Discovery_FW_V1.1.0/Libraries/STM32F4xx_StdPeriph_Driver/src/stm32f4xx_flash.c ****   *            @arg FLASH_FLAG_PGPERR: FLASH Programming Parallelism error flag
 930:../../STM32F4-Discovery_FW_V1.1.0/Libraries/STM32F4xx_StdPeriph_Driver/src/stm32f4xx_flash.c ****   *            @arg FLASH_FLAG_PGSERR: FLASH Programming Sequence error flag
 931:../../STM32F4-Discovery_FW_V1.1.0/Libraries/STM32F4xx_StdPeriph_Driver/src/stm32f4xx_flash.c ****   *            @arg FLASH_FLAG_BSY: FLASH Busy flag
 932:../../STM32F4-Discovery_FW_V1.1.0/Libraries/STM32F4xx_StdPeriph_Driver/src/stm32f4xx_flash.c ****   * @retval The new state of FLASH_FLAG (SET or RESET).
 933:../../STM32F4-Discovery_FW_V1.1.0/Libraries/STM32F4xx_StdPeriph_Driver/src/stm32f4xx_flash.c ****   */
 934:../../STM32F4-Discovery_FW_V1.1.0/Libraries/STM32F4xx_StdPeriph_Driver/src/stm32f4xx_flash.c **** FlagStatus FLASH_GetFlagStatus(uint32_t FLASH_FLAG)
 935:../../STM32F4-Discovery_FW_V1.1.0/Libraries/STM32F4xx_StdPeriph_Driver/src/stm32f4xx_flash.c **** {
 562              		.loc 1 935 0
 563              		.cfi_startproc
 564              		@ args = 0, pretend = 0, frame = 0
 565              		@ frame_needed = 0, uses_anonymous_args = 0
 566              		@ link register save eliminated.
 567              	.LVL24:
 936:../../STM32F4-Discovery_FW_V1.1.0/Libraries/STM32F4xx_StdPeriph_Driver/src/stm32f4xx_flash.c ****   FlagStatus bitstatus = RESET;
 937:../../STM32F4-Discovery_FW_V1.1.0/Libraries/STM32F4xx_StdPeriph_Driver/src/stm32f4xx_flash.c ****   /* Check the parameters */
 938:../../STM32F4-Discovery_FW_V1.1.0/Libraries/STM32F4xx_StdPeriph_Driver/src/stm32f4xx_flash.c ****   assert_param(IS_FLASH_GET_FLAG(FLASH_FLAG));
 939:../../STM32F4-Discovery_FW_V1.1.0/Libraries/STM32F4xx_StdPeriph_Driver/src/stm32f4xx_flash.c **** 
 940:../../STM32F4-Discovery_FW_V1.1.0/Libraries/STM32F4xx_StdPeriph_Driver/src/stm32f4xx_flash.c ****   if((FLASH->SR & FLASH_FLAG) != (uint32_t)RESET)
 568              		.loc 1 940 0
 569 0138 034B     		ldr	r3, .L68	@ tmp140,
 570 013a D968     		ldr	r1, [r3, #12]	@ D.5753, MEM[(struct FLASH_TypeDef *)1073888256B].SR
 571              	.LVL25:
 572 013c 0842     		tst	r0, r1	@ FLASH_FLAG, D.5753
 941:../../STM32F4-Discovery_FW_V1.1.0/Libraries/STM32F4xx_StdPeriph_Driver/src/stm32f4xx_flash.c ****   {
 942:../../STM32F4-Discovery_FW_V1.1.0/Libraries/STM32F4xx_StdPeriph_Driver/src/stm32f4xx_flash.c ****     bitstatus = SET;
 943:../../STM32F4-Discovery_FW_V1.1.0/Libraries/STM32F4xx_StdPeriph_Driver/src/stm32f4xx_flash.c ****   }
 944:../../STM32F4-Discovery_FW_V1.1.0/Libraries/STM32F4xx_StdPeriph_Driver/src/stm32f4xx_flash.c ****   else
 945:../../STM32F4-Discovery_FW_V1.1.0/Libraries/STM32F4xx_StdPeriph_Driver/src/stm32f4xx_flash.c ****   {
 946:../../STM32F4-Discovery_FW_V1.1.0/Libraries/STM32F4xx_StdPeriph_Driver/src/stm32f4xx_flash.c ****     bitstatus = RESET;
 947:../../STM32F4-Discovery_FW_V1.1.0/Libraries/STM32F4xx_StdPeriph_Driver/src/stm32f4xx_flash.c ****   }
 948:../../STM32F4-Discovery_FW_V1.1.0/Libraries/STM32F4xx_StdPeriph_Driver/src/stm32f4xx_flash.c ****   /* Return the new state of FLASH_FLAG (SET or RESET) */
 949:../../STM32F4-Discovery_FW_V1.1.0/Libraries/STM32F4xx_StdPeriph_Driver/src/stm32f4xx_flash.c ****   return bitstatus; 
 950:../../STM32F4-Discovery_FW_V1.1.0/Libraries/STM32F4xx_StdPeriph_Driver/src/stm32f4xx_flash.c **** }
 573              		.loc 1 950 0
 574 013e 0CBF     		ite	eq	@
 575 0140 0020     		moveq	r0, #0	@,
 576 0142 0120     		movne	r0, #1	@,
 577              	.LVL26:
 578 0144 7047     		bx	lr	@
 579              	.L69:
 580 0146 00BF     		.align	2
 581              	.L68:
 582 0148 003C0240 		.word	1073888256
 583              		.cfi_endproc
ARM GAS  /tmp/cc4MBWm7.s 			page 28


 584              	.LFE136:
 585              		.size	FLASH_GetFlagStatus, .-FLASH_GetFlagStatus
 586              		.align	1
 587              		.global	FLASH_ClearFlag
 588              		.thumb
 589              		.thumb_func
 590              		.type	FLASH_ClearFlag, %function
 591              	FLASH_ClearFlag:
 592              	.LFB137:
 951:../../STM32F4-Discovery_FW_V1.1.0/Libraries/STM32F4xx_StdPeriph_Driver/src/stm32f4xx_flash.c **** 
 952:../../STM32F4-Discovery_FW_V1.1.0/Libraries/STM32F4xx_StdPeriph_Driver/src/stm32f4xx_flash.c **** /**
 953:../../STM32F4-Discovery_FW_V1.1.0/Libraries/STM32F4xx_StdPeriph_Driver/src/stm32f4xx_flash.c ****   * @brief  Clears the FLASH's pending flags.
 954:../../STM32F4-Discovery_FW_V1.1.0/Libraries/STM32F4xx_StdPeriph_Driver/src/stm32f4xx_flash.c ****   * @param  FLASH_FLAG: specifies the FLASH flags to clear.
 955:../../STM32F4-Discovery_FW_V1.1.0/Libraries/STM32F4xx_StdPeriph_Driver/src/stm32f4xx_flash.c ****   *          This parameter can be any combination of the following values:
 956:../../STM32F4-Discovery_FW_V1.1.0/Libraries/STM32F4xx_StdPeriph_Driver/src/stm32f4xx_flash.c ****   *            @arg FLASH_FLAG_EOP: FLASH End of Operation flag 
 957:../../STM32F4-Discovery_FW_V1.1.0/Libraries/STM32F4xx_StdPeriph_Driver/src/stm32f4xx_flash.c ****   *            @arg FLASH_FLAG_OPERR: FLASH operation Error flag 
 958:../../STM32F4-Discovery_FW_V1.1.0/Libraries/STM32F4xx_StdPeriph_Driver/src/stm32f4xx_flash.c ****   *            @arg FLASH_FLAG_WRPERR: FLASH Write protected error flag 
 959:../../STM32F4-Discovery_FW_V1.1.0/Libraries/STM32F4xx_StdPeriph_Driver/src/stm32f4xx_flash.c ****   *            @arg FLASH_FLAG_PGAERR: FLASH Programming Alignment error flag 
 960:../../STM32F4-Discovery_FW_V1.1.0/Libraries/STM32F4xx_StdPeriph_Driver/src/stm32f4xx_flash.c ****   *            @arg FLASH_FLAG_PGPERR: FLASH Programming Parallelism error flag
 961:../../STM32F4-Discovery_FW_V1.1.0/Libraries/STM32F4xx_StdPeriph_Driver/src/stm32f4xx_flash.c ****   *            @arg FLASH_FLAG_PGSERR: FLASH Programming Sequence error flag
 962:../../STM32F4-Discovery_FW_V1.1.0/Libraries/STM32F4xx_StdPeriph_Driver/src/stm32f4xx_flash.c ****   * @retval None
 963:../../STM32F4-Discovery_FW_V1.1.0/Libraries/STM32F4xx_StdPeriph_Driver/src/stm32f4xx_flash.c ****   */
 964:../../STM32F4-Discovery_FW_V1.1.0/Libraries/STM32F4xx_StdPeriph_Driver/src/stm32f4xx_flash.c **** void FLASH_ClearFlag(uint32_t FLASH_FLAG)
 965:../../STM32F4-Discovery_FW_V1.1.0/Libraries/STM32F4xx_StdPeriph_Driver/src/stm32f4xx_flash.c **** {
 593              		.loc 1 965 0
 594              		.cfi_startproc
 595              		@ args = 0, pretend = 0, frame = 0
 596              		@ frame_needed = 0, uses_anonymous_args = 0
 597              		@ link register save eliminated.
 598              	.LVL27:
 966:../../STM32F4-Discovery_FW_V1.1.0/Libraries/STM32F4xx_StdPeriph_Driver/src/stm32f4xx_flash.c ****   /* Check the parameters */
 967:../../STM32F4-Discovery_FW_V1.1.0/Libraries/STM32F4xx_StdPeriph_Driver/src/stm32f4xx_flash.c ****   assert_param(IS_FLASH_CLEAR_FLAG(FLASH_FLAG));
 968:../../STM32F4-Discovery_FW_V1.1.0/Libraries/STM32F4xx_StdPeriph_Driver/src/stm32f4xx_flash.c ****   
 969:../../STM32F4-Discovery_FW_V1.1.0/Libraries/STM32F4xx_StdPeriph_Driver/src/stm32f4xx_flash.c ****   /* Clear the flags */
 970:../../STM32F4-Discovery_FW_V1.1.0/Libraries/STM32F4xx_StdPeriph_Driver/src/stm32f4xx_flash.c ****   FLASH->SR = FLASH_FLAG;
 599              		.loc 1 970 0
 600 014c 014B     		ldr	r3, .L71	@ tmp135,
 601 014e D860     		str	r0, [r3, #12]	@ FLASH_FLAG, MEM[(struct FLASH_TypeDef *)1073888256B].SR
 602 0150 7047     		bx	lr	@
 603              	.L72:
 604 0152 00BF     		.align	2
 605              	.L71:
 606 0154 003C0240 		.word	1073888256
 607              		.cfi_endproc
 608              	.LFE137:
 609              		.size	FLASH_ClearFlag, .-FLASH_ClearFlag
 610              		.align	1
 611              		.global	FLASH_GetStatus
 612              		.thumb
 613              		.thumb_func
 614              		.type	FLASH_GetStatus, %function
 615              	FLASH_GetStatus:
 616              	.LFB138:
 971:../../STM32F4-Discovery_FW_V1.1.0/Libraries/STM32F4xx_StdPeriph_Driver/src/stm32f4xx_flash.c **** }
 972:../../STM32F4-Discovery_FW_V1.1.0/Libraries/STM32F4xx_StdPeriph_Driver/src/stm32f4xx_flash.c **** 
 973:../../STM32F4-Discovery_FW_V1.1.0/Libraries/STM32F4xx_StdPeriph_Driver/src/stm32f4xx_flash.c **** /**
 974:../../STM32F4-Discovery_FW_V1.1.0/Libraries/STM32F4xx_StdPeriph_Driver/src/stm32f4xx_flash.c ****   * @brief  Returns the FLASH Status.
ARM GAS  /tmp/cc4MBWm7.s 			page 29


 975:../../STM32F4-Discovery_FW_V1.1.0/Libraries/STM32F4xx_StdPeriph_Driver/src/stm32f4xx_flash.c ****   * @param  None
 976:../../STM32F4-Discovery_FW_V1.1.0/Libraries/STM32F4xx_StdPeriph_Driver/src/stm32f4xx_flash.c ****   * @retval FLASH Status: The returned value can be: FLASH_BUSY, FLASH_ERROR_PROGRAM,
 977:../../STM32F4-Discovery_FW_V1.1.0/Libraries/STM32F4xx_StdPeriph_Driver/src/stm32f4xx_flash.c ****   *                       FLASH_ERROR_WRP, FLASH_ERROR_OPERATION or FLASH_COMPLETE.
 978:../../STM32F4-Discovery_FW_V1.1.0/Libraries/STM32F4xx_StdPeriph_Driver/src/stm32f4xx_flash.c ****   */
 979:../../STM32F4-Discovery_FW_V1.1.0/Libraries/STM32F4xx_StdPeriph_Driver/src/stm32f4xx_flash.c **** FLASH_Status FLASH_GetStatus(void)
 980:../../STM32F4-Discovery_FW_V1.1.0/Libraries/STM32F4xx_StdPeriph_Driver/src/stm32f4xx_flash.c **** {
 617              		.loc 1 980 0
 618              		.cfi_startproc
 619              		@ args = 0, pretend = 0, frame = 0
 620              		@ frame_needed = 0, uses_anonymous_args = 0
 621              		@ link register save eliminated.
 622              	.LVL28:
 981:../../STM32F4-Discovery_FW_V1.1.0/Libraries/STM32F4xx_StdPeriph_Driver/src/stm32f4xx_flash.c ****   FLASH_Status flashstatus = FLASH_COMPLETE;
 982:../../STM32F4-Discovery_FW_V1.1.0/Libraries/STM32F4xx_StdPeriph_Driver/src/stm32f4xx_flash.c ****   
 983:../../STM32F4-Discovery_FW_V1.1.0/Libraries/STM32F4xx_StdPeriph_Driver/src/stm32f4xx_flash.c ****   if((FLASH->SR & FLASH_FLAG_BSY) == FLASH_FLAG_BSY) 
 623              		.loc 1 983 0
 624 0158 0B4B     		ldr	r3, .L80	@ tmp144,
 625 015a DA68     		ldr	r2, [r3, #12]	@ D.5729, MEM[(struct FLASH_TypeDef *)1073888256B].SR
 626 015c D003     		lsls	r0, r2, #15	@, D.5729,
 627 015e 0DD4     		bmi	.L76	@,
 984:../../STM32F4-Discovery_FW_V1.1.0/Libraries/STM32F4xx_StdPeriph_Driver/src/stm32f4xx_flash.c ****   {
 985:../../STM32F4-Discovery_FW_V1.1.0/Libraries/STM32F4xx_StdPeriph_Driver/src/stm32f4xx_flash.c ****     flashstatus = FLASH_BUSY;
 986:../../STM32F4-Discovery_FW_V1.1.0/Libraries/STM32F4xx_StdPeriph_Driver/src/stm32f4xx_flash.c ****   }
 987:../../STM32F4-Discovery_FW_V1.1.0/Libraries/STM32F4xx_StdPeriph_Driver/src/stm32f4xx_flash.c ****   else 
 988:../../STM32F4-Discovery_FW_V1.1.0/Libraries/STM32F4xx_StdPeriph_Driver/src/stm32f4xx_flash.c ****   {  
 989:../../STM32F4-Discovery_FW_V1.1.0/Libraries/STM32F4xx_StdPeriph_Driver/src/stm32f4xx_flash.c ****     if((FLASH->SR & FLASH_FLAG_WRPERR) != (uint32_t)0x00)
 628              		.loc 1 989 0
 629 0160 D868     		ldr	r0, [r3, #12]	@ D.5734, MEM[(struct FLASH_TypeDef *)1073888256B].SR
 630 0162 C106     		lsls	r1, r0, #27	@, D.5734,
 631 0164 0CD4     		bmi	.L77	@,
 990:../../STM32F4-Discovery_FW_V1.1.0/Libraries/STM32F4xx_StdPeriph_Driver/src/stm32f4xx_flash.c ****     { 
 991:../../STM32F4-Discovery_FW_V1.1.0/Libraries/STM32F4xx_StdPeriph_Driver/src/stm32f4xx_flash.c ****       flashstatus = FLASH_ERROR_WRP;
 992:../../STM32F4-Discovery_FW_V1.1.0/Libraries/STM32F4xx_StdPeriph_Driver/src/stm32f4xx_flash.c ****     }
 993:../../STM32F4-Discovery_FW_V1.1.0/Libraries/STM32F4xx_StdPeriph_Driver/src/stm32f4xx_flash.c ****     else 
 994:../../STM32F4-Discovery_FW_V1.1.0/Libraries/STM32F4xx_StdPeriph_Driver/src/stm32f4xx_flash.c ****     {
 995:../../STM32F4-Discovery_FW_V1.1.0/Libraries/STM32F4xx_StdPeriph_Driver/src/stm32f4xx_flash.c ****       if((FLASH->SR & (uint32_t)0xEF) != (uint32_t)0x00)
 632              		.loc 1 995 0
 633 0166 D968     		ldr	r1, [r3, #12]	@ D.5739, MEM[(struct FLASH_TypeDef *)1073888256B].SR
 634 0168 11F0EF0F 		tst	r1, #239	@ D.5739,
 635 016c 0AD1     		bne	.L78	@,
 636              	.LBB4:
 637              	.LBB5:
 996:../../STM32F4-Discovery_FW_V1.1.0/Libraries/STM32F4xx_StdPeriph_Driver/src/stm32f4xx_flash.c ****       {
 997:../../STM32F4-Discovery_FW_V1.1.0/Libraries/STM32F4xx_StdPeriph_Driver/src/stm32f4xx_flash.c ****         flashstatus = FLASH_ERROR_PROGRAM; 
 998:../../STM32F4-Discovery_FW_V1.1.0/Libraries/STM32F4xx_StdPeriph_Driver/src/stm32f4xx_flash.c ****       }
 999:../../STM32F4-Discovery_FW_V1.1.0/Libraries/STM32F4xx_StdPeriph_Driver/src/stm32f4xx_flash.c ****       else
1000:../../STM32F4-Discovery_FW_V1.1.0/Libraries/STM32F4xx_StdPeriph_Driver/src/stm32f4xx_flash.c ****       {
1001:../../STM32F4-Discovery_FW_V1.1.0/Libraries/STM32F4xx_StdPeriph_Driver/src/stm32f4xx_flash.c ****         if((FLASH->SR & FLASH_FLAG_OPERR) != (uint32_t)0x00)
 638              		.loc 1 1001 0
 639 016e DB68     		ldr	r3, [r3, #12]	@ D.6097, MEM[(struct FLASH_TypeDef *)1073888256B].SR
 640 0170 13F0020F 		tst	r3, #2	@ D.6097,
1002:../../STM32F4-Discovery_FW_V1.1.0/Libraries/STM32F4xx_StdPeriph_Driver/src/stm32f4xx_flash.c ****         {
1003:../../STM32F4-Discovery_FW_V1.1.0/Libraries/STM32F4xx_StdPeriph_Driver/src/stm32f4xx_flash.c ****           flashstatus = FLASH_ERROR_OPERATION;
 641              		.loc 1 1003 0
 642 0174 0CBF     		ite	eq	@
 643 0176 0820     		moveq	r0, #8	@, flashstatus,
 644 0178 0720     		movne	r0, #7	@, flashstatus,
ARM GAS  /tmp/cc4MBWm7.s 			page 30


 645 017a 7047     		bx	lr	@
 646              	.L76:
 647              	.LBE5:
 648              	.LBE4:
 985:../../STM32F4-Discovery_FW_V1.1.0/Libraries/STM32F4xx_StdPeriph_Driver/src/stm32f4xx_flash.c ****     flashstatus = FLASH_BUSY;
 649              		.loc 1 985 0
 650 017c 0120     		movs	r0, #1	@ flashstatus,
 651 017e 7047     		bx	lr	@
 652              	.L77:
 991:../../STM32F4-Discovery_FW_V1.1.0/Libraries/STM32F4xx_StdPeriph_Driver/src/stm32f4xx_flash.c ****       flashstatus = FLASH_ERROR_WRP;
 653              		.loc 1 991 0
 654 0180 0520     		movs	r0, #5	@ flashstatus,
 655 0182 7047     		bx	lr	@
 656              	.L78:
 997:../../STM32F4-Discovery_FW_V1.1.0/Libraries/STM32F4xx_StdPeriph_Driver/src/stm32f4xx_flash.c ****         flashstatus = FLASH_ERROR_PROGRAM; 
 657              		.loc 1 997 0
 658 0184 0620     		movs	r0, #6	@ flashstatus,
 659              	.LVL29:
1004:../../STM32F4-Discovery_FW_V1.1.0/Libraries/STM32F4xx_StdPeriph_Driver/src/stm32f4xx_flash.c ****         }
1005:../../STM32F4-Discovery_FW_V1.1.0/Libraries/STM32F4xx_StdPeriph_Driver/src/stm32f4xx_flash.c ****         else
1006:../../STM32F4-Discovery_FW_V1.1.0/Libraries/STM32F4xx_StdPeriph_Driver/src/stm32f4xx_flash.c ****         {
1007:../../STM32F4-Discovery_FW_V1.1.0/Libraries/STM32F4xx_StdPeriph_Driver/src/stm32f4xx_flash.c ****           flashstatus = FLASH_COMPLETE;
1008:../../STM32F4-Discovery_FW_V1.1.0/Libraries/STM32F4xx_StdPeriph_Driver/src/stm32f4xx_flash.c ****         }
1009:../../STM32F4-Discovery_FW_V1.1.0/Libraries/STM32F4xx_StdPeriph_Driver/src/stm32f4xx_flash.c ****       }
1010:../../STM32F4-Discovery_FW_V1.1.0/Libraries/STM32F4xx_StdPeriph_Driver/src/stm32f4xx_flash.c ****     }
1011:../../STM32F4-Discovery_FW_V1.1.0/Libraries/STM32F4xx_StdPeriph_Driver/src/stm32f4xx_flash.c ****   }
1012:../../STM32F4-Discovery_FW_V1.1.0/Libraries/STM32F4xx_StdPeriph_Driver/src/stm32f4xx_flash.c ****   /* Return the FLASH Status */
1013:../../STM32F4-Discovery_FW_V1.1.0/Libraries/STM32F4xx_StdPeriph_Driver/src/stm32f4xx_flash.c ****   return flashstatus;
1014:../../STM32F4-Discovery_FW_V1.1.0/Libraries/STM32F4xx_StdPeriph_Driver/src/stm32f4xx_flash.c **** }
 660              		.loc 1 1014 0
 661 0186 7047     		bx	lr	@
 662              	.L81:
 663              		.align	2
 664              	.L80:
 665 0188 003C0240 		.word	1073888256
 666              		.cfi_endproc
 667              	.LFE138:
 668              		.size	FLASH_GetStatus, .-FLASH_GetStatus
 669              		.align	1
 670              		.global	FLASH_WaitForLastOperation
 671              		.thumb
 672              		.thumb_func
 673              		.type	FLASH_WaitForLastOperation, %function
 674              	FLASH_WaitForLastOperation:
 675              	.LFB139:
1015:../../STM32F4-Discovery_FW_V1.1.0/Libraries/STM32F4xx_StdPeriph_Driver/src/stm32f4xx_flash.c **** 
1016:../../STM32F4-Discovery_FW_V1.1.0/Libraries/STM32F4xx_StdPeriph_Driver/src/stm32f4xx_flash.c **** /**
1017:../../STM32F4-Discovery_FW_V1.1.0/Libraries/STM32F4xx_StdPeriph_Driver/src/stm32f4xx_flash.c ****   * @brief  Waits for a FLASH operation to complete.
1018:../../STM32F4-Discovery_FW_V1.1.0/Libraries/STM32F4xx_StdPeriph_Driver/src/stm32f4xx_flash.c ****   * @param  None
1019:../../STM32F4-Discovery_FW_V1.1.0/Libraries/STM32F4xx_StdPeriph_Driver/src/stm32f4xx_flash.c ****   * @retval FLASH Status: The returned value can be: FLASH_BUSY, FLASH_ERROR_PROGRAM,
1020:../../STM32F4-Discovery_FW_V1.1.0/Libraries/STM32F4xx_StdPeriph_Driver/src/stm32f4xx_flash.c ****   *                       FLASH_ERROR_WRP, FLASH_ERROR_OPERATION or FLASH_COMPLETE.
1021:../../STM32F4-Discovery_FW_V1.1.0/Libraries/STM32F4xx_StdPeriph_Driver/src/stm32f4xx_flash.c ****   */
1022:../../STM32F4-Discovery_FW_V1.1.0/Libraries/STM32F4xx_StdPeriph_Driver/src/stm32f4xx_flash.c **** FLASH_Status FLASH_WaitForLastOperation(void)
1023:../../STM32F4-Discovery_FW_V1.1.0/Libraries/STM32F4xx_StdPeriph_Driver/src/stm32f4xx_flash.c **** { 
 676              		.loc 1 1023 0
 677              		.cfi_startproc
 678              		@ args = 0, pretend = 0, frame = 8
ARM GAS  /tmp/cc4MBWm7.s 			page 31


 679              		@ frame_needed = 0, uses_anonymous_args = 0
 680 018c 07B5     		push	{r0, r1, r2, lr}	@
 681              	.LCFI0:
 682              		.cfi_def_cfa_offset 16
 683              		.cfi_offset 0, -16
 684              		.cfi_offset 1, -12
 685              		.cfi_offset 2, -8
 686              		.cfi_offset 14, -4
1024:../../STM32F4-Discovery_FW_V1.1.0/Libraries/STM32F4xx_StdPeriph_Driver/src/stm32f4xx_flash.c ****   __IO FLASH_Status status = FLASH_COMPLETE;
 687              		.loc 1 1024 0
 688 018e 0823     		movs	r3, #8	@ tmp139,
 689 0190 8DF80730 		strb	r3, [sp, #7]	@ tmp139, status
 690              	.LVL30:
 691              	.L84:
1025:../../STM32F4-Discovery_FW_V1.1.0/Libraries/STM32F4xx_StdPeriph_Driver/src/stm32f4xx_flash.c ****    
1026:../../STM32F4-Discovery_FW_V1.1.0/Libraries/STM32F4xx_StdPeriph_Driver/src/stm32f4xx_flash.c ****   /* Check for the FLASH Status */
1027:../../STM32F4-Discovery_FW_V1.1.0/Libraries/STM32F4xx_StdPeriph_Driver/src/stm32f4xx_flash.c ****   status = FLASH_GetStatus();
1028:../../STM32F4-Discovery_FW_V1.1.0/Libraries/STM32F4xx_StdPeriph_Driver/src/stm32f4xx_flash.c **** 
1029:../../STM32F4-Discovery_FW_V1.1.0/Libraries/STM32F4xx_StdPeriph_Driver/src/stm32f4xx_flash.c ****   /* Wait for the FLASH operation to complete by polling on BUSY flag to be reset.
1030:../../STM32F4-Discovery_FW_V1.1.0/Libraries/STM32F4xx_StdPeriph_Driver/src/stm32f4xx_flash.c ****      Even if the FLASH operation fails, the BUSY flag will be reset and an error
1031:../../STM32F4-Discovery_FW_V1.1.0/Libraries/STM32F4xx_StdPeriph_Driver/src/stm32f4xx_flash.c ****      flag will be set */
1032:../../STM32F4-Discovery_FW_V1.1.0/Libraries/STM32F4xx_StdPeriph_Driver/src/stm32f4xx_flash.c ****   while(status == FLASH_BUSY)
1033:../../STM32F4-Discovery_FW_V1.1.0/Libraries/STM32F4xx_StdPeriph_Driver/src/stm32f4xx_flash.c ****   {
1034:../../STM32F4-Discovery_FW_V1.1.0/Libraries/STM32F4xx_StdPeriph_Driver/src/stm32f4xx_flash.c ****     status = FLASH_GetStatus();
 692              		.loc 1 1034 0
 693 0194 FFF7FEFF 		bl	FLASH_GetStatus	@
 694              	.LVL31:
 695 0198 8DF80700 		strb	r0, [sp, #7]	@ tmp143, status
1032:../../STM32F4-Discovery_FW_V1.1.0/Libraries/STM32F4xx_StdPeriph_Driver/src/stm32f4xx_flash.c ****   while(status == FLASH_BUSY)
 696              		.loc 1 1032 0
 697 019c 9DF80700 		ldrb	r0, [sp, #7]	@ zero_extendqisi2	@ status, status
 698              	.LVL32:
 699 01a0 0128     		cmp	r0, #1	@ status,
 700 01a2 F7D0     		beq	.L84	@,
1035:../../STM32F4-Discovery_FW_V1.1.0/Libraries/STM32F4xx_StdPeriph_Driver/src/stm32f4xx_flash.c ****   }
1036:../../STM32F4-Discovery_FW_V1.1.0/Libraries/STM32F4xx_StdPeriph_Driver/src/stm32f4xx_flash.c ****   /* Return the operation status */
1037:../../STM32F4-Discovery_FW_V1.1.0/Libraries/STM32F4xx_StdPeriph_Driver/src/stm32f4xx_flash.c ****   return status;
 701              		.loc 1 1037 0
 702 01a4 9DF80700 		ldrb	r0, [sp, #7]	@ zero_extendqisi2	@ status, status
 703              	.LVL33:
 704              	.LVL34:
1038:../../STM32F4-Discovery_FW_V1.1.0/Libraries/STM32F4xx_StdPeriph_Driver/src/stm32f4xx_flash.c **** }
 705              		.loc 1 1038 0
 706 01a8 0EBD     		pop	{r1, r2, r3, pc}
 707              		.cfi_endproc
 708              	.LFE139:
 709              		.size	FLASH_WaitForLastOperation, .-FLASH_WaitForLastOperation
 710              		.align	1
 711              		.global	FLASH_OB_Launch
 712              		.thumb
 713              		.thumb_func
 714              		.type	FLASH_OB_Launch, %function
 715              	FLASH_OB_Launch:
 716              	.LFB130:
 807:../../STM32F4-Discovery_FW_V1.1.0/Libraries/STM32F4xx_StdPeriph_Driver/src/stm32f4xx_flash.c **** {
 717              		.loc 1 807 0
 718              		.cfi_startproc
ARM GAS  /tmp/cc4MBWm7.s 			page 32


 719              		@ args = 0, pretend = 0, frame = 0
 720              		@ frame_needed = 0, uses_anonymous_args = 0
 721              		@ link register save eliminated.
 722              	.LVL35:
 811:../../STM32F4-Discovery_FW_V1.1.0/Libraries/STM32F4xx_StdPeriph_Driver/src/stm32f4xx_flash.c ****   *(__IO uint8_t *)OPTCR_BYTE0_ADDRESS |= FLASH_OPTCR_OPTSTRT;
 723              		.loc 1 811 0
 724 01aa 034B     		ldr	r3, .L86	@ tmp138,
 725 01ac 1A78     		ldrb	r2, [r3, #0]	@ zero_extendqisi2	@ MEM[(volatile uint8_t *)1073888276B], MEM[(volatile uint8_t
 726 01ae 42F00200 		orr	r0, r2, #2	@ D.5790, MEM[(volatile uint8_t *)1073888276B],
 727 01b2 1870     		strb	r0, [r3, #0]	@ D.5790, MEM[(volatile uint8_t *)1073888276B]
 817:../../STM32F4-Discovery_FW_V1.1.0/Libraries/STM32F4xx_StdPeriph_Driver/src/stm32f4xx_flash.c **** }
 728              		.loc 1 817 0
 814:../../STM32F4-Discovery_FW_V1.1.0/Libraries/STM32F4xx_StdPeriph_Driver/src/stm32f4xx_flash.c ****   status = FLASH_WaitForLastOperation();
 729              		.loc 1 814 0
 730 01b4 FFF7FEBF 		b	FLASH_WaitForLastOperation	@
 731              	.LVL36:
 732              	.L87:
 733              		.align	2
 734              	.L86:
 735 01b8 143C0240 		.word	1073888276
 736              		.cfi_endproc
 737              	.LFE130:
 738              		.size	FLASH_OB_Launch, .-FLASH_OB_Launch
 739              		.align	1
 740              		.global	FLASH_OB_UserConfig
 741              		.thumb
 742              		.thumb_func
 743              		.type	FLASH_OB_UserConfig, %function
 744              	FLASH_OB_UserConfig:
 745              	.LFB128:
 757:../../STM32F4-Discovery_FW_V1.1.0/Libraries/STM32F4xx_StdPeriph_Driver/src/stm32f4xx_flash.c **** {
 746              		.loc 1 757 0
 747              		.cfi_startproc
 748              		@ args = 0, pretend = 0, frame = 0
 749              		@ frame_needed = 0, uses_anonymous_args = 0
 750              	.LVL37:
 751 01bc 70B5     		push	{r4, r5, r6, lr}	@
 752              	.LCFI1:
 753              		.cfi_def_cfa_offset 16
 754              		.cfi_offset 4, -16
 755              		.cfi_offset 5, -12
 756              		.cfi_offset 6, -8
 757              		.cfi_offset 14, -4
 757:../../STM32F4-Discovery_FW_V1.1.0/Libraries/STM32F4xx_StdPeriph_Driver/src/stm32f4xx_flash.c **** {
 758              		.loc 1 757 0
 759 01be 0446     		mov	r4, r0	@ OB_IWDG, OB_IWDG
 760 01c0 0D46     		mov	r5, r1	@ OB_STOP, OB_STOP
 761 01c2 1646     		mov	r6, r2	@ OB_STDBY, OB_STDBY
 767:../../STM32F4-Discovery_FW_V1.1.0/Libraries/STM32F4xx_StdPeriph_Driver/src/stm32f4xx_flash.c ****   status = FLASH_WaitForLastOperation();
 762              		.loc 1 767 0
 763 01c4 FFF7FEFF 		bl	FLASH_WaitForLastOperation	@
 764              	.LVL38:
 769:../../STM32F4-Discovery_FW_V1.1.0/Libraries/STM32F4xx_StdPeriph_Driver/src/stm32f4xx_flash.c ****   if(status == FLASH_COMPLETE)
 765              		.loc 1 769 0
 766 01c8 0828     		cmp	r0, #8	@,
 767 01ca 07D1     		bne	.L88	@,
 772:../../STM32F4-Discovery_FW_V1.1.0/Libraries/STM32F4xx_StdPeriph_Driver/src/stm32f4xx_flash.c ****     optiontmp =  (uint8_t)((*(__IO uint8_t *)OPTCR_BYTE0_ADDRESS) & (uint8_t)0x0F); 
ARM GAS  /tmp/cc4MBWm7.s 			page 33


 768              		.loc 1 772 0
 769 01cc 044B     		ldr	r3, .L90	@ tmp144,
 770 01ce 1A78     		ldrb	r2, [r3, #0]	@ zero_extendqisi2	@ MEM[(volatile uint8_t *)1073888276B], MEM[(volatile uint8_t
 771              	.LVL39:
 772 01d0 02F00F00 		and	r0, r2, #15	@ tmp147, MEM[(volatile uint8_t *)1073888276B],
 773              	.LVL40:
 775:../../STM32F4-Discovery_FW_V1.1.0/Libraries/STM32F4xx_StdPeriph_Driver/src/stm32f4xx_flash.c ****     *(__IO uint8_t *)OPTCR_BYTE0_ADDRESS = OB_IWDG | (uint8_t)(OB_STDBY | (uint8_t)(OB_STOP | ((uin
 774              		.loc 1 775 0
 775 01d4 0443     		orrs	r4, r4, r0	@, tmp149, OB_IWDG, tmp147
 776 01d6 2543     		orrs	r5, r5, r4	@, tmp151, OB_STOP, tmp149
 777 01d8 2E43     		orrs	r6, r6, r5	@, D.5804, OB_STDBY, tmp151
 778 01da 1E70     		strb	r6, [r3, #0]	@ D.5804, MEM[(volatile uint8_t *)1073888276B]
 779              	.LVL41:
 780              	.L88:
 781 01dc 70BD     		pop	{r4, r5, r6, pc}	@
 782              	.L91:
 783 01de 00BF     		.align	2
 784              	.L90:
 785 01e0 143C0240 		.word	1073888276
 786              		.cfi_endproc
 787              	.LFE128:
 788              		.size	FLASH_OB_UserConfig, .-FLASH_OB_UserConfig
 789              		.align	1
 790              		.global	FLASH_OB_RDPConfig
 791              		.thumb
 792              		.thumb_func
 793              		.type	FLASH_OB_RDPConfig, %function
 794              	FLASH_OB_RDPConfig:
 795              	.LFB127:
 725:../../STM32F4-Discovery_FW_V1.1.0/Libraries/STM32F4xx_StdPeriph_Driver/src/stm32f4xx_flash.c **** {
 796              		.loc 1 725 0
 797              		.cfi_startproc
 798              		@ args = 0, pretend = 0, frame = 0
 799              		@ frame_needed = 0, uses_anonymous_args = 0
 800              	.LVL42:
 801 01e4 10B5     		push	{r4, lr}	@
 802              	.LCFI2:
 803              		.cfi_def_cfa_offset 8
 804              		.cfi_offset 4, -8
 805              		.cfi_offset 14, -4
 725:../../STM32F4-Discovery_FW_V1.1.0/Libraries/STM32F4xx_StdPeriph_Driver/src/stm32f4xx_flash.c **** {
 806              		.loc 1 725 0
 807 01e6 0446     		mov	r4, r0	@ OB_RDP, OB_RDP
 731:../../STM32F4-Discovery_FW_V1.1.0/Libraries/STM32F4xx_StdPeriph_Driver/src/stm32f4xx_flash.c ****   status = FLASH_WaitForLastOperation();
 808              		.loc 1 731 0
 809 01e8 FFF7FEFF 		bl	FLASH_WaitForLastOperation	@
 810              	.LVL43:
 733:../../STM32F4-Discovery_FW_V1.1.0/Libraries/STM32F4xx_StdPeriph_Driver/src/stm32f4xx_flash.c ****   if(status == FLASH_COMPLETE)
 811              		.loc 1 733 0
 812 01ec 0828     		cmp	r0, #8	@,
 735:../../STM32F4-Discovery_FW_V1.1.0/Libraries/STM32F4xx_StdPeriph_Driver/src/stm32f4xx_flash.c ****     *(__IO uint8_t*)OPTCR_BYTE1_ADDRESS = OB_RDP;
 813              		.loc 1 735 0
 814 01ee 04BF     		itt	eq
 815 01f0 014B     		ldreq	r3, .L94	@ tmp137,
 816 01f2 1C70     		strbeq	r4, [r3, #0]	@ OB_RDP, MEM[(volatile uint8_t *)1073888277B]
 817 01f4 10BD     		pop	{r4, pc}	@
 818              	.L95:
ARM GAS  /tmp/cc4MBWm7.s 			page 34


 819 01f6 00BF     		.align	2
 820              	.L94:
 821 01f8 153C0240 		.word	1073888277
 822              		.cfi_endproc
 823              	.LFE127:
 824              		.size	FLASH_OB_RDPConfig, .-FLASH_OB_RDPConfig
 825              		.align	1
 826              		.global	FLASH_OB_WRPConfig
 827              		.thumb
 828              		.thumb_func
 829              		.type	FLASH_OB_WRPConfig, %function
 830              	FLASH_OB_WRPConfig:
 831              	.LFB126:
 690:../../STM32F4-Discovery_FW_V1.1.0/Libraries/STM32F4xx_StdPeriph_Driver/src/stm32f4xx_flash.c **** { 
 832              		.loc 1 690 0
 833              		.cfi_startproc
 834              		@ args = 0, pretend = 0, frame = 0
 835              		@ frame_needed = 0, uses_anonymous_args = 0
 836              	.LVL44:
 837 01fc 38B5     		push	{r3, r4, r5, lr}	@
 838              	.LCFI3:
 839              		.cfi_def_cfa_offset 16
 840              		.cfi_offset 3, -16
 841              		.cfi_offset 4, -12
 842              		.cfi_offset 5, -8
 843              		.cfi_offset 14, -4
 690:../../STM32F4-Discovery_FW_V1.1.0/Libraries/STM32F4xx_StdPeriph_Driver/src/stm32f4xx_flash.c **** { 
 844              		.loc 1 690 0
 845 01fe 0446     		mov	r4, r0	@ OB_WRP, OB_WRP
 846 0200 0D46     		mov	r5, r1	@ NewState, NewState
 697:../../STM32F4-Discovery_FW_V1.1.0/Libraries/STM32F4xx_StdPeriph_Driver/src/stm32f4xx_flash.c ****   status = FLASH_WaitForLastOperation();
 847              		.loc 1 697 0
 848 0202 FFF7FEFF 		bl	FLASH_WaitForLastOperation	@
 849              	.LVL45:
 699:../../STM32F4-Discovery_FW_V1.1.0/Libraries/STM32F4xx_StdPeriph_Driver/src/stm32f4xx_flash.c ****   if(status == FLASH_COMPLETE)
 850              		.loc 1 699 0
 851 0206 0828     		cmp	r0, #8	@,
 852 0208 09D1     		bne	.L96	@,
 853 020a 054B     		ldr	r3, .L100	@ tmp159,
 703:../../STM32F4-Discovery_FW_V1.1.0/Libraries/STM32F4xx_StdPeriph_Driver/src/stm32f4xx_flash.c ****       *(__IO uint16_t*)OPTCR_BYTE2_ADDRESS &= (~OB_WRP);
 854              		.loc 1 703 0
 855 020c 1A88     		ldrh	r2, [r3, #0]	@,
 701:../../STM32F4-Discovery_FW_V1.1.0/Libraries/STM32F4xx_StdPeriph_Driver/src/stm32f4xx_flash.c ****     if(NewState != DISABLE)
 856              		.loc 1 701 0
 857 020e 1DB1     		cbz	r5, .L98	@ NewState,
 703:../../STM32F4-Discovery_FW_V1.1.0/Libraries/STM32F4xx_StdPeriph_Driver/src/stm32f4xx_flash.c ****       *(__IO uint16_t*)OPTCR_BYTE2_ADDRESS &= (~OB_WRP);
 858              		.loc 1 703 0
 859 0210 90B2     		uxth	r0, r2	@ D.5813, MEM[(volatile uint16_t *)1073888278B]
 860              	.LVL46:
 861 0212 20EA0404 		bic	r4, r0, r4	@ D.5816, D.5813, OB_WRP
 862              	.LVL47:
 863 0216 01E0     		b	.L99	@
 864              	.LVL48:
 865              	.L98:
 707:../../STM32F4-Discovery_FW_V1.1.0/Libraries/STM32F4xx_StdPeriph_Driver/src/stm32f4xx_flash.c ****       *(__IO uint16_t*)OPTCR_BYTE2_ADDRESS |= (uint16_t)OB_WRP;
 866              		.loc 1 707 0
 867 0218 1443     		orrs	r4, r4, r2	@, tmp156, OB_WRP, MEM[(volatile uint16_t *)1073888278B]
ARM GAS  /tmp/cc4MBWm7.s 			page 35


 868              	.LVL49:
 869 021a A4B2     		uxth	r4, r4	@ D.5820, tmp156
 870              	.LVL50:
 871              	.L99:
 872 021c 1C80     		strh	r4, [r3, #0]	@ movhi	@ D.5820,
 873              	.L96:
 874 021e 38BD     		pop	{r3, r4, r5, pc}	@
 875              	.L101:
 876              		.align	2
 877              	.L100:
 878 0220 163C0240 		.word	1073888278
 879              		.cfi_endproc
 880              	.LFE126:
 881              		.size	FLASH_OB_WRPConfig, .-FLASH_OB_WRPConfig
 882              		.align	1
 883              		.global	FLASH_ProgramByte
 884              		.thumb
 885              		.thumb_func
 886              		.type	FLASH_ProgramByte, %function
 887              	FLASH_ProgramByte:
 888              	.LFB123:
 574:../../STM32F4-Discovery_FW_V1.1.0/Libraries/STM32F4xx_StdPeriph_Driver/src/stm32f4xx_flash.c **** {
 889              		.loc 1 574 0
 890              		.cfi_startproc
 891              		@ args = 0, pretend = 0, frame = 0
 892              		@ frame_needed = 0, uses_anonymous_args = 0
 893              	.LVL51:
 894 0224 70B5     		push	{r4, r5, r6, lr}	@
 895              	.LCFI4:
 896              		.cfi_def_cfa_offset 16
 897              		.cfi_offset 4, -16
 898              		.cfi_offset 5, -12
 899              		.cfi_offset 6, -8
 900              		.cfi_offset 14, -4
 574:../../STM32F4-Discovery_FW_V1.1.0/Libraries/STM32F4xx_StdPeriph_Driver/src/stm32f4xx_flash.c **** {
 901              		.loc 1 574 0
 902 0226 0546     		mov	r5, r0	@ Address, Address
 903 0228 0E46     		mov	r6, r1	@ Data, Data
 581:../../STM32F4-Discovery_FW_V1.1.0/Libraries/STM32F4xx_StdPeriph_Driver/src/stm32f4xx_flash.c ****   status = FLASH_WaitForLastOperation();
 904              		.loc 1 581 0
 905 022a FFF7FEFF 		bl	FLASH_WaitForLastOperation	@
 906              	.LVL52:
 583:../../STM32F4-Discovery_FW_V1.1.0/Libraries/STM32F4xx_StdPeriph_Driver/src/stm32f4xx_flash.c ****   if(status == FLASH_COMPLETE)
 907              		.loc 1 583 0
 908 022e 0828     		cmp	r0, #8	@ status,
 909 0230 11D1     		bne	.L103	@,
 586:../../STM32F4-Discovery_FW_V1.1.0/Libraries/STM32F4xx_StdPeriph_Driver/src/stm32f4xx_flash.c ****     FLASH->CR &= CR_PSIZE_MASK;
 910              		.loc 1 586 0
 911 0232 094C     		ldr	r4, .L104	@ tmp147,
 912 0234 2369     		ldr	r3, [r4, #16]	@ D.5832, MEM[(struct FLASH_TypeDef *)1073888256B].CR
 913 0236 23F44070 		bic	r0, r3, #768	@ D.5833, D.5832,
 914              	.LVL53:
 915 023a 2061     		str	r0, [r4, #16]	@ D.5833, MEM[(struct FLASH_TypeDef *)1073888256B].CR
 587:../../STM32F4-Discovery_FW_V1.1.0/Libraries/STM32F4xx_StdPeriph_Driver/src/stm32f4xx_flash.c ****     FLASH->CR |= FLASH_PSIZE_BYTE;
 916              		.loc 1 587 0
 917 023c 2169     		ldr	r1, [r4, #16]	@ D.5834, MEM[(struct FLASH_TypeDef *)1073888256B].CR
 918 023e 2161     		str	r1, [r4, #16]	@ D.5834, MEM[(struct FLASH_TypeDef *)1073888256B].CR
ARM GAS  /tmp/cc4MBWm7.s 			page 36


 588:../../STM32F4-Discovery_FW_V1.1.0/Libraries/STM32F4xx_StdPeriph_Driver/src/stm32f4xx_flash.c ****     FLASH->CR |= FLASH_CR_PG;
 919              		.loc 1 588 0
 920 0240 2269     		ldr	r2, [r4, #16]	@ D.5835, MEM[(struct FLASH_TypeDef *)1073888256B].CR
 921 0242 42F00103 		orr	r3, r2, #1	@ D.5836, D.5835,
 922 0246 2361     		str	r3, [r4, #16]	@ D.5836, MEM[(struct FLASH_TypeDef *)1073888256B].CR
 590:../../STM32F4-Discovery_FW_V1.1.0/Libraries/STM32F4xx_StdPeriph_Driver/src/stm32f4xx_flash.c ****     *(__IO uint8_t*)Address = Data;
 923              		.loc 1 590 0
 924 0248 2E70     		strb	r6, [r5, #0]	@ Data, *Address.3_16
 593:../../STM32F4-Discovery_FW_V1.1.0/Libraries/STM32F4xx_StdPeriph_Driver/src/stm32f4xx_flash.c ****     status = FLASH_WaitForLastOperation();
 925              		.loc 1 593 0
 926 024a FFF7FEFF 		bl	FLASH_WaitForLastOperation	@
 927              	.LVL54:
 596:../../STM32F4-Discovery_FW_V1.1.0/Libraries/STM32F4xx_StdPeriph_Driver/src/stm32f4xx_flash.c ****     FLASH->CR &= (~FLASH_CR_PG);
 928              		.loc 1 596 0
 929 024e 2169     		ldr	r1, [r4, #16]	@ D.5838, MEM[(struct FLASH_TypeDef *)1073888256B].CR
 930 0250 21F00102 		bic	r2, r1, #1	@ D.5839, D.5838,
 931 0254 2261     		str	r2, [r4, #16]	@ D.5839, MEM[(struct FLASH_TypeDef *)1073888256B].CR
 932              	.LVL55:
 933              	.L103:
 601:../../STM32F4-Discovery_FW_V1.1.0/Libraries/STM32F4xx_StdPeriph_Driver/src/stm32f4xx_flash.c **** }
 934              		.loc 1 601 0
 935 0256 70BD     		pop	{r4, r5, r6, pc}	@
 936              	.L105:
 937              		.align	2
 938              	.L104:
 939 0258 003C0240 		.word	1073888256
 940              		.cfi_endproc
 941              	.LFE123:
 942              		.size	FLASH_ProgramByte, .-FLASH_ProgramByte
 943              		.align	1
 944              		.global	FLASH_ProgramHalfWord
 945              		.thumb
 946              		.thumb_func
 947              		.type	FLASH_ProgramHalfWord, %function
 948              	FLASH_ProgramHalfWord:
 949              	.LFB122:
 536:../../STM32F4-Discovery_FW_V1.1.0/Libraries/STM32F4xx_StdPeriph_Driver/src/stm32f4xx_flash.c **** {
 950              		.loc 1 536 0
 951              		.cfi_startproc
 952              		@ args = 0, pretend = 0, frame = 0
 953              		@ frame_needed = 0, uses_anonymous_args = 0
 954              	.LVL56:
 955 025c 70B5     		push	{r4, r5, r6, lr}	@
 956              	.LCFI5:
 957              		.cfi_def_cfa_offset 16
 958              		.cfi_offset 4, -16
 959              		.cfi_offset 5, -12
 960              		.cfi_offset 6, -8
 961              		.cfi_offset 14, -4
 536:../../STM32F4-Discovery_FW_V1.1.0/Libraries/STM32F4xx_StdPeriph_Driver/src/stm32f4xx_flash.c **** {
 962              		.loc 1 536 0
 963 025e 0546     		mov	r5, r0	@ Address, Address
 964 0260 0E46     		mov	r6, r1	@ Data, Data
 543:../../STM32F4-Discovery_FW_V1.1.0/Libraries/STM32F4xx_StdPeriph_Driver/src/stm32f4xx_flash.c ****   status = FLASH_WaitForLastOperation();
 965              		.loc 1 543 0
 966 0262 FFF7FEFF 		bl	FLASH_WaitForLastOperation	@
 967              	.LVL57:
ARM GAS  /tmp/cc4MBWm7.s 			page 37


 545:../../STM32F4-Discovery_FW_V1.1.0/Libraries/STM32F4xx_StdPeriph_Driver/src/stm32f4xx_flash.c ****   if(status == FLASH_COMPLETE)
 968              		.loc 1 545 0
 969 0266 0828     		cmp	r0, #8	@ status,
 970 0268 13D1     		bne	.L107	@,
 548:../../STM32F4-Discovery_FW_V1.1.0/Libraries/STM32F4xx_StdPeriph_Driver/src/stm32f4xx_flash.c ****     FLASH->CR &= CR_PSIZE_MASK;
 971              		.loc 1 548 0
 972 026a 0A4C     		ldr	r4, .L108	@ tmp148,
 973 026c 2369     		ldr	r3, [r4, #16]	@ D.5845, MEM[(struct FLASH_TypeDef *)1073888256B].CR
 974 026e 23F44070 		bic	r0, r3, #768	@ D.5846, D.5845,
 975              	.LVL58:
 976 0272 2061     		str	r0, [r4, #16]	@ D.5846, MEM[(struct FLASH_TypeDef *)1073888256B].CR
 549:../../STM32F4-Discovery_FW_V1.1.0/Libraries/STM32F4xx_StdPeriph_Driver/src/stm32f4xx_flash.c ****     FLASH->CR |= FLASH_PSIZE_HALF_WORD;
 977              		.loc 1 549 0
 978 0274 2169     		ldr	r1, [r4, #16]	@ D.5847, MEM[(struct FLASH_TypeDef *)1073888256B].CR
 979 0276 41F48072 		orr	r2, r1, #256	@ D.5848, D.5847,
 980 027a 2261     		str	r2, [r4, #16]	@ D.5848, MEM[(struct FLASH_TypeDef *)1073888256B].CR
 550:../../STM32F4-Discovery_FW_V1.1.0/Libraries/STM32F4xx_StdPeriph_Driver/src/stm32f4xx_flash.c ****     FLASH->CR |= FLASH_CR_PG;
 981              		.loc 1 550 0
 982 027c 2369     		ldr	r3, [r4, #16]	@ D.5849, MEM[(struct FLASH_TypeDef *)1073888256B].CR
 983 027e 43F00100 		orr	r0, r3, #1	@ D.5850, D.5849,
 984 0282 2061     		str	r0, [r4, #16]	@ D.5850, MEM[(struct FLASH_TypeDef *)1073888256B].CR
 552:../../STM32F4-Discovery_FW_V1.1.0/Libraries/STM32F4xx_StdPeriph_Driver/src/stm32f4xx_flash.c ****     *(__IO uint16_t*)Address = Data;
 985              		.loc 1 552 0
 986 0284 2E80     		strh	r6, [r5, #0]	@ movhi	@ Data, *Address.4_17
 555:../../STM32F4-Discovery_FW_V1.1.0/Libraries/STM32F4xx_StdPeriph_Driver/src/stm32f4xx_flash.c ****     status = FLASH_WaitForLastOperation();
 987              		.loc 1 555 0
 988 0286 FFF7FEFF 		bl	FLASH_WaitForLastOperation	@
 989              	.LVL59:
 558:../../STM32F4-Discovery_FW_V1.1.0/Libraries/STM32F4xx_StdPeriph_Driver/src/stm32f4xx_flash.c ****     FLASH->CR &= (~FLASH_CR_PG);
 990              		.loc 1 558 0
 991 028a 2169     		ldr	r1, [r4, #16]	@ D.5852, MEM[(struct FLASH_TypeDef *)1073888256B].CR
 992 028c 21F00102 		bic	r2, r1, #1	@ D.5853, D.5852,
 993 0290 2261     		str	r2, [r4, #16]	@ D.5853, MEM[(struct FLASH_TypeDef *)1073888256B].CR
 994              	.LVL60:
 995              	.L107:
 562:../../STM32F4-Discovery_FW_V1.1.0/Libraries/STM32F4xx_StdPeriph_Driver/src/stm32f4xx_flash.c **** }
 996              		.loc 1 562 0
 997 0292 70BD     		pop	{r4, r5, r6, pc}	@
 998              	.L109:
 999              		.align	2
 1000              	.L108:
 1001 0294 003C0240 		.word	1073888256
 1002              		.cfi_endproc
 1003              	.LFE122:
 1004              		.size	FLASH_ProgramHalfWord, .-FLASH_ProgramHalfWord
 1005              		.align	1
 1006              		.global	FLASH_ProgramWord
 1007              		.thumb
 1008              		.thumb_func
 1009              		.type	FLASH_ProgramWord, %function
 1010              	FLASH_ProgramWord:
 1011              	.LFB121:
 498:../../STM32F4-Discovery_FW_V1.1.0/Libraries/STM32F4xx_StdPeriph_Driver/src/stm32f4xx_flash.c **** {
 1012              		.loc 1 498 0
 1013              		.cfi_startproc
 1014              		@ args = 0, pretend = 0, frame = 0
 1015              		@ frame_needed = 0, uses_anonymous_args = 0
ARM GAS  /tmp/cc4MBWm7.s 			page 38


 1016              	.LVL61:
 1017 0298 70B5     		push	{r4, r5, r6, lr}	@
 1018              	.LCFI6:
 1019              		.cfi_def_cfa_offset 16
 1020              		.cfi_offset 4, -16
 1021              		.cfi_offset 5, -12
 1022              		.cfi_offset 6, -8
 1023              		.cfi_offset 14, -4
 498:../../STM32F4-Discovery_FW_V1.1.0/Libraries/STM32F4xx_StdPeriph_Driver/src/stm32f4xx_flash.c **** {
 1024              		.loc 1 498 0
 1025 029a 0546     		mov	r5, r0	@ Address, Address
 1026 029c 0E46     		mov	r6, r1	@ Data, Data
 505:../../STM32F4-Discovery_FW_V1.1.0/Libraries/STM32F4xx_StdPeriph_Driver/src/stm32f4xx_flash.c ****   status = FLASH_WaitForLastOperation();
 1027              		.loc 1 505 0
 1028 029e FFF7FEFF 		bl	FLASH_WaitForLastOperation	@
 1029              	.LVL62:
 507:../../STM32F4-Discovery_FW_V1.1.0/Libraries/STM32F4xx_StdPeriph_Driver/src/stm32f4xx_flash.c ****   if(status == FLASH_COMPLETE)
 1030              		.loc 1 507 0
 1031 02a2 0828     		cmp	r0, #8	@ status,
 1032 02a4 13D1     		bne	.L111	@,
 510:../../STM32F4-Discovery_FW_V1.1.0/Libraries/STM32F4xx_StdPeriph_Driver/src/stm32f4xx_flash.c ****     FLASH->CR &= CR_PSIZE_MASK;
 1033              		.loc 1 510 0
 1034 02a6 0A4C     		ldr	r4, .L112	@ tmp148,
 1035 02a8 2369     		ldr	r3, [r4, #16]	@ D.5859, MEM[(struct FLASH_TypeDef *)1073888256B].CR
 1036 02aa 23F44070 		bic	r0, r3, #768	@ D.5860, D.5859,
 1037              	.LVL63:
 1038 02ae 2061     		str	r0, [r4, #16]	@ D.5860, MEM[(struct FLASH_TypeDef *)1073888256B].CR
 511:../../STM32F4-Discovery_FW_V1.1.0/Libraries/STM32F4xx_StdPeriph_Driver/src/stm32f4xx_flash.c ****     FLASH->CR |= FLASH_PSIZE_WORD;
 1039              		.loc 1 511 0
 1040 02b0 2169     		ldr	r1, [r4, #16]	@ D.5861, MEM[(struct FLASH_TypeDef *)1073888256B].CR
 1041 02b2 41F40072 		orr	r2, r1, #512	@ D.5862, D.5861,
 1042 02b6 2261     		str	r2, [r4, #16]	@ D.5862, MEM[(struct FLASH_TypeDef *)1073888256B].CR
 512:../../STM32F4-Discovery_FW_V1.1.0/Libraries/STM32F4xx_StdPeriph_Driver/src/stm32f4xx_flash.c ****     FLASH->CR |= FLASH_CR_PG;
 1043              		.loc 1 512 0
 1044 02b8 2369     		ldr	r3, [r4, #16]	@ D.5863, MEM[(struct FLASH_TypeDef *)1073888256B].CR
 1045 02ba 43F00100 		orr	r0, r3, #1	@ D.5864, D.5863,
 1046 02be 2061     		str	r0, [r4, #16]	@ D.5864, MEM[(struct FLASH_TypeDef *)1073888256B].CR
 514:../../STM32F4-Discovery_FW_V1.1.0/Libraries/STM32F4xx_StdPeriph_Driver/src/stm32f4xx_flash.c ****     *(__IO uint32_t*)Address = Data;
 1047              		.loc 1 514 0
 1048 02c0 2E60     		str	r6, [r5, #0]	@ Data, *Address.5_17
 517:../../STM32F4-Discovery_FW_V1.1.0/Libraries/STM32F4xx_StdPeriph_Driver/src/stm32f4xx_flash.c ****     status = FLASH_WaitForLastOperation();
 1049              		.loc 1 517 0
 1050 02c2 FFF7FEFF 		bl	FLASH_WaitForLastOperation	@
 1051              	.LVL64:
 520:../../STM32F4-Discovery_FW_V1.1.0/Libraries/STM32F4xx_StdPeriph_Driver/src/stm32f4xx_flash.c ****     FLASH->CR &= (~FLASH_CR_PG);
 1052              		.loc 1 520 0
 1053 02c6 2169     		ldr	r1, [r4, #16]	@ D.5866, MEM[(struct FLASH_TypeDef *)1073888256B].CR
 1054 02c8 21F00102 		bic	r2, r1, #1	@ D.5867, D.5866,
 1055 02cc 2261     		str	r2, [r4, #16]	@ D.5867, MEM[(struct FLASH_TypeDef *)1073888256B].CR
 1056              	.LVL65:
 1057              	.L111:
 524:../../STM32F4-Discovery_FW_V1.1.0/Libraries/STM32F4xx_StdPeriph_Driver/src/stm32f4xx_flash.c **** }
 1058              		.loc 1 524 0
 1059 02ce 70BD     		pop	{r4, r5, r6, pc}	@
 1060              	.L113:
 1061              		.align	2
 1062              	.L112:
ARM GAS  /tmp/cc4MBWm7.s 			page 39


 1063 02d0 003C0240 		.word	1073888256
 1064              		.cfi_endproc
 1065              	.LFE121:
 1066              		.size	FLASH_ProgramWord, .-FLASH_ProgramWord
 1067              		.align	1
 1068              		.global	FLASH_ProgramDoubleWord
 1069              		.thumb
 1070              		.thumb_func
 1071              		.type	FLASH_ProgramDoubleWord, %function
 1072              	FLASH_ProgramDoubleWord:
 1073              	.LFB120:
 460:../../STM32F4-Discovery_FW_V1.1.0/Libraries/STM32F4xx_StdPeriph_Driver/src/stm32f4xx_flash.c **** {
 1074              		.loc 1 460 0
 1075              		.cfi_startproc
 1076              		@ args = 0, pretend = 0, frame = 0
 1077              		@ frame_needed = 0, uses_anonymous_args = 0
 1078              	.LVL66:
 1079 02d4 F8B5     		push	{r3, r4, r5, r6, r7, lr}	@
 1080              	.LCFI7:
 1081              		.cfi_def_cfa_offset 24
 1082              		.cfi_offset 3, -24
 1083              		.cfi_offset 4, -20
 1084              		.cfi_offset 5, -16
 1085              		.cfi_offset 6, -12
 1086              		.cfi_offset 7, -8
 1087              		.cfi_offset 14, -4
 460:../../STM32F4-Discovery_FW_V1.1.0/Libraries/STM32F4xx_StdPeriph_Driver/src/stm32f4xx_flash.c **** {
 1088              		.loc 1 460 0
 1089 02d6 0746     		mov	r7, r0	@ Address, Address
 1090 02d8 1446     		mov	r4, r2	@ Data, Data
 1091 02da 1D46     		mov	r5, r3	@ Data, Data
 467:../../STM32F4-Discovery_FW_V1.1.0/Libraries/STM32F4xx_StdPeriph_Driver/src/stm32f4xx_flash.c ****   status = FLASH_WaitForLastOperation();
 1092              		.loc 1 467 0
 1093 02dc FFF7FEFF 		bl	FLASH_WaitForLastOperation	@
 1094              	.LVL67:
 469:../../STM32F4-Discovery_FW_V1.1.0/Libraries/STM32F4xx_StdPeriph_Driver/src/stm32f4xx_flash.c ****   if(status == FLASH_COMPLETE)
 1095              		.loc 1 469 0
 1096 02e0 0828     		cmp	r0, #8	@ status,
 1097 02e2 14D1     		bne	.L115	@,
 472:../../STM32F4-Discovery_FW_V1.1.0/Libraries/STM32F4xx_StdPeriph_Driver/src/stm32f4xx_flash.c ****     FLASH->CR &= CR_PSIZE_MASK;
 1098              		.loc 1 472 0
 1099 02e4 0A4E     		ldr	r6, .L116	@ tmp148,
 1100 02e6 3369     		ldr	r3, [r6, #16]	@ D.5873, MEM[(struct FLASH_TypeDef *)1073888256B].CR
 1101 02e8 23F44070 		bic	r0, r3, #768	@ D.5874, D.5873,
 1102              	.LVL68:
 1103 02ec 3061     		str	r0, [r6, #16]	@ D.5874, MEM[(struct FLASH_TypeDef *)1073888256B].CR
 473:../../STM32F4-Discovery_FW_V1.1.0/Libraries/STM32F4xx_StdPeriph_Driver/src/stm32f4xx_flash.c ****     FLASH->CR |= FLASH_PSIZE_DOUBLE_WORD;
 1104              		.loc 1 473 0
 1105 02ee 3169     		ldr	r1, [r6, #16]	@ D.5875, MEM[(struct FLASH_TypeDef *)1073888256B].CR
 1106 02f0 41F44072 		orr	r2, r1, #768	@ D.5876, D.5875,
 1107 02f4 3261     		str	r2, [r6, #16]	@ D.5876, MEM[(struct FLASH_TypeDef *)1073888256B].CR
 474:../../STM32F4-Discovery_FW_V1.1.0/Libraries/STM32F4xx_StdPeriph_Driver/src/stm32f4xx_flash.c ****     FLASH->CR |= FLASH_CR_PG;
 1108              		.loc 1 474 0
 1109 02f6 3369     		ldr	r3, [r6, #16]	@ D.5877, MEM[(struct FLASH_TypeDef *)1073888256B].CR
 1110 02f8 43F00100 		orr	r0, r3, #1	@ D.5878, D.5877,
 1111 02fc 3061     		str	r0, [r6, #16]	@ D.5878, MEM[(struct FLASH_TypeDef *)1073888256B].CR
 476:../../STM32F4-Discovery_FW_V1.1.0/Libraries/STM32F4xx_StdPeriph_Driver/src/stm32f4xx_flash.c ****     *(__IO uint64_t*)Address = Data;
ARM GAS  /tmp/cc4MBWm7.s 			page 40


 1112              		.loc 1 476 0
 1113 02fe C7E90045 		strd	r4, [r7]	@ Data, *Address.6_17
 479:../../STM32F4-Discovery_FW_V1.1.0/Libraries/STM32F4xx_StdPeriph_Driver/src/stm32f4xx_flash.c ****     status = FLASH_WaitForLastOperation();
 1114              		.loc 1 479 0
 1115 0302 FFF7FEFF 		bl	FLASH_WaitForLastOperation	@
 1116              	.LVL69:
 482:../../STM32F4-Discovery_FW_V1.1.0/Libraries/STM32F4xx_StdPeriph_Driver/src/stm32f4xx_flash.c ****     FLASH->CR &= (~FLASH_CR_PG);
 1117              		.loc 1 482 0
 1118 0306 3169     		ldr	r1, [r6, #16]	@ D.5880, MEM[(struct FLASH_TypeDef *)1073888256B].CR
 1119 0308 21F00102 		bic	r2, r1, #1	@ D.5881, D.5880,
 1120 030c 3261     		str	r2, [r6, #16]	@ D.5881, MEM[(struct FLASH_TypeDef *)1073888256B].CR
 1121              	.LVL70:
 1122              	.L115:
 486:../../STM32F4-Discovery_FW_V1.1.0/Libraries/STM32F4xx_StdPeriph_Driver/src/stm32f4xx_flash.c **** }
 1123              		.loc 1 486 0
 1124 030e F8BD     		pop	{r3, r4, r5, r6, r7, pc}	@
 1125              	.L117:
 1126              		.align	2
 1127              	.L116:
 1128 0310 003C0240 		.word	1073888256
 1129              		.cfi_endproc
 1130              	.LFE120:
 1131              		.size	FLASH_ProgramDoubleWord, .-FLASH_ProgramDoubleWord
 1132              		.align	1
 1133              		.global	FLASH_EraseAllSectors
 1134              		.thumb
 1135              		.thumb_func
 1136              		.type	FLASH_EraseAllSectors, %function
 1137              	FLASH_EraseAllSectors:
 1138              	.LFB119:
 407:../../STM32F4-Discovery_FW_V1.1.0/Libraries/STM32F4xx_StdPeriph_Driver/src/stm32f4xx_flash.c **** {
 1139              		.loc 1 407 0
 1140              		.cfi_startproc
 1141              		@ args = 0, pretend = 0, frame = 0
 1142              		@ frame_needed = 0, uses_anonymous_args = 0
 1143              	.LVL71:
 1144 0314 10B5     		push	{r4, lr}	@
 1145              	.LCFI8:
 1146              		.cfi_def_cfa_offset 8
 1147              		.cfi_offset 4, -8
 1148              		.cfi_offset 14, -4
 407:../../STM32F4-Discovery_FW_V1.1.0/Libraries/STM32F4xx_StdPeriph_Driver/src/stm32f4xx_flash.c **** {
 1149              		.loc 1 407 0
 1150 0316 0446     		mov	r4, r0	@ VoltageRange, VoltageRange
 412:../../STM32F4-Discovery_FW_V1.1.0/Libraries/STM32F4xx_StdPeriph_Driver/src/stm32f4xx_flash.c ****   status = FLASH_WaitForLastOperation();
 1151              		.loc 1 412 0
 1152 0318 FFF7FEFF 		bl	FLASH_WaitForLastOperation	@
 1153              	.LVL72:
 415:../../STM32F4-Discovery_FW_V1.1.0/Libraries/STM32F4xx_StdPeriph_Driver/src/stm32f4xx_flash.c ****   if(VoltageRange == VoltageRange_1)
 1154              		.loc 1 415 0
 1155 031c 44B1     		cbz	r4, .L121	@ VoltageRange,
 419:../../STM32F4-Discovery_FW_V1.1.0/Libraries/STM32F4xx_StdPeriph_Driver/src/stm32f4xx_flash.c ****   else if(VoltageRange == VoltageRange_2)
 1156              		.loc 1 419 0
 1157 031e 012C     		cmp	r4, #1	@ VoltageRange,
 1158 0320 08D0     		beq	.L122	@,
 425:../../STM32F4-Discovery_FW_V1.1.0/Libraries/STM32F4xx_StdPeriph_Driver/src/stm32f4xx_flash.c ****     tmp_psize = FLASH_PSIZE_WORD;
 1159              		.loc 1 425 0
ARM GAS  /tmp/cc4MBWm7.s 			page 41


 1160 0322 022C     		cmp	r4, #2	@ VoltageRange,
 1161 0324 14BF     		ite	ne	@
 1162 0326 4FF44073 		movne	r3, #768	@, tmp_psize,
 1163 032a 4FF40073 		moveq	r3, #512	@, tmp_psize,
 1164 032e 03E0     		b	.L119	@
 1165              	.L121:
 417:../../STM32F4-Discovery_FW_V1.1.0/Libraries/STM32F4xx_StdPeriph_Driver/src/stm32f4xx_flash.c ****      tmp_psize = FLASH_PSIZE_BYTE;
 1166              		.loc 1 417 0
 1167 0330 2346     		mov	r3, r4	@ tmp_psize, VoltageRange
 1168 0332 01E0     		b	.L119	@
 1169              	.L122:
 421:../../STM32F4-Discovery_FW_V1.1.0/Libraries/STM32F4xx_StdPeriph_Driver/src/stm32f4xx_flash.c ****     tmp_psize = FLASH_PSIZE_HALF_WORD;
 1170              		.loc 1 421 0
 1171 0334 4FF48073 		mov	r3, #256	@ tmp_psize,
 1172              	.L119:
 1173              	.LVL73:
 431:../../STM32F4-Discovery_FW_V1.1.0/Libraries/STM32F4xx_StdPeriph_Driver/src/stm32f4xx_flash.c ****   if(status == FLASH_COMPLETE)
 1174              		.loc 1 431 0
 1175 0338 0828     		cmp	r0, #8	@ status,
 1176 033a 15D1     		bne	.L120	@,
 434:../../STM32F4-Discovery_FW_V1.1.0/Libraries/STM32F4xx_StdPeriph_Driver/src/stm32f4xx_flash.c ****      FLASH->CR &= CR_PSIZE_MASK;
 1177              		.loc 1 434 0
 1178 033c 0B4C     		ldr	r4, .L124	@ tmp149,
 1179 033e 2269     		ldr	r2, [r4, #16]	@ D.5896, MEM[(struct FLASH_TypeDef *)1073888256B].CR
 1180 0340 22F44070 		bic	r0, r2, #768	@ D.5897, D.5896,
 1181              	.LVL74:
 1182 0344 2061     		str	r0, [r4, #16]	@ D.5897, MEM[(struct FLASH_TypeDef *)1073888256B].CR
 435:../../STM32F4-Discovery_FW_V1.1.0/Libraries/STM32F4xx_StdPeriph_Driver/src/stm32f4xx_flash.c ****      FLASH->CR |= tmp_psize;
 1183              		.loc 1 435 0
 1184 0346 2169     		ldr	r1, [r4, #16]	@ D.5898, MEM[(struct FLASH_TypeDef *)1073888256B].CR
 1185 0348 0B43     		orrs	r3, r3, r1	@, D.5899, tmp_psize, D.5898
 1186              	.LVL75:
 1187 034a 2361     		str	r3, [r4, #16]	@ D.5899, MEM[(struct FLASH_TypeDef *)1073888256B].CR
 436:../../STM32F4-Discovery_FW_V1.1.0/Libraries/STM32F4xx_StdPeriph_Driver/src/stm32f4xx_flash.c ****      FLASH->CR |= FLASH_CR_MER;
 1188              		.loc 1 436 0
 1189 034c 2369     		ldr	r3, [r4, #16]	@ D.5900, MEM[(struct FLASH_TypeDef *)1073888256B].CR
 1190 034e 43F00402 		orr	r2, r3, #4	@ D.5901, D.5900,
 1191 0352 2261     		str	r2, [r4, #16]	@ D.5901, MEM[(struct FLASH_TypeDef *)1073888256B].CR
 437:../../STM32F4-Discovery_FW_V1.1.0/Libraries/STM32F4xx_StdPeriph_Driver/src/stm32f4xx_flash.c ****      FLASH->CR |= FLASH_CR_STRT;
 1192              		.loc 1 437 0
 1193 0354 2069     		ldr	r0, [r4, #16]	@ D.5902, MEM[(struct FLASH_TypeDef *)1073888256B].CR
 1194 0356 40F48031 		orr	r1, r0, #65536	@ D.5903, D.5902,
 1195 035a 2161     		str	r1, [r4, #16]	@ D.5903, MEM[(struct FLASH_TypeDef *)1073888256B].CR
 440:../../STM32F4-Discovery_FW_V1.1.0/Libraries/STM32F4xx_StdPeriph_Driver/src/stm32f4xx_flash.c ****     status = FLASH_WaitForLastOperation();
 1196              		.loc 1 440 0
 1197 035c FFF7FEFF 		bl	FLASH_WaitForLastOperation	@
 1198              	.LVL76:
 443:../../STM32F4-Discovery_FW_V1.1.0/Libraries/STM32F4xx_StdPeriph_Driver/src/stm32f4xx_flash.c ****     FLASH->CR &= (~FLASH_CR_MER);
 1199              		.loc 1 443 0
 1200 0360 2369     		ldr	r3, [r4, #16]	@ D.5904, MEM[(struct FLASH_TypeDef *)1073888256B].CR
 1201 0362 23F00402 		bic	r2, r3, #4	@ D.5905, D.5904,
 1202 0366 2261     		str	r2, [r4, #16]	@ D.5905, MEM[(struct FLASH_TypeDef *)1073888256B].CR
 1203              	.LVL77:
 1204              	.L120:
 448:../../STM32F4-Discovery_FW_V1.1.0/Libraries/STM32F4xx_StdPeriph_Driver/src/stm32f4xx_flash.c **** }
 1205              		.loc 1 448 0
 1206 0368 10BD     		pop	{r4, pc}	@
ARM GAS  /tmp/cc4MBWm7.s 			page 42


 1207              	.L125:
 1208 036a 00BF     		.align	2
 1209              	.L124:
 1210 036c 003C0240 		.word	1073888256
 1211              		.cfi_endproc
 1212              	.LFE119:
 1213              		.size	FLASH_EraseAllSectors, .-FLASH_EraseAllSectors
 1214              		.align	1
 1215              		.global	FLASH_EraseSector
 1216              		.thumb
 1217              		.thumb_func
 1218              		.type	FLASH_EraseSector, %function
 1219              	FLASH_EraseSector:
 1220              	.LFB118:
 342:../../STM32F4-Discovery_FW_V1.1.0/Libraries/STM32F4xx_StdPeriph_Driver/src/stm32f4xx_flash.c **** {
 1221              		.loc 1 342 0
 1222              		.cfi_startproc
 1223              		@ args = 0, pretend = 0, frame = 0
 1224              		@ frame_needed = 0, uses_anonymous_args = 0
 1225              	.LVL78:
 1226 0370 70B5     		push	{r4, r5, r6, lr}	@
 1227              	.LCFI9:
 1228              		.cfi_def_cfa_offset 16
 1229              		.cfi_offset 4, -16
 1230              		.cfi_offset 5, -12
 1231              		.cfi_offset 6, -8
 1232              		.cfi_offset 14, -4
 342:../../STM32F4-Discovery_FW_V1.1.0/Libraries/STM32F4xx_StdPeriph_Driver/src/stm32f4xx_flash.c **** {
 1233              		.loc 1 342 0
 1234 0372 0646     		mov	r6, r0	@ FLASH_Sector, FLASH_Sector
 350:../../STM32F4-Discovery_FW_V1.1.0/Libraries/STM32F4xx_StdPeriph_Driver/src/stm32f4xx_flash.c ****   if(VoltageRange == VoltageRange_1)
 1235              		.loc 1 350 0
 1236 0374 41B1     		cbz	r1, .L129	@ VoltageRange,
 354:../../STM32F4-Discovery_FW_V1.1.0/Libraries/STM32F4xx_StdPeriph_Driver/src/stm32f4xx_flash.c ****   else if(VoltageRange == VoltageRange_2)
 1237              		.loc 1 354 0
 1238 0376 0129     		cmp	r1, #1	@ VoltageRange,
 1239 0378 08D0     		beq	.L130	@,
 360:../../STM32F4-Discovery_FW_V1.1.0/Libraries/STM32F4xx_StdPeriph_Driver/src/stm32f4xx_flash.c ****     tmp_psize = FLASH_PSIZE_WORD;
 1240              		.loc 1 360 0
 1241 037a 0229     		cmp	r1, #2	@ VoltageRange,
 1242 037c 14BF     		ite	ne	@
 1243 037e 4FF44075 		movne	r5, #768	@, tmp_psize,
 1244 0382 4FF40075 		moveq	r5, #512	@, tmp_psize,
 1245 0386 03E0     		b	.L127	@
 1246              	.L129:
 352:../../STM32F4-Discovery_FW_V1.1.0/Libraries/STM32F4xx_StdPeriph_Driver/src/stm32f4xx_flash.c ****      tmp_psize = FLASH_PSIZE_BYTE;
 1247              		.loc 1 352 0
 1248 0388 0D46     		mov	r5, r1	@ tmp_psize, VoltageRange
 1249 038a 01E0     		b	.L127	@
 1250              	.L130:
 356:../../STM32F4-Discovery_FW_V1.1.0/Libraries/STM32F4xx_StdPeriph_Driver/src/stm32f4xx_flash.c ****     tmp_psize = FLASH_PSIZE_HALF_WORD;
 1251              		.loc 1 356 0
 1252 038c 4FF48075 		mov	r5, #256	@ tmp_psize,
 1253              	.L127:
 1254              	.LVL79:
 367:../../STM32F4-Discovery_FW_V1.1.0/Libraries/STM32F4xx_StdPeriph_Driver/src/stm32f4xx_flash.c ****   status = FLASH_WaitForLastOperation();
 1255              		.loc 1 367 0
ARM GAS  /tmp/cc4MBWm7.s 			page 43


 1256 0390 FFF7FEFF 		bl	FLASH_WaitForLastOperation	@
 1257              	.LVL80:
 369:../../STM32F4-Discovery_FW_V1.1.0/Libraries/STM32F4xx_StdPeriph_Driver/src/stm32f4xx_flash.c ****   if(status == FLASH_COMPLETE)
 1258              		.loc 1 369 0
 1259 0394 0828     		cmp	r0, #8	@ status,
 1260 0396 1ED1     		bne	.L128	@,
 372:../../STM32F4-Discovery_FW_V1.1.0/Libraries/STM32F4xx_StdPeriph_Driver/src/stm32f4xx_flash.c ****     FLASH->CR &= CR_PSIZE_MASK;
 1261              		.loc 1 372 0
 1262 0398 0F4C     		ldr	r4, .L132	@ tmp155,
 1263 039a 2369     		ldr	r3, [r4, #16]	@ D.5920, MEM[(struct FLASH_TypeDef *)1073888256B].CR
 1264 039c 23F44070 		bic	r0, r3, #768	@ D.5921, D.5920,
 1265              	.LVL81:
 1266 03a0 2061     		str	r0, [r4, #16]	@ D.5921, MEM[(struct FLASH_TypeDef *)1073888256B].CR
 373:../../STM32F4-Discovery_FW_V1.1.0/Libraries/STM32F4xx_StdPeriph_Driver/src/stm32f4xx_flash.c ****     FLASH->CR |= tmp_psize;
 1267              		.loc 1 373 0
 1268 03a2 2169     		ldr	r1, [r4, #16]	@ D.5922, MEM[(struct FLASH_TypeDef *)1073888256B].CR
 1269 03a4 0D43     		orrs	r5, r5, r1	@, D.5923, tmp_psize, D.5922
 1270              	.LVL82:
 1271 03a6 2561     		str	r5, [r4, #16]	@ D.5923, MEM[(struct FLASH_TypeDef *)1073888256B].CR
 374:../../STM32F4-Discovery_FW_V1.1.0/Libraries/STM32F4xx_StdPeriph_Driver/src/stm32f4xx_flash.c ****     FLASH->CR &= SECTOR_MASK;
 1272              		.loc 1 374 0
 1273 03a8 2269     		ldr	r2, [r4, #16]	@ D.5924, MEM[(struct FLASH_TypeDef *)1073888256B].CR
 1274 03aa 22F0F803 		bic	r3, r2, #248	@ D.5925, D.5924,
 1275 03ae 2361     		str	r3, [r4, #16]	@ D.5925, MEM[(struct FLASH_TypeDef *)1073888256B].CR
 375:../../STM32F4-Discovery_FW_V1.1.0/Libraries/STM32F4xx_StdPeriph_Driver/src/stm32f4xx_flash.c ****     FLASH->CR |= FLASH_CR_SER | FLASH_Sector;
 1276              		.loc 1 375 0
 1277 03b0 2069     		ldr	r0, [r4, #16]	@ D.5926, MEM[(struct FLASH_TypeDef *)1073888256B].CR
 1278 03b2 40F00201 		orr	r1, r0, #2	@ tmp162, D.5926,
 1279 03b6 0E43     		orrs	r6, r6, r1	@, D.5928, FLASH_Sector, tmp162
 1280              	.LVL83:
 1281 03b8 2661     		str	r6, [r4, #16]	@ D.5928, MEM[(struct FLASH_TypeDef *)1073888256B].CR
 376:../../STM32F4-Discovery_FW_V1.1.0/Libraries/STM32F4xx_StdPeriph_Driver/src/stm32f4xx_flash.c ****     FLASH->CR |= FLASH_CR_STRT;
 1282              		.loc 1 376 0
 1283 03ba 2269     		ldr	r2, [r4, #16]	@ D.5929, MEM[(struct FLASH_TypeDef *)1073888256B].CR
 1284 03bc 42F48033 		orr	r3, r2, #65536	@ D.5930, D.5929,
 1285 03c0 2361     		str	r3, [r4, #16]	@ D.5930, MEM[(struct FLASH_TypeDef *)1073888256B].CR
 379:../../STM32F4-Discovery_FW_V1.1.0/Libraries/STM32F4xx_StdPeriph_Driver/src/stm32f4xx_flash.c ****     status = FLASH_WaitForLastOperation();
 1286              		.loc 1 379 0
 1287 03c2 FFF7FEFF 		bl	FLASH_WaitForLastOperation	@
 1288              	.LVL84:
 382:../../STM32F4-Discovery_FW_V1.1.0/Libraries/STM32F4xx_StdPeriph_Driver/src/stm32f4xx_flash.c ****     FLASH->CR &= (~FLASH_CR_SER);
 1289              		.loc 1 382 0
 1290 03c6 2169     		ldr	r1, [r4, #16]	@ D.5931, MEM[(struct FLASH_TypeDef *)1073888256B].CR
 1291 03c8 21F00202 		bic	r2, r1, #2	@ D.5932, D.5931,
 1292 03cc 2261     		str	r2, [r4, #16]	@ D.5932, MEM[(struct FLASH_TypeDef *)1073888256B].CR
 383:../../STM32F4-Discovery_FW_V1.1.0/Libraries/STM32F4xx_StdPeriph_Driver/src/stm32f4xx_flash.c ****     FLASH->CR &= SECTOR_MASK; 
 1293              		.loc 1 383 0
 1294 03ce 2369     		ldr	r3, [r4, #16]	@ D.5933, MEM[(struct FLASH_TypeDef *)1073888256B].CR
 1295 03d0 23F0F801 		bic	r1, r3, #248	@ D.5934, D.5933,
 1296 03d4 2161     		str	r1, [r4, #16]	@ D.5934, MEM[(struct FLASH_TypeDef *)1073888256B].CR
 1297              	.LVL85:
 1298              	.L128:
 387:../../STM32F4-Discovery_FW_V1.1.0/Libraries/STM32F4xx_StdPeriph_Driver/src/stm32f4xx_flash.c **** }
 1299              		.loc 1 387 0
 1300 03d6 70BD     		pop	{r4, r5, r6, pc}	@
 1301              	.L133:
 1302              		.align	2
ARM GAS  /tmp/cc4MBWm7.s 			page 44


 1303              	.L132:
 1304 03d8 003C0240 		.word	1073888256
 1305              		.cfi_endproc
 1306              	.LFE118:
 1307              		.size	FLASH_EraseSector, .-FLASH_EraseSector
 1308              	.Letext0:
 1309              		.file 2 "/home/jarhmander/Code/CC/ARM/gcc/gcc-arm-none-eabi-4_7-2012q4/bin/../lib/gcc/arm-none-eab
 1310              		.file 3 "../../STM32F4-Discovery_FW_V1.1.0/Libraries/CMSIS/ST/STM32F4xx/Include/stm32f4xx.h"
 1311              		.file 4 "../../STM32F4-Discovery_FW_V1.1.0/Libraries/STM32F4xx_StdPeriph_Driver/inc/stm32f4xx_flas
 1312              		.file 5 "../../STM32F4-Discovery_FW_V1.1.0/Libraries/CMSIS/Include/core_cm4.h"
 1313              		.section	.debug_info,"",%progbits
 1314              	.Ldebug_info0:
 1315 0000 62080000 		.4byte	0x862
 1316 0004 0200     		.2byte	0x2
 1317 0006 00000000 		.4byte	.Ldebug_abbrev0
 1318 000a 04       		.byte	0x4
 1319 000b 01       		.uleb128 0x1
 1320 000c B6030000 		.4byte	.LASF81
 1321 0010 01       		.byte	0x1
 1322 0011 25000000 		.4byte	.LASF82
 1323 0015 77040000 		.4byte	.LASF83
 1324 0019 00000000 		.4byte	.Ltext0
 1325 001d DC030000 		.4byte	.Letext0
 1326 0021 00000000 		.4byte	.Ldebug_line0
 1327 0025 02       		.uleb128 0x2
 1328 0026 08       		.byte	0x8
 1329 0027 07       		.byte	0x7
 1330 0028 B3020000 		.4byte	.LASF0
 1331 002c 02       		.uleb128 0x2
 1332 002d 01       		.byte	0x1
 1333 002e 06       		.byte	0x6
 1334 002f 93020000 		.4byte	.LASF1
 1335 0033 03       		.uleb128 0x3
 1336 0034 6F010000 		.4byte	.LASF4
 1337 0038 02       		.byte	0x2
 1338 0039 2A       		.byte	0x2a
 1339 003a 3E000000 		.4byte	0x3e
 1340 003e 02       		.uleb128 0x2
 1341 003f 01       		.byte	0x1
 1342 0040 08       		.byte	0x8
 1343 0041 52020000 		.4byte	.LASF2
 1344 0045 02       		.uleb128 0x2
 1345 0046 02       		.byte	0x2
 1346 0047 05       		.byte	0x5
 1347 0048 44010000 		.4byte	.LASF3
 1348 004c 03       		.uleb128 0x3
 1349 004d 5D030000 		.4byte	.LASF5
 1350 0051 02       		.byte	0x2
 1351 0052 36       		.byte	0x36
 1352 0053 57000000 		.4byte	0x57
 1353 0057 02       		.uleb128 0x2
 1354 0058 02       		.byte	0x2
 1355 0059 07       		.byte	0x7
 1356 005a 27030000 		.4byte	.LASF6
 1357 005e 03       		.uleb128 0x3
 1358 005f 66030000 		.4byte	.LASF7
 1359 0063 02       		.byte	0x2
ARM GAS  /tmp/cc4MBWm7.s 			page 45


 1360 0064 4F       		.byte	0x4f
 1361 0065 69000000 		.4byte	0x69
 1362 0069 02       		.uleb128 0x2
 1363 006a 04       		.byte	0x4
 1364 006b 05       		.byte	0x5
 1365 006c E4010000 		.4byte	.LASF8
 1366 0070 03       		.uleb128 0x3
 1367 0071 D5020000 		.4byte	.LASF9
 1368 0075 02       		.byte	0x2
 1369 0076 50       		.byte	0x50
 1370 0077 7B000000 		.4byte	0x7b
 1371 007b 02       		.uleb128 0x2
 1372 007c 04       		.byte	0x4
 1373 007d 07       		.byte	0x7
 1374 007e 15030000 		.4byte	.LASF10
 1375 0082 02       		.uleb128 0x2
 1376 0083 08       		.byte	0x8
 1377 0084 05       		.byte	0x5
 1378 0085 D6010000 		.4byte	.LASF11
 1379 0089 03       		.uleb128 0x3
 1380 008a A1000000 		.4byte	.LASF12
 1381 008e 02       		.byte	0x2
 1382 008f 78       		.byte	0x78
 1383 0090 25000000 		.4byte	0x25
 1384 0094 04       		.uleb128 0x4
 1385 0095 04       		.byte	0x4
 1386 0096 05       		.byte	0x5
 1387 0097 696E7400 		.ascii	"int\000"
 1388 009b 02       		.uleb128 0x2
 1389 009c 04       		.byte	0x4
 1390 009d 07       		.byte	0x7
 1391 009e EE020000 		.4byte	.LASF13
 1392 00a2 02       		.uleb128 0x2
 1393 00a3 04       		.byte	0x4
 1394 00a4 07       		.byte	0x7
 1395 00a5 BC000000 		.4byte	.LASF14
 1396 00a9 05       		.uleb128 0x5
 1397 00aa 70000000 		.4byte	0x70
 1398 00ae 05       		.uleb128 0x5
 1399 00af 5E000000 		.4byte	0x5e
 1400 00b3 06       		.uleb128 0x6
 1401 00b4 01       		.byte	0x1
 1402 00b5 03       		.byte	0x3
 1403 00b6 1D01     		.2byte	0x11d
 1404 00b8 C9000000 		.4byte	0xc9
 1405 00bc 07       		.uleb128 0x7
 1406 00bd 8F030000 		.4byte	.LASF15
 1407 00c1 00       		.sleb128 0
 1408 00c2 08       		.uleb128 0x8
 1409 00c3 53455400 		.ascii	"SET\000"
 1410 00c7 01       		.sleb128 1
 1411 00c8 00       		.byte	0
 1412 00c9 09       		.uleb128 0x9
 1413 00ca 47050000 		.4byte	.LASF16
 1414 00ce 03       		.byte	0x3
 1415 00cf 1D01     		.2byte	0x11d
 1416 00d1 B3000000 		.4byte	0xb3
ARM GAS  /tmp/cc4MBWm7.s 			page 46


 1417 00d5 06       		.uleb128 0x6
 1418 00d6 01       		.byte	0x1
 1419 00d7 03       		.byte	0x3
 1420 00d8 1F01     		.2byte	0x11f
 1421 00da EB000000 		.4byte	0xeb
 1422 00de 07       		.uleb128 0x7
 1423 00df 97010000 		.4byte	.LASF17
 1424 00e3 00       		.sleb128 0
 1425 00e4 07       		.uleb128 0x7
 1426 00e5 58050000 		.4byte	.LASF18
 1427 00e9 01       		.sleb128 1
 1428 00ea 00       		.byte	0
 1429 00eb 09       		.uleb128 0x9
 1430 00ec 0F040000 		.4byte	.LASF19
 1431 00f0 03       		.byte	0x3
 1432 00f1 1F01     		.2byte	0x11f
 1433 00f3 D5000000 		.4byte	0xd5
 1434 00f7 0A       		.uleb128 0xa
 1435 00f8 18       		.byte	0x18
 1436 00f9 03       		.byte	0x3
 1437 00fa 4502     		.2byte	0x245
 1438 00fc 59010000 		.4byte	0x159
 1439 0100 0B       		.uleb128 0xb
 1440 0101 41435200 		.ascii	"ACR\000"
 1441 0105 03       		.byte	0x3
 1442 0106 4702     		.2byte	0x247
 1443 0108 A9000000 		.4byte	0xa9
 1444 010c 02       		.byte	0x2
 1445 010d 23       		.byte	0x23
 1446 010e 00       		.uleb128 0
 1447 010f 0C       		.uleb128 0xc
 1448 0110 4D020000 		.4byte	.LASF20
 1449 0114 03       		.byte	0x3
 1450 0115 4802     		.2byte	0x248
 1451 0117 A9000000 		.4byte	0xa9
 1452 011b 02       		.byte	0x2
 1453 011c 23       		.byte	0x23
 1454 011d 04       		.uleb128 0x4
 1455 011e 0C       		.uleb128 0xc
 1456 011f CE010000 		.4byte	.LASF21
 1457 0123 03       		.byte	0x3
 1458 0124 4902     		.2byte	0x249
 1459 0126 A9000000 		.4byte	0xa9
 1460 012a 02       		.byte	0x2
 1461 012b 23       		.byte	0x23
 1462 012c 08       		.uleb128 0x8
 1463 012d 0B       		.uleb128 0xb
 1464 012e 535200   		.ascii	"SR\000"
 1465 0131 03       		.byte	0x3
 1466 0132 4A02     		.2byte	0x24a
 1467 0134 A9000000 		.4byte	0xa9
 1468 0138 02       		.byte	0x2
 1469 0139 23       		.byte	0x23
 1470 013a 0C       		.uleb128 0xc
 1471 013b 0B       		.uleb128 0xb
 1472 013c 435200   		.ascii	"CR\000"
 1473 013f 03       		.byte	0x3
ARM GAS  /tmp/cc4MBWm7.s 			page 47


 1474 0140 4B02     		.2byte	0x24b
 1475 0142 A9000000 		.4byte	0xa9
 1476 0146 02       		.byte	0x2
 1477 0147 23       		.byte	0x23
 1478 0148 10       		.uleb128 0x10
 1479 0149 0C       		.uleb128 0xc
 1480 014a 52050000 		.4byte	.LASF22
 1481 014e 03       		.byte	0x3
 1482 014f 4C02     		.2byte	0x24c
 1483 0151 A9000000 		.4byte	0xa9
 1484 0155 02       		.byte	0x2
 1485 0156 23       		.byte	0x23
 1486 0157 14       		.uleb128 0x14
 1487 0158 00       		.byte	0
 1488 0159 09       		.uleb128 0x9
 1489 015a EF040000 		.4byte	.LASF23
 1490 015e 03       		.byte	0x3
 1491 015f 4D02     		.2byte	0x24d
 1492 0161 F7000000 		.4byte	0xf7
 1493 0165 0D       		.uleb128 0xd
 1494 0166 01       		.byte	0x1
 1495 0167 04       		.byte	0x4
 1496 0168 2F       		.byte	0x2f
 1497 0169 9E010000 		.4byte	0x19e
 1498 016d 07       		.uleb128 0x7
 1499 016e 0A030000 		.4byte	.LASF24
 1500 0172 01       		.sleb128 1
 1501 0173 07       		.uleb128 0x7
 1502 0174 DF040000 		.4byte	.LASF25
 1503 0178 02       		.sleb128 2
 1504 0179 07       		.uleb128 0x7
 1505 017a 37050000 		.4byte	.LASF26
 1506 017e 03       		.sleb128 3
 1507 017f 07       		.uleb128 0x7
 1508 0180 BC040000 		.4byte	.LASF27
 1509 0184 04       		.sleb128 4
 1510 0185 07       		.uleb128 0x7
 1511 0186 91000000 		.4byte	.LASF28
 1512 018a 05       		.sleb128 5
 1513 018b 07       		.uleb128 0x7
 1514 018c 59040000 		.4byte	.LASF29
 1515 0190 06       		.sleb128 6
 1516 0191 07       		.uleb128 0x7
 1517 0192 FA010000 		.4byte	.LASF30
 1518 0196 07       		.sleb128 7
 1519 0197 07       		.uleb128 0x7
 1520 0198 FB020000 		.4byte	.LASF31
 1521 019c 08       		.sleb128 8
 1522 019d 00       		.byte	0
 1523 019e 03       		.uleb128 0x3
 1524 019f 77010000 		.4byte	.LASF32
 1525 01a3 04       		.byte	0x4
 1526 01a4 38       		.byte	0x38
 1527 01a5 65010000 		.4byte	0x165
 1528 01a9 0E       		.uleb128 0xe
 1529 01aa 01       		.byte	0x1
 1530 01ab 6E030000 		.4byte	.LASF84
ARM GAS  /tmp/cc4MBWm7.s 			page 48


 1531 01af 01       		.byte	0x1
 1532 01b0 D303     		.2byte	0x3d3
 1533 01b2 01       		.byte	0x1
 1534 01b3 9E010000 		.4byte	0x19e
 1535 01b7 01       		.byte	0x1
 1536 01b8 C9010000 		.4byte	0x1c9
 1537 01bc 0F       		.uleb128 0xf
 1538 01bd 10020000 		.4byte	.LASF85
 1539 01c1 01       		.byte	0x1
 1540 01c2 D503     		.2byte	0x3d5
 1541 01c4 9E010000 		.4byte	0x19e
 1542 01c8 00       		.byte	0
 1543 01c9 10       		.uleb128 0x10
 1544 01ca 01       		.byte	0x1
 1545 01cb 7E030000 		.4byte	.LASF33
 1546 01cf 01       		.byte	0x1
 1547 01d0 A6       		.byte	0xa6
 1548 01d1 01       		.byte	0x1
 1549 01d2 00000000 		.4byte	.LFB110
 1550 01d6 0C000000 		.4byte	.LFE110
 1551 01da 02       		.byte	0x2
 1552 01db 7D       		.byte	0x7d
 1553 01dc 00       		.sleb128 0
 1554 01dd 01       		.byte	0x1
 1555 01de F2010000 		.4byte	0x1f2
 1556 01e2 11       		.uleb128 0x11
 1557 01e3 4B040000 		.4byte	.LASF35
 1558 01e7 01       		.byte	0x1
 1559 01e8 A6       		.byte	0xa6
 1560 01e9 70000000 		.4byte	0x70
 1561 01ed 00000000 		.4byte	.LLST0
 1562 01f1 00       		.byte	0
 1563 01f2 10       		.uleb128 0x10
 1564 01f3 01       		.byte	0x1
 1565 01f4 7B020000 		.4byte	.LASF34
 1566 01f8 01       		.byte	0x1
 1567 01f9 B5       		.byte	0xb5
 1568 01fa 01       		.byte	0x1
 1569 01fb 0C000000 		.4byte	.LFB111
 1570 01ff 24000000 		.4byte	.LFE111
 1571 0203 02       		.byte	0x2
 1572 0204 7D       		.byte	0x7d
 1573 0205 00       		.sleb128 0
 1574 0206 01       		.byte	0x1
 1575 0207 1B020000 		.4byte	0x21b
 1576 020b 11       		.uleb128 0x11
 1577 020c 8E010000 		.4byte	.LASF36
 1578 0210 01       		.byte	0x1
 1579 0211 B5       		.byte	0xb5
 1580 0212 EB000000 		.4byte	0xeb
 1581 0216 21000000 		.4byte	.LLST1
 1582 021a 00       		.byte	0
 1583 021b 10       		.uleb128 0x10
 1584 021c 01       		.byte	0x1
 1585 021d 9F010000 		.4byte	.LASF37
 1586 0221 01       		.byte	0x1
 1587 0222 CB       		.byte	0xcb
ARM GAS  /tmp/cc4MBWm7.s 			page 49


 1588 0223 01       		.byte	0x1
 1589 0224 24000000 		.4byte	.LFB112
 1590 0228 3C000000 		.4byte	.LFE112
 1591 022c 02       		.byte	0x2
 1592 022d 7D       		.byte	0x7d
 1593 022e 00       		.sleb128 0
 1594 022f 01       		.byte	0x1
 1595 0230 44020000 		.4byte	0x244
 1596 0234 11       		.uleb128 0x11
 1597 0235 8E010000 		.4byte	.LASF36
 1598 0239 01       		.byte	0x1
 1599 023a CB       		.byte	0xcb
 1600 023b EB000000 		.4byte	0xeb
 1601 023f 5B000000 		.4byte	.LLST2
 1602 0243 00       		.byte	0
 1603 0244 10       		.uleb128 0x10
 1604 0245 01       		.byte	0x1
 1605 0246 CC040000 		.4byte	.LASF38
 1606 024a 01       		.byte	0x1
 1607 024b E0       		.byte	0xe0
 1608 024c 01       		.byte	0x1
 1609 024d 3C000000 		.4byte	.LFB113
 1610 0251 54000000 		.4byte	.LFE113
 1611 0255 02       		.byte	0x2
 1612 0256 7D       		.byte	0x7d
 1613 0257 00       		.sleb128 0
 1614 0258 01       		.byte	0x1
 1615 0259 6D020000 		.4byte	0x26d
 1616 025d 11       		.uleb128 0x11
 1617 025e 8E010000 		.4byte	.LASF36
 1618 0262 01       		.byte	0x1
 1619 0263 E0       		.byte	0xe0
 1620 0264 EB000000 		.4byte	0xeb
 1621 0268 95000000 		.4byte	.LLST3
 1622 026c 00       		.byte	0
 1623 026d 12       		.uleb128 0x12
 1624 026e 01       		.byte	0x1
 1625 026f 1C020000 		.4byte	.LASF39
 1626 0273 01       		.byte	0x1
 1627 0274 F5       		.byte	0xf5
 1628 0275 01       		.byte	0x1
 1629 0276 54000000 		.4byte	.LFB114
 1630 027a 64000000 		.4byte	.LFE114
 1631 027e 02       		.byte	0x2
 1632 027f 7D       		.byte	0x7d
 1633 0280 00       		.sleb128 0
 1634 0281 01       		.byte	0x1
 1635 0282 13       		.uleb128 0x13
 1636 0283 01       		.byte	0x1
 1637 0284 B9010000 		.4byte	.LASF40
 1638 0288 01       		.byte	0x1
 1639 0289 0001     		.2byte	0x100
 1640 028b 01       		.byte	0x1
 1641 028c 64000000 		.4byte	.LFB115
 1642 0290 74000000 		.4byte	.LFE115
 1643 0294 02       		.byte	0x2
 1644 0295 7D       		.byte	0x7d
ARM GAS  /tmp/cc4MBWm7.s 			page 50


 1645 0296 00       		.sleb128 0
 1646 0297 01       		.byte	0x1
 1647 0298 13       		.uleb128 0x13
 1648 0299 01       		.byte	0x1
 1649 029a 62010000 		.4byte	.LASF41
 1650 029e 01       		.byte	0x1
 1651 029f 2C01     		.2byte	0x12c
 1652 02a1 01       		.byte	0x1
 1653 02a2 74000000 		.4byte	.LFB116
 1654 02a6 90000000 		.4byte	.LFE116
 1655 02aa 02       		.byte	0x2
 1656 02ab 7D       		.byte	0x7d
 1657 02ac 00       		.sleb128 0
 1658 02ad 01       		.byte	0x1
 1659 02ae 13       		.uleb128 0x13
 1660 02af 01       		.byte	0x1
 1661 02b0 60020000 		.4byte	.LASF42
 1662 02b4 01       		.byte	0x1
 1663 02b5 3B01     		.2byte	0x13b
 1664 02b7 01       		.byte	0x1
 1665 02b8 90000000 		.4byte	.LFB117
 1666 02bc A0000000 		.4byte	.LFE117
 1667 02c0 02       		.byte	0x2
 1668 02c1 7D       		.byte	0x7d
 1669 02c2 00       		.sleb128 0
 1670 02c3 01       		.byte	0x1
 1671 02c4 13       		.uleb128 0x13
 1672 02c5 01       		.byte	0x1
 1673 02c6 6B020000 		.4byte	.LASF43
 1674 02ca 01       		.byte	0x1
 1675 02cb 9202     		.2byte	0x292
 1676 02cd 01       		.byte	0x1
 1677 02ce A0000000 		.4byte	.LFB124
 1678 02d2 BC000000 		.4byte	.LFE124
 1679 02d6 02       		.byte	0x2
 1680 02d7 7D       		.byte	0x7d
 1681 02d8 00       		.sleb128 0
 1682 02d9 01       		.byte	0x1
 1683 02da 13       		.uleb128 0x13
 1684 02db 01       		.byte	0x1
 1685 02dc 0F010000 		.4byte	.LASF44
 1686 02e0 01       		.byte	0x1
 1687 02e1 A102     		.2byte	0x2a1
 1688 02e3 01       		.byte	0x1
 1689 02e4 BC000000 		.4byte	.LFB125
 1690 02e8 CC000000 		.4byte	.LFE125
 1691 02ec 02       		.byte	0x2
 1692 02ed 7D       		.byte	0x7d
 1693 02ee 00       		.sleb128 0
 1694 02ef 01       		.byte	0x1
 1695 02f0 14       		.uleb128 0x14
 1696 02f1 01       		.byte	0x1
 1697 02f2 41030000 		.4byte	.LASF45
 1698 02f6 01       		.byte	0x1
 1699 02f7 1503     		.2byte	0x315
 1700 02f9 01       		.byte	0x1
 1701 02fa CC000000 		.4byte	.LFB129
ARM GAS  /tmp/cc4MBWm7.s 			page 51


 1702 02fe E4000000 		.4byte	.LFE129
 1703 0302 02       		.byte	0x2
 1704 0303 7D       		.byte	0x7d
 1705 0304 00       		.sleb128 0
 1706 0305 01       		.byte	0x1
 1707 0306 1B030000 		.4byte	0x31b
 1708 030a 15       		.uleb128 0x15
 1709 030b 1F040000 		.4byte	.LASF46
 1710 030f 01       		.byte	0x1
 1711 0310 1503     		.2byte	0x315
 1712 0312 33000000 		.4byte	0x33
 1713 0316 CF000000 		.4byte	.LLST4
 1714 031a 00       		.byte	0
 1715 031b 16       		.uleb128 0x16
 1716 031c 01       		.byte	0x1
 1717 031d FE000000 		.4byte	.LASF47
 1718 0321 01       		.byte	0x1
 1719 0322 3903     		.2byte	0x339
 1720 0324 01       		.byte	0x1
 1721 0325 33000000 		.4byte	0x33
 1722 0329 E4000000 		.4byte	.LFB131
 1723 032d F4000000 		.4byte	.LFE131
 1724 0331 02       		.byte	0x2
 1725 0332 7D       		.byte	0x7d
 1726 0333 00       		.sleb128 0
 1727 0334 01       		.byte	0x1
 1728 0335 16       		.uleb128 0x16
 1729 0336 01       		.byte	0x1
 1730 0337 E1000000 		.4byte	.LASF48
 1731 033b 01       		.byte	0x1
 1732 033c 4403     		.2byte	0x344
 1733 033e 01       		.byte	0x1
 1734 033f 4C000000 		.4byte	0x4c
 1735 0343 F4000000 		.4byte	.LFB132
 1736 0347 00010000 		.4byte	.LFE132
 1737 034b 02       		.byte	0x2
 1738 034c 7D       		.byte	0x7d
 1739 034d 00       		.sleb128 0
 1740 034e 01       		.byte	0x1
 1741 034f 17       		.uleb128 0x17
 1742 0350 01       		.byte	0x1
 1743 0351 5F050000 		.4byte	.LASF52
 1744 0355 01       		.byte	0x1
 1745 0356 5103     		.2byte	0x351
 1746 0358 01       		.byte	0x1
 1747 0359 C9000000 		.4byte	0xc9
 1748 035d 00010000 		.4byte	.LFB133
 1749 0361 10010000 		.4byte	.LFE133
 1750 0365 02       		.byte	0x2
 1751 0366 7D       		.byte	0x7d
 1752 0367 00       		.sleb128 0
 1753 0368 01       		.byte	0x1
 1754 0369 7E030000 		.4byte	0x37e
 1755 036d 18       		.uleb128 0x18
 1756 036e CA020000 		.4byte	.LASF55
 1757 0372 01       		.byte	0x1
 1758 0373 5303     		.2byte	0x353
ARM GAS  /tmp/cc4MBWm7.s 			page 52


 1759 0375 C9000000 		.4byte	0xc9
 1760 0379 F0000000 		.4byte	.LLST5
 1761 037d 00       		.byte	0
 1762 037e 16       		.uleb128 0x16
 1763 037f 01       		.byte	0x1
 1764 0380 FF030000 		.4byte	.LASF49
 1765 0384 01       		.byte	0x1
 1766 0385 6903     		.2byte	0x369
 1767 0387 01       		.byte	0x1
 1768 0388 33000000 		.4byte	0x33
 1769 038c 10010000 		.4byte	.LFB134
 1770 0390 20010000 		.4byte	.LFE134
 1771 0394 02       		.byte	0x2
 1772 0395 7D       		.byte	0x7d
 1773 0396 00       		.sleb128 0
 1774 0397 01       		.byte	0x1
 1775 0398 14       		.uleb128 0x14
 1776 0399 01       		.byte	0x1
 1777 039a 00000000 		.4byte	.LASF50
 1778 039e 01       		.byte	0x1
 1779 039f 8703     		.2byte	0x387
 1780 03a1 01       		.byte	0x1
 1781 03a2 20010000 		.4byte	.LFB135
 1782 03a6 38010000 		.4byte	.LFE135
 1783 03aa 02       		.byte	0x2
 1784 03ab 7D       		.byte	0x7d
 1785 03ac 00       		.sleb128 0
 1786 03ad 01       		.byte	0x1
 1787 03ae D1030000 		.4byte	0x3d1
 1788 03b2 15       		.uleb128 0x15
 1789 03b3 C5000000 		.4byte	.LASF51
 1790 03b7 01       		.byte	0x1
 1791 03b8 8703     		.2byte	0x387
 1792 03ba 70000000 		.4byte	0x70
 1793 03be 2B010000 		.4byte	.LLST6
 1794 03c2 19       		.uleb128 0x19
 1795 03c3 8E010000 		.4byte	.LASF36
 1796 03c7 01       		.byte	0x1
 1797 03c8 8703     		.2byte	0x387
 1798 03ca EB000000 		.4byte	0xeb
 1799 03ce 01       		.byte	0x1
 1800 03cf 51       		.byte	0x51
 1801 03d0 00       		.byte	0
 1802 03d1 17       		.uleb128 0x17
 1803 03d2 01       		.byte	0x1
 1804 03d3 9F020000 		.4byte	.LASF53
 1805 03d7 01       		.byte	0x1
 1806 03d8 A603     		.2byte	0x3a6
 1807 03da 01       		.byte	0x1
 1808 03db C9000000 		.4byte	0xc9
 1809 03df 38010000 		.4byte	.LFB136
 1810 03e3 4C010000 		.4byte	.LFE136
 1811 03e7 02       		.byte	0x2
 1812 03e8 7D       		.byte	0x7d
 1813 03e9 00       		.sleb128 0
 1814 03ea 01       		.byte	0x1
 1815 03eb 10040000 		.4byte	0x410
ARM GAS  /tmp/cc4MBWm7.s 			page 53


 1816 03ef 15       		.uleb128 0x15
 1817 03f0 AB030000 		.4byte	.LASF54
 1818 03f4 01       		.byte	0x1
 1819 03f5 A603     		.2byte	0x3a6
 1820 03f7 70000000 		.4byte	0x70
 1821 03fb 65010000 		.4byte	.LLST7
 1822 03ff 18       		.uleb128 0x18
 1823 0400 25050000 		.4byte	.LASF56
 1824 0404 01       		.byte	0x1
 1825 0405 A803     		.2byte	0x3a8
 1826 0407 C9000000 		.4byte	0xc9
 1827 040b 86010000 		.4byte	.LLST8
 1828 040f 00       		.byte	0
 1829 0410 14       		.uleb128 0x14
 1830 0411 01       		.byte	0x1
 1831 0412 DE020000 		.4byte	.LASF57
 1832 0416 01       		.byte	0x1
 1833 0417 C403     		.2byte	0x3c4
 1834 0419 01       		.byte	0x1
 1835 041a 4C010000 		.4byte	.LFB137
 1836 041e 58010000 		.4byte	.LFE137
 1837 0422 02       		.byte	0x2
 1838 0423 7D       		.byte	0x7d
 1839 0424 00       		.sleb128 0
 1840 0425 01       		.byte	0x1
 1841 0426 39040000 		.4byte	0x439
 1842 042a 19       		.uleb128 0x19
 1843 042b AB030000 		.4byte	.LASF54
 1844 042f 01       		.byte	0x1
 1845 0430 C403     		.2byte	0x3c4
 1846 0432 70000000 		.4byte	0x70
 1847 0436 01       		.byte	0x1
 1848 0437 50       		.byte	0x50
 1849 0438 00       		.byte	0
 1850 0439 1A       		.uleb128 0x1a
 1851 043a A9010000 		.4byte	0x1a9
 1852 043e 58010000 		.4byte	.LFB138
 1853 0442 8C010000 		.4byte	.LFE138
 1854 0446 02       		.byte	0x2
 1855 0447 7D       		.byte	0x7d
 1856 0448 00       		.sleb128 0
 1857 0449 01       		.byte	0x1
 1858 044a 78040000 		.4byte	0x478
 1859 044e 1B       		.uleb128 0x1b
 1860 044f BC010000 		.4byte	0x1bc
 1861 0453 BF010000 		.4byte	.LLST9
 1862 0457 1C       		.uleb128 0x1c
 1863 0458 A9010000 		.4byte	0x1a9
 1864 045c 6E010000 		.4byte	.LBB4
 1865 0460 7C010000 		.4byte	.LBE4
 1866 0464 01       		.byte	0x1
 1867 0465 D303     		.2byte	0x3d3
 1868 0467 1D       		.uleb128 0x1d
 1869 0468 6E010000 		.4byte	.LBB5
 1870 046c 7C010000 		.4byte	.LBE5
 1871 0470 1E       		.uleb128 0x1e
 1872 0471 BC010000 		.4byte	0x1bc
ARM GAS  /tmp/cc4MBWm7.s 			page 54


 1873 0475 00       		.byte	0
 1874 0476 00       		.byte	0
 1875 0477 00       		.byte	0
 1876 0478 1F       		.uleb128 0x1f
 1877 0479 01       		.byte	0x1
 1878 047a FD040000 		.4byte	.LASF58
 1879 047e 01       		.byte	0x1
 1880 047f FE03     		.2byte	0x3fe
 1881 0481 01       		.byte	0x1
 1882 0482 9E010000 		.4byte	0x19e
 1883 0486 8C010000 		.4byte	.LFB139
 1884 048a AA010000 		.4byte	.LFE139
 1885 048e DE010000 		.4byte	.LLST10
 1886 0492 01       		.byte	0x1
 1887 0493 B1040000 		.4byte	0x4b1
 1888 0497 18       		.uleb128 0x18
 1889 0498 3A030000 		.4byte	.LASF59
 1890 049c 01       		.byte	0x1
 1891 049d 0004     		.2byte	0x400
 1892 049f B1040000 		.4byte	0x4b1
 1893 04a3 FE010000 		.4byte	.LLST11
 1894 04a7 20       		.uleb128 0x20
 1895 04a8 98010000 		.4byte	.LVL31
 1896 04ac A9010000 		.4byte	0x1a9
 1897 04b0 00       		.byte	0
 1898 04b1 05       		.uleb128 0x5
 1899 04b2 9E010000 		.4byte	0x19e
 1900 04b6 17       		.uleb128 0x17
 1901 04b7 01       		.byte	0x1
 1902 04b8 3D020000 		.4byte	.LASF60
 1903 04bc 01       		.byte	0x1
 1904 04bd 2603     		.2byte	0x326
 1905 04bf 01       		.byte	0x1
 1906 04c0 9E010000 		.4byte	0x19e
 1907 04c4 AA010000 		.4byte	.LFB130
 1908 04c8 BC010000 		.4byte	.LFE130
 1909 04cc 02       		.byte	0x2
 1910 04cd 7D       		.byte	0x7d
 1911 04ce 00       		.sleb128 0
 1912 04cf 01       		.byte	0x1
 1913 04d0 EC040000 		.4byte	0x4ec
 1914 04d4 21       		.uleb128 0x21
 1915 04d5 3A030000 		.4byte	.LASF59
 1916 04d9 01       		.byte	0x1
 1917 04da 2803     		.2byte	0x328
 1918 04dc 9E010000 		.4byte	0x19e
 1919 04e0 08       		.byte	0x8
 1920 04e1 22       		.uleb128 0x22
 1921 04e2 B8010000 		.4byte	.LVL36
 1922 04e6 01       		.byte	0x1
 1923 04e7 78040000 		.4byte	0x478
 1924 04eb 00       		.byte	0
 1925 04ec 23       		.uleb128 0x23
 1926 04ed 01       		.byte	0x1
 1927 04ee 4E010000 		.4byte	.LASF61
 1928 04f2 01       		.byte	0x1
 1929 04f3 F402     		.2byte	0x2f4
ARM GAS  /tmp/cc4MBWm7.s 			page 55


 1930 04f5 01       		.byte	0x1
 1931 04f6 BC010000 		.4byte	.LFB128
 1932 04fa E4010000 		.4byte	.LFE128
 1933 04fe 1D020000 		.4byte	.LLST12
 1934 0502 01       		.byte	0x1
 1935 0503 61050000 		.4byte	0x561
 1936 0507 15       		.uleb128 0x15
 1937 0508 89000000 		.4byte	.LASF62
 1938 050c 01       		.byte	0x1
 1939 050d F402     		.2byte	0x2f4
 1940 050f 33000000 		.4byte	0x33
 1941 0513 3D020000 		.4byte	.LLST13
 1942 0517 15       		.uleb128 0x15
 1943 0518 2F050000 		.4byte	.LASF63
 1944 051c 01       		.byte	0x1
 1945 051d F402     		.2byte	0x2f4
 1946 051f 33000000 		.4byte	0x33
 1947 0523 5E020000 		.4byte	.LLST14
 1948 0527 15       		.uleb128 0x15
 1949 0528 54030000 		.4byte	.LASF64
 1950 052c 01       		.byte	0x1
 1951 052d F402     		.2byte	0x2f4
 1952 052f 33000000 		.4byte	0x33
 1953 0533 7F020000 		.4byte	.LLST15
 1954 0537 18       		.uleb128 0x18
 1955 0538 6D040000 		.4byte	.LASF65
 1956 053c 01       		.byte	0x1
 1957 053d F602     		.2byte	0x2f6
 1958 053f 33000000 		.4byte	0x33
 1959 0543 A0020000 		.4byte	.LLST16
 1960 0547 18       		.uleb128 0x18
 1961 0548 3A030000 		.4byte	.LASF59
 1962 054c 01       		.byte	0x1
 1963 054d F702     		.2byte	0x2f7
 1964 054f 9E010000 		.4byte	0x19e
 1965 0553 C4020000 		.4byte	.LLST17
 1966 0557 20       		.uleb128 0x20
 1967 0558 C8010000 		.4byte	.LVL38
 1968 055c 78040000 		.4byte	0x478
 1969 0560 00       		.byte	0
 1970 0561 23       		.uleb128 0x23
 1971 0562 01       		.byte	0x1
 1972 0563 CE000000 		.4byte	.LASF66
 1973 0567 01       		.byte	0x1
 1974 0568 D402     		.2byte	0x2d4
 1975 056a 01       		.byte	0x1
 1976 056b E4010000 		.4byte	.LFB127
 1977 056f FC010000 		.4byte	.LFE127
 1978 0573 E3020000 		.4byte	.LLST18
 1979 0577 01       		.byte	0x1
 1980 0578 A6050000 		.4byte	0x5a6
 1981 057c 15       		.uleb128 0x15
 1982 057d 82000000 		.4byte	.LASF67
 1983 0581 01       		.byte	0x1
 1984 0582 D402     		.2byte	0x2d4
 1985 0584 33000000 		.4byte	0x33
 1986 0588 03030000 		.4byte	.LLST19
ARM GAS  /tmp/cc4MBWm7.s 			page 56


 1987 058c 18       		.uleb128 0x18
 1988 058d 3A030000 		.4byte	.LASF59
 1989 0591 01       		.byte	0x1
 1990 0592 D602     		.2byte	0x2d6
 1991 0594 9E010000 		.4byte	0x19e
 1992 0598 24030000 		.4byte	.LLST20
 1993 059c 20       		.uleb128 0x20
 1994 059d EC010000 		.4byte	.LVL43
 1995 05a1 78040000 		.4byte	0x478
 1996 05a5 00       		.byte	0
 1997 05a6 23       		.uleb128 0x23
 1998 05a7 01       		.byte	0x1
 1999 05a8 26040000 		.4byte	.LASF68
 2000 05ac 01       		.byte	0x1
 2001 05ad B102     		.2byte	0x2b1
 2002 05af 01       		.byte	0x1
 2003 05b0 FC010000 		.4byte	.LFB126
 2004 05b4 24020000 		.4byte	.LFE126
 2005 05b8 43030000 		.4byte	.LLST21
 2006 05bc 01       		.byte	0x1
 2007 05bd FB050000 		.4byte	0x5fb
 2008 05c1 15       		.uleb128 0x15
 2009 05c2 3D010000 		.4byte	.LASF69
 2010 05c6 01       		.byte	0x1
 2011 05c7 B102     		.2byte	0x2b1
 2012 05c9 70000000 		.4byte	0x70
 2013 05cd 63030000 		.4byte	.LLST22
 2014 05d1 15       		.uleb128 0x15
 2015 05d2 8E010000 		.4byte	.LASF36
 2016 05d6 01       		.byte	0x1
 2017 05d7 B102     		.2byte	0x2b1
 2018 05d9 EB000000 		.4byte	0xeb
 2019 05dd A8030000 		.4byte	.LLST23
 2020 05e1 18       		.uleb128 0x18
 2021 05e2 3A030000 		.4byte	.LASF59
 2022 05e6 01       		.byte	0x1
 2023 05e7 B302     		.2byte	0x2b3
 2024 05e9 9E010000 		.4byte	0x19e
 2025 05ed C9030000 		.4byte	.LLST24
 2026 05f1 20       		.uleb128 0x20
 2027 05f2 06020000 		.4byte	.LVL45
 2028 05f6 78040000 		.4byte	0x478
 2029 05fa 00       		.byte	0
 2030 05fb 1F       		.uleb128 0x1f
 2031 05fc 01       		.byte	0x1
 2032 05fd 39040000 		.4byte	.LASF70
 2033 0601 01       		.byte	0x1
 2034 0602 3D02     		.2byte	0x23d
 2035 0604 01       		.byte	0x1
 2036 0605 9E010000 		.4byte	0x19e
 2037 0609 24020000 		.4byte	.LFB123
 2038 060d 5C020000 		.4byte	.LFE123
 2039 0611 F3030000 		.4byte	.LLST25
 2040 0615 01       		.byte	0x1
 2041 0616 5D060000 		.4byte	0x65d
 2042 061a 15       		.uleb128 0x15
 2043 061b 1D010000 		.4byte	.LASF71
ARM GAS  /tmp/cc4MBWm7.s 			page 57


 2044 061f 01       		.byte	0x1
 2045 0620 3D02     		.2byte	0x23d
 2046 0622 70000000 		.4byte	0x70
 2047 0626 13040000 		.4byte	.LLST26
 2048 062a 15       		.uleb128 0x15
 2049 062b 38020000 		.4byte	.LASF72
 2050 062f 01       		.byte	0x1
 2051 0630 3D02     		.2byte	0x23d
 2052 0632 33000000 		.4byte	0x33
 2053 0636 31040000 		.4byte	.LLST27
 2054 063a 18       		.uleb128 0x18
 2055 063b 3A030000 		.4byte	.LASF59
 2056 063f 01       		.byte	0x1
 2057 0640 3F02     		.2byte	0x23f
 2058 0642 9E010000 		.4byte	0x19e
 2059 0646 52040000 		.4byte	.LLST28
 2060 064a 20       		.uleb128 0x20
 2061 064b 2E020000 		.4byte	.LVL52
 2062 064f 78040000 		.4byte	0x478
 2063 0653 20       		.uleb128 0x20
 2064 0654 4E020000 		.4byte	.LVL54
 2065 0658 78040000 		.4byte	0x478
 2066 065c 00       		.byte	0
 2067 065d 1F       		.uleb128 0x1f
 2068 065e 01       		.byte	0x1
 2069 065f 95030000 		.4byte	.LASF73
 2070 0663 01       		.byte	0x1
 2071 0664 1702     		.2byte	0x217
 2072 0666 01       		.byte	0x1
 2073 0667 9E010000 		.4byte	0x19e
 2074 066b 5C020000 		.4byte	.LFB122
 2075 066f 98020000 		.4byte	.LFE122
 2076 0673 7C040000 		.4byte	.LLST29
 2077 0677 01       		.byte	0x1
 2078 0678 BF060000 		.4byte	0x6bf
 2079 067c 15       		.uleb128 0x15
 2080 067d 1D010000 		.4byte	.LASF71
 2081 0681 01       		.byte	0x1
 2082 0682 1702     		.2byte	0x217
 2083 0684 70000000 		.4byte	0x70
 2084 0688 9C040000 		.4byte	.LLST30
 2085 068c 15       		.uleb128 0x15
 2086 068d 38020000 		.4byte	.LASF72
 2087 0691 01       		.byte	0x1
 2088 0692 1702     		.2byte	0x217
 2089 0694 4C000000 		.4byte	0x4c
 2090 0698 BA040000 		.4byte	.LLST31
 2091 069c 18       		.uleb128 0x18
 2092 069d 3A030000 		.4byte	.LASF59
 2093 06a1 01       		.byte	0x1
 2094 06a2 1902     		.2byte	0x219
 2095 06a4 9E010000 		.4byte	0x19e
 2096 06a8 DB040000 		.4byte	.LLST32
 2097 06ac 20       		.uleb128 0x20
 2098 06ad 66020000 		.4byte	.LVL57
 2099 06b1 78040000 		.4byte	0x478
 2100 06b5 20       		.uleb128 0x20
ARM GAS  /tmp/cc4MBWm7.s 			page 58


 2101 06b6 8A020000 		.4byte	.LVL59
 2102 06ba 78040000 		.4byte	0x478
 2103 06be 00       		.byte	0
 2104 06bf 1F       		.uleb128 0x1f
 2105 06c0 01       		.byte	0x1
 2106 06c1 AA040000 		.4byte	.LASF74
 2107 06c5 01       		.byte	0x1
 2108 06c6 F101     		.2byte	0x1f1
 2109 06c8 01       		.byte	0x1
 2110 06c9 9E010000 		.4byte	0x19e
 2111 06cd 98020000 		.4byte	.LFB121
 2112 06d1 D4020000 		.4byte	.LFE121
 2113 06d5 05050000 		.4byte	.LLST33
 2114 06d9 01       		.byte	0x1
 2115 06da 21070000 		.4byte	0x721
 2116 06de 15       		.uleb128 0x15
 2117 06df 1D010000 		.4byte	.LASF71
 2118 06e3 01       		.byte	0x1
 2119 06e4 F101     		.2byte	0x1f1
 2120 06e6 70000000 		.4byte	0x70
 2121 06ea 25050000 		.4byte	.LLST34
 2122 06ee 15       		.uleb128 0x15
 2123 06ef 38020000 		.4byte	.LASF72
 2124 06f3 01       		.byte	0x1
 2125 06f4 F101     		.2byte	0x1f1
 2126 06f6 70000000 		.4byte	0x70
 2127 06fa 43050000 		.4byte	.LLST35
 2128 06fe 18       		.uleb128 0x18
 2129 06ff 3A030000 		.4byte	.LASF59
 2130 0703 01       		.byte	0x1
 2131 0704 F301     		.2byte	0x1f3
 2132 0706 9E010000 		.4byte	0x19e
 2133 070a 61050000 		.4byte	.LLST36
 2134 070e 20       		.uleb128 0x20
 2135 070f A2020000 		.4byte	.LVL62
 2136 0713 78040000 		.4byte	0x478
 2137 0717 20       		.uleb128 0x20
 2138 0718 C6020000 		.4byte	.LVL64
 2139 071c 78040000 		.4byte	0x478
 2140 0720 00       		.byte	0
 2141 0721 1F       		.uleb128 0x1f
 2142 0722 01       		.byte	0x1
 2143 0723 25010000 		.4byte	.LASF75
 2144 0727 01       		.byte	0x1
 2145 0728 CB01     		.2byte	0x1cb
 2146 072a 01       		.byte	0x1
 2147 072b 9E010000 		.4byte	0x19e
 2148 072f D4020000 		.4byte	.LFB120
 2149 0733 14030000 		.4byte	.LFE120
 2150 0737 8B050000 		.4byte	.LLST37
 2151 073b 01       		.byte	0x1
 2152 073c 83070000 		.4byte	0x783
 2153 0740 15       		.uleb128 0x15
 2154 0741 1D010000 		.4byte	.LASF71
 2155 0745 01       		.byte	0x1
 2156 0746 CB01     		.2byte	0x1cb
 2157 0748 70000000 		.4byte	0x70
ARM GAS  /tmp/cc4MBWm7.s 			page 59


 2158 074c AB050000 		.4byte	.LLST38
 2159 0750 15       		.uleb128 0x15
 2160 0751 38020000 		.4byte	.LASF72
 2161 0755 01       		.byte	0x1
 2162 0756 CB01     		.2byte	0x1cb
 2163 0758 89000000 		.4byte	0x89
 2164 075c C9050000 		.4byte	.LLST39
 2165 0760 18       		.uleb128 0x18
 2166 0761 3A030000 		.4byte	.LASF59
 2167 0765 01       		.byte	0x1
 2168 0766 CD01     		.2byte	0x1cd
 2169 0768 9E010000 		.4byte	0x19e
 2170 076c F1050000 		.4byte	.LLST40
 2171 0770 20       		.uleb128 0x20
 2172 0771 E0020000 		.4byte	.LVL67
 2173 0775 78040000 		.4byte	0x478
 2174 0779 20       		.uleb128 0x20
 2175 077a 06030000 		.4byte	.LVL69
 2176 077e 78040000 		.4byte	0x478
 2177 0782 00       		.byte	0
 2178 0783 1F       		.uleb128 0x1f
 2179 0784 01       		.byte	0x1
 2180 0785 0F000000 		.4byte	.LASF76
 2181 0789 01       		.byte	0x1
 2182 078a 9601     		.2byte	0x196
 2183 078c 01       		.byte	0x1
 2184 078d 9E010000 		.4byte	0x19e
 2185 0791 14030000 		.4byte	.LFB119
 2186 0795 70030000 		.4byte	.LFE119
 2187 0799 1B060000 		.4byte	.LLST41
 2188 079d 01       		.byte	0x1
 2189 079e E5070000 		.4byte	0x7e5
 2190 07a2 15       		.uleb128 0x15
 2191 07a3 F1000000 		.4byte	.LASF77
 2192 07a7 01       		.byte	0x1
 2193 07a8 9601     		.2byte	0x196
 2194 07aa 33000000 		.4byte	0x33
 2195 07ae 3B060000 		.4byte	.LLST42
 2196 07b2 18       		.uleb128 0x18
 2197 07b3 84010000 		.4byte	.LASF78
 2198 07b7 01       		.byte	0x1
 2199 07b8 9801     		.2byte	0x198
 2200 07ba 70000000 		.4byte	0x70
 2201 07be 5C060000 		.4byte	.LLST43
 2202 07c2 18       		.uleb128 0x18
 2203 07c3 3A030000 		.4byte	.LASF59
 2204 07c7 01       		.byte	0x1
 2205 07c8 9901     		.2byte	0x199
 2206 07ca 9E010000 		.4byte	0x19e
 2207 07ce 7B060000 		.4byte	.LLST44
 2208 07d2 20       		.uleb128 0x20
 2209 07d3 1C030000 		.4byte	.LVL72
 2210 07d7 78040000 		.4byte	0x478
 2211 07db 20       		.uleb128 0x20
 2212 07dc 60030000 		.4byte	.LVL76
 2213 07e0 78040000 		.4byte	0x478
 2214 07e4 00       		.byte	0
ARM GAS  /tmp/cc4MBWm7.s 			page 60


 2215 07e5 1F       		.uleb128 0x1f
 2216 07e6 01       		.byte	0x1
 2217 07e7 AA000000 		.4byte	.LASF79
 2218 07eb 01       		.byte	0x1
 2219 07ec 5501     		.2byte	0x155
 2220 07ee 01       		.byte	0x1
 2221 07ef 9E010000 		.4byte	0x19e
 2222 07f3 70030000 		.4byte	.LFB118
 2223 07f7 DC030000 		.4byte	.LFE118
 2224 07fb A5060000 		.4byte	.LLST45
 2225 07ff 01       		.byte	0x1
 2226 0800 57080000 		.4byte	0x857
 2227 0804 15       		.uleb128 0x15
 2228 0805 ED010000 		.4byte	.LASF80
 2229 0809 01       		.byte	0x1
 2230 080a 5501     		.2byte	0x155
 2231 080c 70000000 		.4byte	0x70
 2232 0810 C5060000 		.4byte	.LLST46
 2233 0814 15       		.uleb128 0x15
 2234 0815 F1000000 		.4byte	.LASF77
 2235 0819 01       		.byte	0x1
 2236 081a 5501     		.2byte	0x155
 2237 081c 33000000 		.4byte	0x33
 2238 0820 F1060000 		.4byte	.LLST47
 2239 0824 18       		.uleb128 0x18
 2240 0825 84010000 		.4byte	.LASF78
 2241 0829 01       		.byte	0x1
 2242 082a 5701     		.2byte	0x157
 2243 082c 70000000 		.4byte	0x70
 2244 0830 12070000 		.4byte	.LLST48
 2245 0834 18       		.uleb128 0x18
 2246 0835 3A030000 		.4byte	.LASF59
 2247 0839 01       		.byte	0x1
 2248 083a 5801     		.2byte	0x158
 2249 083c 9E010000 		.4byte	0x19e
 2250 0840 31070000 		.4byte	.LLST49
 2251 0844 20       		.uleb128 0x20
 2252 0845 94030000 		.4byte	.LVL80
 2253 0849 78040000 		.4byte	0x478
 2254 084d 20       		.uleb128 0x20
 2255 084e C6030000 		.4byte	.LVL84
 2256 0852 78040000 		.4byte	0x478
 2257 0856 00       		.byte	0
 2258 0857 24       		.uleb128 0x24
 2259 0858 18050000 		.4byte	.LASF86
 2260 085c 05       		.byte	0x5
 2261 085d 1A05     		.2byte	0x51a
 2262 085f AE000000 		.4byte	0xae
 2263 0863 01       		.byte	0x1
 2264 0864 01       		.byte	0x1
 2265 0865 00       		.byte	0
 2266              		.section	.debug_abbrev,"",%progbits
 2267              	.Ldebug_abbrev0:
 2268 0000 01       		.uleb128 0x1
 2269 0001 11       		.uleb128 0x11
 2270 0002 01       		.byte	0x1
 2271 0003 25       		.uleb128 0x25
ARM GAS  /tmp/cc4MBWm7.s 			page 61


 2272 0004 0E       		.uleb128 0xe
 2273 0005 13       		.uleb128 0x13
 2274 0006 0B       		.uleb128 0xb
 2275 0007 03       		.uleb128 0x3
 2276 0008 0E       		.uleb128 0xe
 2277 0009 1B       		.uleb128 0x1b
 2278 000a 0E       		.uleb128 0xe
 2279 000b 11       		.uleb128 0x11
 2280 000c 01       		.uleb128 0x1
 2281 000d 12       		.uleb128 0x12
 2282 000e 01       		.uleb128 0x1
 2283 000f 10       		.uleb128 0x10
 2284 0010 06       		.uleb128 0x6
 2285 0011 00       		.byte	0
 2286 0012 00       		.byte	0
 2287 0013 02       		.uleb128 0x2
 2288 0014 24       		.uleb128 0x24
 2289 0015 00       		.byte	0
 2290 0016 0B       		.uleb128 0xb
 2291 0017 0B       		.uleb128 0xb
 2292 0018 3E       		.uleb128 0x3e
 2293 0019 0B       		.uleb128 0xb
 2294 001a 03       		.uleb128 0x3
 2295 001b 0E       		.uleb128 0xe
 2296 001c 00       		.byte	0
 2297 001d 00       		.byte	0
 2298 001e 03       		.uleb128 0x3
 2299 001f 16       		.uleb128 0x16
 2300 0020 00       		.byte	0
 2301 0021 03       		.uleb128 0x3
 2302 0022 0E       		.uleb128 0xe
 2303 0023 3A       		.uleb128 0x3a
 2304 0024 0B       		.uleb128 0xb
 2305 0025 3B       		.uleb128 0x3b
 2306 0026 0B       		.uleb128 0xb
 2307 0027 49       		.uleb128 0x49
 2308 0028 13       		.uleb128 0x13
 2309 0029 00       		.byte	0
 2310 002a 00       		.byte	0
 2311 002b 04       		.uleb128 0x4
 2312 002c 24       		.uleb128 0x24
 2313 002d 00       		.byte	0
 2314 002e 0B       		.uleb128 0xb
 2315 002f 0B       		.uleb128 0xb
 2316 0030 3E       		.uleb128 0x3e
 2317 0031 0B       		.uleb128 0xb
 2318 0032 03       		.uleb128 0x3
 2319 0033 08       		.uleb128 0x8
 2320 0034 00       		.byte	0
 2321 0035 00       		.byte	0
 2322 0036 05       		.uleb128 0x5
 2323 0037 35       		.uleb128 0x35
 2324 0038 00       		.byte	0
 2325 0039 49       		.uleb128 0x49
 2326 003a 13       		.uleb128 0x13
 2327 003b 00       		.byte	0
 2328 003c 00       		.byte	0
ARM GAS  /tmp/cc4MBWm7.s 			page 62


 2329 003d 06       		.uleb128 0x6
 2330 003e 04       		.uleb128 0x4
 2331 003f 01       		.byte	0x1
 2332 0040 0B       		.uleb128 0xb
 2333 0041 0B       		.uleb128 0xb
 2334 0042 3A       		.uleb128 0x3a
 2335 0043 0B       		.uleb128 0xb
 2336 0044 3B       		.uleb128 0x3b
 2337 0045 05       		.uleb128 0x5
 2338 0046 01       		.uleb128 0x1
 2339 0047 13       		.uleb128 0x13
 2340 0048 00       		.byte	0
 2341 0049 00       		.byte	0
 2342 004a 07       		.uleb128 0x7
 2343 004b 28       		.uleb128 0x28
 2344 004c 00       		.byte	0
 2345 004d 03       		.uleb128 0x3
 2346 004e 0E       		.uleb128 0xe
 2347 004f 1C       		.uleb128 0x1c
 2348 0050 0D       		.uleb128 0xd
 2349 0051 00       		.byte	0
 2350 0052 00       		.byte	0
 2351 0053 08       		.uleb128 0x8
 2352 0054 28       		.uleb128 0x28
 2353 0055 00       		.byte	0
 2354 0056 03       		.uleb128 0x3
 2355 0057 08       		.uleb128 0x8
 2356 0058 1C       		.uleb128 0x1c
 2357 0059 0D       		.uleb128 0xd
 2358 005a 00       		.byte	0
 2359 005b 00       		.byte	0
 2360 005c 09       		.uleb128 0x9
 2361 005d 16       		.uleb128 0x16
 2362 005e 00       		.byte	0
 2363 005f 03       		.uleb128 0x3
 2364 0060 0E       		.uleb128 0xe
 2365 0061 3A       		.uleb128 0x3a
 2366 0062 0B       		.uleb128 0xb
 2367 0063 3B       		.uleb128 0x3b
 2368 0064 05       		.uleb128 0x5
 2369 0065 49       		.uleb128 0x49
 2370 0066 13       		.uleb128 0x13
 2371 0067 00       		.byte	0
 2372 0068 00       		.byte	0
 2373 0069 0A       		.uleb128 0xa
 2374 006a 13       		.uleb128 0x13
 2375 006b 01       		.byte	0x1
 2376 006c 0B       		.uleb128 0xb
 2377 006d 0B       		.uleb128 0xb
 2378 006e 3A       		.uleb128 0x3a
 2379 006f 0B       		.uleb128 0xb
 2380 0070 3B       		.uleb128 0x3b
 2381 0071 05       		.uleb128 0x5
 2382 0072 01       		.uleb128 0x1
 2383 0073 13       		.uleb128 0x13
 2384 0074 00       		.byte	0
 2385 0075 00       		.byte	0
ARM GAS  /tmp/cc4MBWm7.s 			page 63


 2386 0076 0B       		.uleb128 0xb
 2387 0077 0D       		.uleb128 0xd
 2388 0078 00       		.byte	0
 2389 0079 03       		.uleb128 0x3
 2390 007a 08       		.uleb128 0x8
 2391 007b 3A       		.uleb128 0x3a
 2392 007c 0B       		.uleb128 0xb
 2393 007d 3B       		.uleb128 0x3b
 2394 007e 05       		.uleb128 0x5
 2395 007f 49       		.uleb128 0x49
 2396 0080 13       		.uleb128 0x13
 2397 0081 38       		.uleb128 0x38
 2398 0082 0A       		.uleb128 0xa
 2399 0083 00       		.byte	0
 2400 0084 00       		.byte	0
 2401 0085 0C       		.uleb128 0xc
 2402 0086 0D       		.uleb128 0xd
 2403 0087 00       		.byte	0
 2404 0088 03       		.uleb128 0x3
 2405 0089 0E       		.uleb128 0xe
 2406 008a 3A       		.uleb128 0x3a
 2407 008b 0B       		.uleb128 0xb
 2408 008c 3B       		.uleb128 0x3b
 2409 008d 05       		.uleb128 0x5
 2410 008e 49       		.uleb128 0x49
 2411 008f 13       		.uleb128 0x13
 2412 0090 38       		.uleb128 0x38
 2413 0091 0A       		.uleb128 0xa
 2414 0092 00       		.byte	0
 2415 0093 00       		.byte	0
 2416 0094 0D       		.uleb128 0xd
 2417 0095 04       		.uleb128 0x4
 2418 0096 01       		.byte	0x1
 2419 0097 0B       		.uleb128 0xb
 2420 0098 0B       		.uleb128 0xb
 2421 0099 3A       		.uleb128 0x3a
 2422 009a 0B       		.uleb128 0xb
 2423 009b 3B       		.uleb128 0x3b
 2424 009c 0B       		.uleb128 0xb
 2425 009d 01       		.uleb128 0x1
 2426 009e 13       		.uleb128 0x13
 2427 009f 00       		.byte	0
 2428 00a0 00       		.byte	0
 2429 00a1 0E       		.uleb128 0xe
 2430 00a2 2E       		.uleb128 0x2e
 2431 00a3 01       		.byte	0x1
 2432 00a4 3F       		.uleb128 0x3f
 2433 00a5 0C       		.uleb128 0xc
 2434 00a6 03       		.uleb128 0x3
 2435 00a7 0E       		.uleb128 0xe
 2436 00a8 3A       		.uleb128 0x3a
 2437 00a9 0B       		.uleb128 0xb
 2438 00aa 3B       		.uleb128 0x3b
 2439 00ab 05       		.uleb128 0x5
 2440 00ac 27       		.uleb128 0x27
 2441 00ad 0C       		.uleb128 0xc
 2442 00ae 49       		.uleb128 0x49
ARM GAS  /tmp/cc4MBWm7.s 			page 64


 2443 00af 13       		.uleb128 0x13
 2444 00b0 20       		.uleb128 0x20
 2445 00b1 0B       		.uleb128 0xb
 2446 00b2 01       		.uleb128 0x1
 2447 00b3 13       		.uleb128 0x13
 2448 00b4 00       		.byte	0
 2449 00b5 00       		.byte	0
 2450 00b6 0F       		.uleb128 0xf
 2451 00b7 34       		.uleb128 0x34
 2452 00b8 00       		.byte	0
 2453 00b9 03       		.uleb128 0x3
 2454 00ba 0E       		.uleb128 0xe
 2455 00bb 3A       		.uleb128 0x3a
 2456 00bc 0B       		.uleb128 0xb
 2457 00bd 3B       		.uleb128 0x3b
 2458 00be 05       		.uleb128 0x5
 2459 00bf 49       		.uleb128 0x49
 2460 00c0 13       		.uleb128 0x13
 2461 00c1 00       		.byte	0
 2462 00c2 00       		.byte	0
 2463 00c3 10       		.uleb128 0x10
 2464 00c4 2E       		.uleb128 0x2e
 2465 00c5 01       		.byte	0x1
 2466 00c6 3F       		.uleb128 0x3f
 2467 00c7 0C       		.uleb128 0xc
 2468 00c8 03       		.uleb128 0x3
 2469 00c9 0E       		.uleb128 0xe
 2470 00ca 3A       		.uleb128 0x3a
 2471 00cb 0B       		.uleb128 0xb
 2472 00cc 3B       		.uleb128 0x3b
 2473 00cd 0B       		.uleb128 0xb
 2474 00ce 27       		.uleb128 0x27
 2475 00cf 0C       		.uleb128 0xc
 2476 00d0 11       		.uleb128 0x11
 2477 00d1 01       		.uleb128 0x1
 2478 00d2 12       		.uleb128 0x12
 2479 00d3 01       		.uleb128 0x1
 2480 00d4 40       		.uleb128 0x40
 2481 00d5 0A       		.uleb128 0xa
 2482 00d6 9742     		.uleb128 0x2117
 2483 00d8 0C       		.uleb128 0xc
 2484 00d9 01       		.uleb128 0x1
 2485 00da 13       		.uleb128 0x13
 2486 00db 00       		.byte	0
 2487 00dc 00       		.byte	0
 2488 00dd 11       		.uleb128 0x11
 2489 00de 05       		.uleb128 0x5
 2490 00df 00       		.byte	0
 2491 00e0 03       		.uleb128 0x3
 2492 00e1 0E       		.uleb128 0xe
 2493 00e2 3A       		.uleb128 0x3a
 2494 00e3 0B       		.uleb128 0xb
 2495 00e4 3B       		.uleb128 0x3b
 2496 00e5 0B       		.uleb128 0xb
 2497 00e6 49       		.uleb128 0x49
 2498 00e7 13       		.uleb128 0x13
 2499 00e8 02       		.uleb128 0x2
ARM GAS  /tmp/cc4MBWm7.s 			page 65


 2500 00e9 06       		.uleb128 0x6
 2501 00ea 00       		.byte	0
 2502 00eb 00       		.byte	0
 2503 00ec 12       		.uleb128 0x12
 2504 00ed 2E       		.uleb128 0x2e
 2505 00ee 00       		.byte	0
 2506 00ef 3F       		.uleb128 0x3f
 2507 00f0 0C       		.uleb128 0xc
 2508 00f1 03       		.uleb128 0x3
 2509 00f2 0E       		.uleb128 0xe
 2510 00f3 3A       		.uleb128 0x3a
 2511 00f4 0B       		.uleb128 0xb
 2512 00f5 3B       		.uleb128 0x3b
 2513 00f6 0B       		.uleb128 0xb
 2514 00f7 27       		.uleb128 0x27
 2515 00f8 0C       		.uleb128 0xc
 2516 00f9 11       		.uleb128 0x11
 2517 00fa 01       		.uleb128 0x1
 2518 00fb 12       		.uleb128 0x12
 2519 00fc 01       		.uleb128 0x1
 2520 00fd 40       		.uleb128 0x40
 2521 00fe 0A       		.uleb128 0xa
 2522 00ff 9742     		.uleb128 0x2117
 2523 0101 0C       		.uleb128 0xc
 2524 0102 00       		.byte	0
 2525 0103 00       		.byte	0
 2526 0104 13       		.uleb128 0x13
 2527 0105 2E       		.uleb128 0x2e
 2528 0106 00       		.byte	0
 2529 0107 3F       		.uleb128 0x3f
 2530 0108 0C       		.uleb128 0xc
 2531 0109 03       		.uleb128 0x3
 2532 010a 0E       		.uleb128 0xe
 2533 010b 3A       		.uleb128 0x3a
 2534 010c 0B       		.uleb128 0xb
 2535 010d 3B       		.uleb128 0x3b
 2536 010e 05       		.uleb128 0x5
 2537 010f 27       		.uleb128 0x27
 2538 0110 0C       		.uleb128 0xc
 2539 0111 11       		.uleb128 0x11
 2540 0112 01       		.uleb128 0x1
 2541 0113 12       		.uleb128 0x12
 2542 0114 01       		.uleb128 0x1
 2543 0115 40       		.uleb128 0x40
 2544 0116 0A       		.uleb128 0xa
 2545 0117 9742     		.uleb128 0x2117
 2546 0119 0C       		.uleb128 0xc
 2547 011a 00       		.byte	0
 2548 011b 00       		.byte	0
 2549 011c 14       		.uleb128 0x14
 2550 011d 2E       		.uleb128 0x2e
 2551 011e 01       		.byte	0x1
 2552 011f 3F       		.uleb128 0x3f
 2553 0120 0C       		.uleb128 0xc
 2554 0121 03       		.uleb128 0x3
 2555 0122 0E       		.uleb128 0xe
 2556 0123 3A       		.uleb128 0x3a
ARM GAS  /tmp/cc4MBWm7.s 			page 66


 2557 0124 0B       		.uleb128 0xb
 2558 0125 3B       		.uleb128 0x3b
 2559 0126 05       		.uleb128 0x5
 2560 0127 27       		.uleb128 0x27
 2561 0128 0C       		.uleb128 0xc
 2562 0129 11       		.uleb128 0x11
 2563 012a 01       		.uleb128 0x1
 2564 012b 12       		.uleb128 0x12
 2565 012c 01       		.uleb128 0x1
 2566 012d 40       		.uleb128 0x40
 2567 012e 0A       		.uleb128 0xa
 2568 012f 9742     		.uleb128 0x2117
 2569 0131 0C       		.uleb128 0xc
 2570 0132 01       		.uleb128 0x1
 2571 0133 13       		.uleb128 0x13
 2572 0134 00       		.byte	0
 2573 0135 00       		.byte	0
 2574 0136 15       		.uleb128 0x15
 2575 0137 05       		.uleb128 0x5
 2576 0138 00       		.byte	0
 2577 0139 03       		.uleb128 0x3
 2578 013a 0E       		.uleb128 0xe
 2579 013b 3A       		.uleb128 0x3a
 2580 013c 0B       		.uleb128 0xb
 2581 013d 3B       		.uleb128 0x3b
 2582 013e 05       		.uleb128 0x5
 2583 013f 49       		.uleb128 0x49
 2584 0140 13       		.uleb128 0x13
 2585 0141 02       		.uleb128 0x2
 2586 0142 06       		.uleb128 0x6
 2587 0143 00       		.byte	0
 2588 0144 00       		.byte	0
 2589 0145 16       		.uleb128 0x16
 2590 0146 2E       		.uleb128 0x2e
 2591 0147 00       		.byte	0
 2592 0148 3F       		.uleb128 0x3f
 2593 0149 0C       		.uleb128 0xc
 2594 014a 03       		.uleb128 0x3
 2595 014b 0E       		.uleb128 0xe
 2596 014c 3A       		.uleb128 0x3a
 2597 014d 0B       		.uleb128 0xb
 2598 014e 3B       		.uleb128 0x3b
 2599 014f 05       		.uleb128 0x5
 2600 0150 27       		.uleb128 0x27
 2601 0151 0C       		.uleb128 0xc
 2602 0152 49       		.uleb128 0x49
 2603 0153 13       		.uleb128 0x13
 2604 0154 11       		.uleb128 0x11
 2605 0155 01       		.uleb128 0x1
 2606 0156 12       		.uleb128 0x12
 2607 0157 01       		.uleb128 0x1
 2608 0158 40       		.uleb128 0x40
 2609 0159 0A       		.uleb128 0xa
 2610 015a 9742     		.uleb128 0x2117
 2611 015c 0C       		.uleb128 0xc
 2612 015d 00       		.byte	0
 2613 015e 00       		.byte	0
ARM GAS  /tmp/cc4MBWm7.s 			page 67


 2614 015f 17       		.uleb128 0x17
 2615 0160 2E       		.uleb128 0x2e
 2616 0161 01       		.byte	0x1
 2617 0162 3F       		.uleb128 0x3f
 2618 0163 0C       		.uleb128 0xc
 2619 0164 03       		.uleb128 0x3
 2620 0165 0E       		.uleb128 0xe
 2621 0166 3A       		.uleb128 0x3a
 2622 0167 0B       		.uleb128 0xb
 2623 0168 3B       		.uleb128 0x3b
 2624 0169 05       		.uleb128 0x5
 2625 016a 27       		.uleb128 0x27
 2626 016b 0C       		.uleb128 0xc
 2627 016c 49       		.uleb128 0x49
 2628 016d 13       		.uleb128 0x13
 2629 016e 11       		.uleb128 0x11
 2630 016f 01       		.uleb128 0x1
 2631 0170 12       		.uleb128 0x12
 2632 0171 01       		.uleb128 0x1
 2633 0172 40       		.uleb128 0x40
 2634 0173 0A       		.uleb128 0xa
 2635 0174 9742     		.uleb128 0x2117
 2636 0176 0C       		.uleb128 0xc
 2637 0177 01       		.uleb128 0x1
 2638 0178 13       		.uleb128 0x13
 2639 0179 00       		.byte	0
 2640 017a 00       		.byte	0
 2641 017b 18       		.uleb128 0x18
 2642 017c 34       		.uleb128 0x34
 2643 017d 00       		.byte	0
 2644 017e 03       		.uleb128 0x3
 2645 017f 0E       		.uleb128 0xe
 2646 0180 3A       		.uleb128 0x3a
 2647 0181 0B       		.uleb128 0xb
 2648 0182 3B       		.uleb128 0x3b
 2649 0183 05       		.uleb128 0x5
 2650 0184 49       		.uleb128 0x49
 2651 0185 13       		.uleb128 0x13
 2652 0186 02       		.uleb128 0x2
 2653 0187 06       		.uleb128 0x6
 2654 0188 00       		.byte	0
 2655 0189 00       		.byte	0
 2656 018a 19       		.uleb128 0x19
 2657 018b 05       		.uleb128 0x5
 2658 018c 00       		.byte	0
 2659 018d 03       		.uleb128 0x3
 2660 018e 0E       		.uleb128 0xe
 2661 018f 3A       		.uleb128 0x3a
 2662 0190 0B       		.uleb128 0xb
 2663 0191 3B       		.uleb128 0x3b
 2664 0192 05       		.uleb128 0x5
 2665 0193 49       		.uleb128 0x49
 2666 0194 13       		.uleb128 0x13
 2667 0195 02       		.uleb128 0x2
 2668 0196 0A       		.uleb128 0xa
 2669 0197 00       		.byte	0
 2670 0198 00       		.byte	0
ARM GAS  /tmp/cc4MBWm7.s 			page 68


 2671 0199 1A       		.uleb128 0x1a
 2672 019a 2E       		.uleb128 0x2e
 2673 019b 01       		.byte	0x1
 2674 019c 31       		.uleb128 0x31
 2675 019d 13       		.uleb128 0x13
 2676 019e 11       		.uleb128 0x11
 2677 019f 01       		.uleb128 0x1
 2678 01a0 12       		.uleb128 0x12
 2679 01a1 01       		.uleb128 0x1
 2680 01a2 40       		.uleb128 0x40
 2681 01a3 0A       		.uleb128 0xa
 2682 01a4 9742     		.uleb128 0x2117
 2683 01a6 0C       		.uleb128 0xc
 2684 01a7 01       		.uleb128 0x1
 2685 01a8 13       		.uleb128 0x13
 2686 01a9 00       		.byte	0
 2687 01aa 00       		.byte	0
 2688 01ab 1B       		.uleb128 0x1b
 2689 01ac 34       		.uleb128 0x34
 2690 01ad 00       		.byte	0
 2691 01ae 31       		.uleb128 0x31
 2692 01af 13       		.uleb128 0x13
 2693 01b0 02       		.uleb128 0x2
 2694 01b1 06       		.uleb128 0x6
 2695 01b2 00       		.byte	0
 2696 01b3 00       		.byte	0
 2697 01b4 1C       		.uleb128 0x1c
 2698 01b5 1D       		.uleb128 0x1d
 2699 01b6 01       		.byte	0x1
 2700 01b7 31       		.uleb128 0x31
 2701 01b8 13       		.uleb128 0x13
 2702 01b9 11       		.uleb128 0x11
 2703 01ba 01       		.uleb128 0x1
 2704 01bb 12       		.uleb128 0x12
 2705 01bc 01       		.uleb128 0x1
 2706 01bd 58       		.uleb128 0x58
 2707 01be 0B       		.uleb128 0xb
 2708 01bf 59       		.uleb128 0x59
 2709 01c0 05       		.uleb128 0x5
 2710 01c1 00       		.byte	0
 2711 01c2 00       		.byte	0
 2712 01c3 1D       		.uleb128 0x1d
 2713 01c4 0B       		.uleb128 0xb
 2714 01c5 01       		.byte	0x1
 2715 01c6 11       		.uleb128 0x11
 2716 01c7 01       		.uleb128 0x1
 2717 01c8 12       		.uleb128 0x12
 2718 01c9 01       		.uleb128 0x1
 2719 01ca 00       		.byte	0
 2720 01cb 00       		.byte	0
 2721 01cc 1E       		.uleb128 0x1e
 2722 01cd 34       		.uleb128 0x34
 2723 01ce 00       		.byte	0
 2724 01cf 31       		.uleb128 0x31
 2725 01d0 13       		.uleb128 0x13
 2726 01d1 00       		.byte	0
 2727 01d2 00       		.byte	0
ARM GAS  /tmp/cc4MBWm7.s 			page 69


 2728 01d3 1F       		.uleb128 0x1f
 2729 01d4 2E       		.uleb128 0x2e
 2730 01d5 01       		.byte	0x1
 2731 01d6 3F       		.uleb128 0x3f
 2732 01d7 0C       		.uleb128 0xc
 2733 01d8 03       		.uleb128 0x3
 2734 01d9 0E       		.uleb128 0xe
 2735 01da 3A       		.uleb128 0x3a
 2736 01db 0B       		.uleb128 0xb
 2737 01dc 3B       		.uleb128 0x3b
 2738 01dd 05       		.uleb128 0x5
 2739 01de 27       		.uleb128 0x27
 2740 01df 0C       		.uleb128 0xc
 2741 01e0 49       		.uleb128 0x49
 2742 01e1 13       		.uleb128 0x13
 2743 01e2 11       		.uleb128 0x11
 2744 01e3 01       		.uleb128 0x1
 2745 01e4 12       		.uleb128 0x12
 2746 01e5 01       		.uleb128 0x1
 2747 01e6 40       		.uleb128 0x40
 2748 01e7 06       		.uleb128 0x6
 2749 01e8 9742     		.uleb128 0x2117
 2750 01ea 0C       		.uleb128 0xc
 2751 01eb 01       		.uleb128 0x1
 2752 01ec 13       		.uleb128 0x13
 2753 01ed 00       		.byte	0
 2754 01ee 00       		.byte	0
 2755 01ef 20       		.uleb128 0x20
 2756 01f0 898201   		.uleb128 0x4109
 2757 01f3 00       		.byte	0
 2758 01f4 11       		.uleb128 0x11
 2759 01f5 01       		.uleb128 0x1
 2760 01f6 31       		.uleb128 0x31
 2761 01f7 13       		.uleb128 0x13
 2762 01f8 00       		.byte	0
 2763 01f9 00       		.byte	0
 2764 01fa 21       		.uleb128 0x21
 2765 01fb 34       		.uleb128 0x34
 2766 01fc 00       		.byte	0
 2767 01fd 03       		.uleb128 0x3
 2768 01fe 0E       		.uleb128 0xe
 2769 01ff 3A       		.uleb128 0x3a
 2770 0200 0B       		.uleb128 0xb
 2771 0201 3B       		.uleb128 0x3b
 2772 0202 05       		.uleb128 0x5
 2773 0203 49       		.uleb128 0x49
 2774 0204 13       		.uleb128 0x13
 2775 0205 1C       		.uleb128 0x1c
 2776 0206 0B       		.uleb128 0xb
 2777 0207 00       		.byte	0
 2778 0208 00       		.byte	0
 2779 0209 22       		.uleb128 0x22
 2780 020a 898201   		.uleb128 0x4109
 2781 020d 00       		.byte	0
 2782 020e 11       		.uleb128 0x11
 2783 020f 01       		.uleb128 0x1
 2784 0210 9542     		.uleb128 0x2115
ARM GAS  /tmp/cc4MBWm7.s 			page 70


 2785 0212 0C       		.uleb128 0xc
 2786 0213 31       		.uleb128 0x31
 2787 0214 13       		.uleb128 0x13
 2788 0215 00       		.byte	0
 2789 0216 00       		.byte	0
 2790 0217 23       		.uleb128 0x23
 2791 0218 2E       		.uleb128 0x2e
 2792 0219 01       		.byte	0x1
 2793 021a 3F       		.uleb128 0x3f
 2794 021b 0C       		.uleb128 0xc
 2795 021c 03       		.uleb128 0x3
 2796 021d 0E       		.uleb128 0xe
 2797 021e 3A       		.uleb128 0x3a
 2798 021f 0B       		.uleb128 0xb
 2799 0220 3B       		.uleb128 0x3b
 2800 0221 05       		.uleb128 0x5
 2801 0222 27       		.uleb128 0x27
 2802 0223 0C       		.uleb128 0xc
 2803 0224 11       		.uleb128 0x11
 2804 0225 01       		.uleb128 0x1
 2805 0226 12       		.uleb128 0x12
 2806 0227 01       		.uleb128 0x1
 2807 0228 40       		.uleb128 0x40
 2808 0229 06       		.uleb128 0x6
 2809 022a 9742     		.uleb128 0x2117
 2810 022c 0C       		.uleb128 0xc
 2811 022d 01       		.uleb128 0x1
 2812 022e 13       		.uleb128 0x13
 2813 022f 00       		.byte	0
 2814 0230 00       		.byte	0
 2815 0231 24       		.uleb128 0x24
 2816 0232 34       		.uleb128 0x34
 2817 0233 00       		.byte	0
 2818 0234 03       		.uleb128 0x3
 2819 0235 0E       		.uleb128 0xe
 2820 0236 3A       		.uleb128 0x3a
 2821 0237 0B       		.uleb128 0xb
 2822 0238 3B       		.uleb128 0x3b
 2823 0239 05       		.uleb128 0x5
 2824 023a 49       		.uleb128 0x49
 2825 023b 13       		.uleb128 0x13
 2826 023c 3F       		.uleb128 0x3f
 2827 023d 0C       		.uleb128 0xc
 2828 023e 3C       		.uleb128 0x3c
 2829 023f 0C       		.uleb128 0xc
 2830 0240 00       		.byte	0
 2831 0241 00       		.byte	0
 2832 0242 00       		.byte	0
 2833              		.section	.debug_loc,"",%progbits
 2834              	.Ldebug_loc0:
 2835              	.LLST0:
 2836 0000 00000000 		.4byte	.LVL0-.Ltext0
 2837 0004 04000000 		.4byte	.LVL1-.Ltext0
 2838 0008 0100     		.2byte	0x1
 2839 000a 50       		.byte	0x50
 2840 000b 04000000 		.4byte	.LVL1-.Ltext0
 2841 000f 0C000000 		.4byte	.LFE110-.Ltext0
ARM GAS  /tmp/cc4MBWm7.s 			page 71


 2842 0013 0400     		.2byte	0x4
 2843 0015 F3       		.byte	0xf3
 2844 0016 01       		.uleb128 0x1
 2845 0017 50       		.byte	0x50
 2846 0018 9F       		.byte	0x9f
 2847 0019 00000000 		.4byte	0
 2848 001d 00000000 		.4byte	0
 2849              	.LLST1:
 2850 0021 0C000000 		.4byte	.LVL2-.Ltext0
 2851 0025 16000000 		.4byte	.LVL3-.Ltext0
 2852 0029 0100     		.2byte	0x1
 2853 002b 50       		.byte	0x50
 2854 002c 16000000 		.4byte	.LVL3-.Ltext0
 2855 0030 18000000 		.4byte	.LVL4-.Ltext0
 2856 0034 0400     		.2byte	0x4
 2857 0036 F3       		.byte	0xf3
 2858 0037 01       		.uleb128 0x1
 2859 0038 50       		.byte	0x50
 2860 0039 9F       		.byte	0x9f
 2861 003a 18000000 		.4byte	.LVL4-.Ltext0
 2862 003e 1C000000 		.4byte	.LVL5-.Ltext0
 2863 0042 0100     		.2byte	0x1
 2864 0044 50       		.byte	0x50
 2865 0045 1C000000 		.4byte	.LVL5-.Ltext0
 2866 0049 24000000 		.4byte	.LFE111-.Ltext0
 2867 004d 0400     		.2byte	0x4
 2868 004f F3       		.byte	0xf3
 2869 0050 01       		.uleb128 0x1
 2870 0051 50       		.byte	0x50
 2871 0052 9F       		.byte	0x9f
 2872 0053 00000000 		.4byte	0
 2873 0057 00000000 		.4byte	0
 2874              	.LLST2:
 2875 005b 24000000 		.4byte	.LVL6-.Ltext0
 2876 005f 2E000000 		.4byte	.LVL7-.Ltext0
 2877 0063 0100     		.2byte	0x1
 2878 0065 50       		.byte	0x50
 2879 0066 2E000000 		.4byte	.LVL7-.Ltext0
 2880 006a 30000000 		.4byte	.LVL8-.Ltext0
 2881 006e 0400     		.2byte	0x4
 2882 0070 F3       		.byte	0xf3
 2883 0071 01       		.uleb128 0x1
 2884 0072 50       		.byte	0x50
 2885 0073 9F       		.byte	0x9f
 2886 0074 30000000 		.4byte	.LVL8-.Ltext0
 2887 0078 34000000 		.4byte	.LVL9-.Ltext0
 2888 007c 0100     		.2byte	0x1
 2889 007e 50       		.byte	0x50
 2890 007f 34000000 		.4byte	.LVL9-.Ltext0
 2891 0083 3C000000 		.4byte	.LFE112-.Ltext0
 2892 0087 0400     		.2byte	0x4
 2893 0089 F3       		.byte	0xf3
 2894 008a 01       		.uleb128 0x1
 2895 008b 50       		.byte	0x50
 2896 008c 9F       		.byte	0x9f
 2897 008d 00000000 		.4byte	0
 2898 0091 00000000 		.4byte	0
ARM GAS  /tmp/cc4MBWm7.s 			page 72


 2899              	.LLST3:
 2900 0095 3C000000 		.4byte	.LVL10-.Ltext0
 2901 0099 46000000 		.4byte	.LVL11-.Ltext0
 2902 009d 0100     		.2byte	0x1
 2903 009f 50       		.byte	0x50
 2904 00a0 46000000 		.4byte	.LVL11-.Ltext0
 2905 00a4 48000000 		.4byte	.LVL12-.Ltext0
 2906 00a8 0400     		.2byte	0x4
 2907 00aa F3       		.byte	0xf3
 2908 00ab 01       		.uleb128 0x1
 2909 00ac 50       		.byte	0x50
 2910 00ad 9F       		.byte	0x9f
 2911 00ae 48000000 		.4byte	.LVL12-.Ltext0
 2912 00b2 4C000000 		.4byte	.LVL13-.Ltext0
 2913 00b6 0100     		.2byte	0x1
 2914 00b8 50       		.byte	0x50
 2915 00b9 4C000000 		.4byte	.LVL13-.Ltext0
 2916 00bd 54000000 		.4byte	.LFE113-.Ltext0
 2917 00c1 0400     		.2byte	0x4
 2918 00c3 F3       		.byte	0xf3
 2919 00c4 01       		.uleb128 0x1
 2920 00c5 50       		.byte	0x50
 2921 00c6 9F       		.byte	0x9f
 2922 00c7 00000000 		.4byte	0
 2923 00cb 00000000 		.4byte	0
 2924              	.LLST4:
 2925 00cf CC000000 		.4byte	.LVL14-.Ltext0
 2926 00d3 DA000000 		.4byte	.LVL15-.Ltext0
 2927 00d7 0100     		.2byte	0x1
 2928 00d9 50       		.byte	0x50
 2929 00da DA000000 		.4byte	.LVL15-.Ltext0
 2930 00de E4000000 		.4byte	.LFE129-.Ltext0
 2931 00e2 0400     		.2byte	0x4
 2932 00e4 F3       		.byte	0xf3
 2933 00e5 01       		.uleb128 0x1
 2934 00e6 50       		.byte	0x50
 2935 00e7 9F       		.byte	0x9f
 2936 00e8 00000000 		.4byte	0
 2937 00ec 00000000 		.4byte	0
 2938              	.LLST5:
 2939 00f0 00010000 		.4byte	.LVL16-.Ltext0
 2940 00f4 04010000 		.4byte	.LVL17-.Ltext0
 2941 00f8 0200     		.2byte	0x2
 2942 00fa 30       		.byte	0x30
 2943 00fb 9F       		.byte	0x9f
 2944 00fc 04010000 		.4byte	.LVL17-.Ltext0
 2945 0100 06010000 		.4byte	.LVL18-.Ltext0
 2946 0104 0900     		.2byte	0x9
 2947 0106 70       		.byte	0x70
 2948 0107 00       		.sleb128 0
 2949 0108 08       		.byte	0x8
 2950 0109 FF       		.byte	0xff
 2951 010a 1A       		.byte	0x1a
 2952 010b 08       		.byte	0x8
 2953 010c AA       		.byte	0xaa
 2954 010d 2E       		.byte	0x2e
 2955 010e 9F       		.byte	0x9f
ARM GAS  /tmp/cc4MBWm7.s 			page 73


 2956 010f 06010000 		.4byte	.LVL18-.Ltext0
 2957 0113 0A010000 		.4byte	.LVL19-.Ltext0
 2958 0117 0A00     		.2byte	0xa
 2959 0119 70       		.byte	0x70
 2960 011a AA01     		.sleb128 170
 2961 011c 08       		.byte	0x8
 2962 011d FF       		.byte	0xff
 2963 011e 1A       		.byte	0x1a
 2964 011f 08       		.byte	0x8
 2965 0120 AA       		.byte	0xaa
 2966 0121 2E       		.byte	0x2e
 2967 0122 9F       		.byte	0x9f
 2968 0123 00000000 		.4byte	0
 2969 0127 00000000 		.4byte	0
 2970              	.LLST6:
 2971 012b 20010000 		.4byte	.LVL20-.Ltext0
 2972 012f 28010000 		.4byte	.LVL21-.Ltext0
 2973 0133 0100     		.2byte	0x1
 2974 0135 50       		.byte	0x50
 2975 0136 28010000 		.4byte	.LVL21-.Ltext0
 2976 013a 2A010000 		.4byte	.LVL22-.Ltext0
 2977 013e 0400     		.2byte	0x4
 2978 0140 F3       		.byte	0xf3
 2979 0141 01       		.uleb128 0x1
 2980 0142 50       		.byte	0x50
 2981 0143 9F       		.byte	0x9f
 2982 0144 2A010000 		.4byte	.LVL22-.Ltext0
 2983 0148 2E010000 		.4byte	.LVL23-.Ltext0
 2984 014c 0100     		.2byte	0x1
 2985 014e 50       		.byte	0x50
 2986 014f 2E010000 		.4byte	.LVL23-.Ltext0
 2987 0153 38010000 		.4byte	.LFE135-.Ltext0
 2988 0157 0400     		.2byte	0x4
 2989 0159 F3       		.byte	0xf3
 2990 015a 01       		.uleb128 0x1
 2991 015b 50       		.byte	0x50
 2992 015c 9F       		.byte	0x9f
 2993 015d 00000000 		.4byte	0
 2994 0161 00000000 		.4byte	0
 2995              	.LLST7:
 2996 0165 38010000 		.4byte	.LVL24-.Ltext0
 2997 0169 44010000 		.4byte	.LVL26-.Ltext0
 2998 016d 0100     		.2byte	0x1
 2999 016f 50       		.byte	0x50
 3000 0170 44010000 		.4byte	.LVL26-.Ltext0
 3001 0174 4C010000 		.4byte	.LFE136-.Ltext0
 3002 0178 0400     		.2byte	0x4
 3003 017a F3       		.byte	0xf3
 3004 017b 01       		.uleb128 0x1
 3005 017c 50       		.byte	0x50
 3006 017d 9F       		.byte	0x9f
 3007 017e 00000000 		.4byte	0
 3008 0182 00000000 		.4byte	0
 3009              	.LLST8:
 3010 0186 38010000 		.4byte	.LVL24-.Ltext0
 3011 018a 3C010000 		.4byte	.LVL25-.Ltext0
 3012 018e 0200     		.2byte	0x2
ARM GAS  /tmp/cc4MBWm7.s 			page 74


 3013 0190 30       		.byte	0x30
 3014 0191 9F       		.byte	0x9f
 3015 0192 3C010000 		.4byte	.LVL25-.Ltext0
 3016 0196 44010000 		.4byte	.LVL26-.Ltext0
 3017 019a 0800     		.2byte	0x8
 3018 019c 70       		.byte	0x70
 3019 019d 00       		.sleb128 0
 3020 019e 71       		.byte	0x71
 3021 019f 00       		.sleb128 0
 3022 01a0 1A       		.byte	0x1a
 3023 01a1 30       		.byte	0x30
 3024 01a2 2E       		.byte	0x2e
 3025 01a3 9F       		.byte	0x9f
 3026 01a4 44010000 		.4byte	.LVL26-.Ltext0
 3027 01a8 4C010000 		.4byte	.LFE136-.Ltext0
 3028 01ac 0900     		.2byte	0x9
 3029 01ae F3       		.byte	0xf3
 3030 01af 01       		.uleb128 0x1
 3031 01b0 50       		.byte	0x50
 3032 01b1 71       		.byte	0x71
 3033 01b2 00       		.sleb128 0
 3034 01b3 1A       		.byte	0x1a
 3035 01b4 30       		.byte	0x30
 3036 01b5 2E       		.byte	0x2e
 3037 01b6 9F       		.byte	0x9f
 3038 01b7 00000000 		.4byte	0
 3039 01bb 00000000 		.4byte	0
 3040              	.LLST9:
 3041 01bf 58010000 		.4byte	.LVL28-.Ltext0
 3042 01c3 86010000 		.4byte	.LVL29-.Ltext0
 3043 01c7 0200     		.2byte	0x2
 3044 01c9 38       		.byte	0x38
 3045 01ca 9F       		.byte	0x9f
 3046 01cb 86010000 		.4byte	.LVL29-.Ltext0
 3047 01cf 8C010000 		.4byte	.LFE138-.Ltext0
 3048 01d3 0100     		.2byte	0x1
 3049 01d5 50       		.byte	0x50
 3050 01d6 00000000 		.4byte	0
 3051 01da 00000000 		.4byte	0
 3052              	.LLST10:
 3053 01de 8C010000 		.4byte	.LFB139-.Ltext0
 3054 01e2 8E010000 		.4byte	.LCFI0-.Ltext0
 3055 01e6 0200     		.2byte	0x2
 3056 01e8 7D       		.byte	0x7d
 3057 01e9 00       		.sleb128 0
 3058 01ea 8E010000 		.4byte	.LCFI0-.Ltext0
 3059 01ee AA010000 		.4byte	.LFE139-.Ltext0
 3060 01f2 0200     		.2byte	0x2
 3061 01f4 7D       		.byte	0x7d
 3062 01f5 10       		.sleb128 16
 3063 01f6 00000000 		.4byte	0
 3064 01fa 00000000 		.4byte	0
 3065              	.LLST11:
 3066 01fe 94010000 		.4byte	.LVL30-.Ltext0
 3067 0202 A0010000 		.4byte	.LVL32-.Ltext0
 3068 0206 0200     		.2byte	0x2
 3069 0208 91       		.byte	0x91
ARM GAS  /tmp/cc4MBWm7.s 			page 75


 3070 0209 77       		.sleb128 -9
 3071 020a A0010000 		.4byte	.LVL32-.Ltext0
 3072 020e A8010000 		.4byte	.LVL34-.Ltext0
 3073 0212 0100     		.2byte	0x1
 3074 0214 50       		.byte	0x50
 3075 0215 00000000 		.4byte	0
 3076 0219 00000000 		.4byte	0
 3077              	.LLST12:
 3078 021d BC010000 		.4byte	.LFB128-.Ltext0
 3079 0221 BE010000 		.4byte	.LCFI1-.Ltext0
 3080 0225 0200     		.2byte	0x2
 3081 0227 7D       		.byte	0x7d
 3082 0228 00       		.sleb128 0
 3083 0229 BE010000 		.4byte	.LCFI1-.Ltext0
 3084 022d E4010000 		.4byte	.LFE128-.Ltext0
 3085 0231 0200     		.2byte	0x2
 3086 0233 7D       		.byte	0x7d
 3087 0234 10       		.sleb128 16
 3088 0235 00000000 		.4byte	0
 3089 0239 00000000 		.4byte	0
 3090              	.LLST13:
 3091 023d BC010000 		.4byte	.LVL37-.Ltext0
 3092 0241 C7010000 		.4byte	.LVL38-1-.Ltext0
 3093 0245 0100     		.2byte	0x1
 3094 0247 50       		.byte	0x50
 3095 0248 C7010000 		.4byte	.LVL38-1-.Ltext0
 3096 024c E4010000 		.4byte	.LFE128-.Ltext0
 3097 0250 0400     		.2byte	0x4
 3098 0252 F3       		.byte	0xf3
 3099 0253 01       		.uleb128 0x1
 3100 0254 50       		.byte	0x50
 3101 0255 9F       		.byte	0x9f
 3102 0256 00000000 		.4byte	0
 3103 025a 00000000 		.4byte	0
 3104              	.LLST14:
 3105 025e BC010000 		.4byte	.LVL37-.Ltext0
 3106 0262 C7010000 		.4byte	.LVL38-1-.Ltext0
 3107 0266 0100     		.2byte	0x1
 3108 0268 51       		.byte	0x51
 3109 0269 C7010000 		.4byte	.LVL38-1-.Ltext0
 3110 026d E4010000 		.4byte	.LFE128-.Ltext0
 3111 0271 0400     		.2byte	0x4
 3112 0273 F3       		.byte	0xf3
 3113 0274 01       		.uleb128 0x1
 3114 0275 51       		.byte	0x51
 3115 0276 9F       		.byte	0x9f
 3116 0277 00000000 		.4byte	0
 3117 027b 00000000 		.4byte	0
 3118              	.LLST15:
 3119 027f BC010000 		.4byte	.LVL37-.Ltext0
 3120 0283 C7010000 		.4byte	.LVL38-1-.Ltext0
 3121 0287 0100     		.2byte	0x1
 3122 0289 52       		.byte	0x52
 3123 028a C7010000 		.4byte	.LVL38-1-.Ltext0
 3124 028e E4010000 		.4byte	.LFE128-.Ltext0
 3125 0292 0400     		.2byte	0x4
 3126 0294 F3       		.byte	0xf3
ARM GAS  /tmp/cc4MBWm7.s 			page 76


 3127 0295 01       		.uleb128 0x1
 3128 0296 52       		.byte	0x52
 3129 0297 9F       		.byte	0x9f
 3130 0298 00000000 		.4byte	0
 3131 029c 00000000 		.4byte	0
 3132              	.LLST16:
 3133 02a0 BC010000 		.4byte	.LVL37-.Ltext0
 3134 02a4 D0010000 		.4byte	.LVL39-.Ltext0
 3135 02a8 0300     		.2byte	0x3
 3136 02aa 09       		.byte	0x9
 3137 02ab FF       		.byte	0xff
 3138 02ac 9F       		.byte	0x9f
 3139 02ad D0010000 		.4byte	.LVL39-.Ltext0
 3140 02b1 DC010000 		.4byte	.LVL41-.Ltext0
 3141 02b5 0500     		.2byte	0x5
 3142 02b7 72       		.byte	0x72
 3143 02b8 00       		.sleb128 0
 3144 02b9 3F       		.byte	0x3f
 3145 02ba 1A       		.byte	0x1a
 3146 02bb 9F       		.byte	0x9f
 3147 02bc 00000000 		.4byte	0
 3148 02c0 00000000 		.4byte	0
 3149              	.LLST17:
 3150 02c4 BC010000 		.4byte	.LVL37-.Ltext0
 3151 02c8 C8010000 		.4byte	.LVL38-.Ltext0
 3152 02cc 0200     		.2byte	0x2
 3153 02ce 38       		.byte	0x38
 3154 02cf 9F       		.byte	0x9f
 3155 02d0 C8010000 		.4byte	.LVL38-.Ltext0
 3156 02d4 D4010000 		.4byte	.LVL40-.Ltext0
 3157 02d8 0100     		.2byte	0x1
 3158 02da 50       		.byte	0x50
 3159 02db 00000000 		.4byte	0
 3160 02df 00000000 		.4byte	0
 3161              	.LLST18:
 3162 02e3 E4010000 		.4byte	.LFB127-.Ltext0
 3163 02e7 E6010000 		.4byte	.LCFI2-.Ltext0
 3164 02eb 0200     		.2byte	0x2
 3165 02ed 7D       		.byte	0x7d
 3166 02ee 00       		.sleb128 0
 3167 02ef E6010000 		.4byte	.LCFI2-.Ltext0
 3168 02f3 FC010000 		.4byte	.LFE127-.Ltext0
 3169 02f7 0200     		.2byte	0x2
 3170 02f9 7D       		.byte	0x7d
 3171 02fa 08       		.sleb128 8
 3172 02fb 00000000 		.4byte	0
 3173 02ff 00000000 		.4byte	0
 3174              	.LLST19:
 3175 0303 E4010000 		.4byte	.LVL42-.Ltext0
 3176 0307 EB010000 		.4byte	.LVL43-1-.Ltext0
 3177 030b 0100     		.2byte	0x1
 3178 030d 50       		.byte	0x50
 3179 030e EB010000 		.4byte	.LVL43-1-.Ltext0
 3180 0312 FC010000 		.4byte	.LFE127-.Ltext0
 3181 0316 0400     		.2byte	0x4
 3182 0318 F3       		.byte	0xf3
 3183 0319 01       		.uleb128 0x1
ARM GAS  /tmp/cc4MBWm7.s 			page 77


 3184 031a 50       		.byte	0x50
 3185 031b 9F       		.byte	0x9f
 3186 031c 00000000 		.4byte	0
 3187 0320 00000000 		.4byte	0
 3188              	.LLST20:
 3189 0324 E4010000 		.4byte	.LVL42-.Ltext0
 3190 0328 EC010000 		.4byte	.LVL43-.Ltext0
 3191 032c 0200     		.2byte	0x2
 3192 032e 38       		.byte	0x38
 3193 032f 9F       		.byte	0x9f
 3194 0330 EC010000 		.4byte	.LVL43-.Ltext0
 3195 0334 FC010000 		.4byte	.LFE127-.Ltext0
 3196 0338 0100     		.2byte	0x1
 3197 033a 50       		.byte	0x50
 3198 033b 00000000 		.4byte	0
 3199 033f 00000000 		.4byte	0
 3200              	.LLST21:
 3201 0343 FC010000 		.4byte	.LFB126-.Ltext0
 3202 0347 FE010000 		.4byte	.LCFI3-.Ltext0
 3203 034b 0200     		.2byte	0x2
 3204 034d 7D       		.byte	0x7d
 3205 034e 00       		.sleb128 0
 3206 034f FE010000 		.4byte	.LCFI3-.Ltext0
 3207 0353 24020000 		.4byte	.LFE126-.Ltext0
 3208 0357 0200     		.2byte	0x2
 3209 0359 7D       		.byte	0x7d
 3210 035a 10       		.sleb128 16
 3211 035b 00000000 		.4byte	0
 3212 035f 00000000 		.4byte	0
 3213              	.LLST22:
 3214 0363 FC010000 		.4byte	.LVL44-.Ltext0
 3215 0367 05020000 		.4byte	.LVL45-1-.Ltext0
 3216 036b 0100     		.2byte	0x1
 3217 036d 50       		.byte	0x50
 3218 036e 05020000 		.4byte	.LVL45-1-.Ltext0
 3219 0372 16020000 		.4byte	.LVL47-.Ltext0
 3220 0376 0100     		.2byte	0x1
 3221 0378 54       		.byte	0x54
 3222 0379 16020000 		.4byte	.LVL47-.Ltext0
 3223 037d 18020000 		.4byte	.LVL48-.Ltext0
 3224 0381 0400     		.2byte	0x4
 3225 0383 F3       		.byte	0xf3
 3226 0384 01       		.uleb128 0x1
 3227 0385 50       		.byte	0x50
 3228 0386 9F       		.byte	0x9f
 3229 0387 18020000 		.4byte	.LVL48-.Ltext0
 3230 038b 1A020000 		.4byte	.LVL49-.Ltext0
 3231 038f 0100     		.2byte	0x1
 3232 0391 54       		.byte	0x54
 3233 0392 1A020000 		.4byte	.LVL49-.Ltext0
 3234 0396 24020000 		.4byte	.LFE126-.Ltext0
 3235 039a 0400     		.2byte	0x4
 3236 039c F3       		.byte	0xf3
 3237 039d 01       		.uleb128 0x1
 3238 039e 50       		.byte	0x50
 3239 039f 9F       		.byte	0x9f
 3240 03a0 00000000 		.4byte	0
ARM GAS  /tmp/cc4MBWm7.s 			page 78


 3241 03a4 00000000 		.4byte	0
 3242              	.LLST23:
 3243 03a8 FC010000 		.4byte	.LVL44-.Ltext0
 3244 03ac 05020000 		.4byte	.LVL45-1-.Ltext0
 3245 03b0 0100     		.2byte	0x1
 3246 03b2 51       		.byte	0x51
 3247 03b3 05020000 		.4byte	.LVL45-1-.Ltext0
 3248 03b7 24020000 		.4byte	.LFE126-.Ltext0
 3249 03bb 0400     		.2byte	0x4
 3250 03bd F3       		.byte	0xf3
 3251 03be 01       		.uleb128 0x1
 3252 03bf 51       		.byte	0x51
 3253 03c0 9F       		.byte	0x9f
 3254 03c1 00000000 		.4byte	0
 3255 03c5 00000000 		.4byte	0
 3256              	.LLST24:
 3257 03c9 FC010000 		.4byte	.LVL44-.Ltext0
 3258 03cd 06020000 		.4byte	.LVL45-.Ltext0
 3259 03d1 0200     		.2byte	0x2
 3260 03d3 38       		.byte	0x38
 3261 03d4 9F       		.byte	0x9f
 3262 03d5 06020000 		.4byte	.LVL45-.Ltext0
 3263 03d9 12020000 		.4byte	.LVL46-.Ltext0
 3264 03dd 0100     		.2byte	0x1
 3265 03df 50       		.byte	0x50
 3266 03e0 18020000 		.4byte	.LVL48-.Ltext0
 3267 03e4 1C020000 		.4byte	.LVL50-.Ltext0
 3268 03e8 0100     		.2byte	0x1
 3269 03ea 50       		.byte	0x50
 3270 03eb 00000000 		.4byte	0
 3271 03ef 00000000 		.4byte	0
 3272              	.LLST25:
 3273 03f3 24020000 		.4byte	.LFB123-.Ltext0
 3274 03f7 26020000 		.4byte	.LCFI4-.Ltext0
 3275 03fb 0200     		.2byte	0x2
 3276 03fd 7D       		.byte	0x7d
 3277 03fe 00       		.sleb128 0
 3278 03ff 26020000 		.4byte	.LCFI4-.Ltext0
 3279 0403 5C020000 		.4byte	.LFE123-.Ltext0
 3280 0407 0200     		.2byte	0x2
 3281 0409 7D       		.byte	0x7d
 3282 040a 10       		.sleb128 16
 3283 040b 00000000 		.4byte	0
 3284 040f 00000000 		.4byte	0
 3285              	.LLST26:
 3286 0413 24020000 		.4byte	.LVL51-.Ltext0
 3287 0417 2D020000 		.4byte	.LVL52-1-.Ltext0
 3288 041b 0100     		.2byte	0x1
 3289 041d 50       		.byte	0x50
 3290 041e 2D020000 		.4byte	.LVL52-1-.Ltext0
 3291 0422 5C020000 		.4byte	.LFE123-.Ltext0
 3292 0426 0100     		.2byte	0x1
 3293 0428 55       		.byte	0x55
 3294 0429 00000000 		.4byte	0
 3295 042d 00000000 		.4byte	0
 3296              	.LLST27:
 3297 0431 24020000 		.4byte	.LVL51-.Ltext0
ARM GAS  /tmp/cc4MBWm7.s 			page 79


 3298 0435 2D020000 		.4byte	.LVL52-1-.Ltext0
 3299 0439 0100     		.2byte	0x1
 3300 043b 51       		.byte	0x51
 3301 043c 2D020000 		.4byte	.LVL52-1-.Ltext0
 3302 0440 5C020000 		.4byte	.LFE123-.Ltext0
 3303 0444 0400     		.2byte	0x4
 3304 0446 F3       		.byte	0xf3
 3305 0447 01       		.uleb128 0x1
 3306 0448 51       		.byte	0x51
 3307 0449 9F       		.byte	0x9f
 3308 044a 00000000 		.4byte	0
 3309 044e 00000000 		.4byte	0
 3310              	.LLST28:
 3311 0452 24020000 		.4byte	.LVL51-.Ltext0
 3312 0456 2E020000 		.4byte	.LVL52-.Ltext0
 3313 045a 0200     		.2byte	0x2
 3314 045c 38       		.byte	0x38
 3315 045d 9F       		.byte	0x9f
 3316 045e 2E020000 		.4byte	.LVL52-.Ltext0
 3317 0462 3A020000 		.4byte	.LVL53-.Ltext0
 3318 0466 0100     		.2byte	0x1
 3319 0468 50       		.byte	0x50
 3320 0469 4E020000 		.4byte	.LVL54-.Ltext0
 3321 046d 5C020000 		.4byte	.LFE123-.Ltext0
 3322 0471 0100     		.2byte	0x1
 3323 0473 50       		.byte	0x50
 3324 0474 00000000 		.4byte	0
 3325 0478 00000000 		.4byte	0
 3326              	.LLST29:
 3327 047c 5C020000 		.4byte	.LFB122-.Ltext0
 3328 0480 5E020000 		.4byte	.LCFI5-.Ltext0
 3329 0484 0200     		.2byte	0x2
 3330 0486 7D       		.byte	0x7d
 3331 0487 00       		.sleb128 0
 3332 0488 5E020000 		.4byte	.LCFI5-.Ltext0
 3333 048c 98020000 		.4byte	.LFE122-.Ltext0
 3334 0490 0200     		.2byte	0x2
 3335 0492 7D       		.byte	0x7d
 3336 0493 10       		.sleb128 16
 3337 0494 00000000 		.4byte	0
 3338 0498 00000000 		.4byte	0
 3339              	.LLST30:
 3340 049c 5C020000 		.4byte	.LVL56-.Ltext0
 3341 04a0 65020000 		.4byte	.LVL57-1-.Ltext0
 3342 04a4 0100     		.2byte	0x1
 3343 04a6 50       		.byte	0x50
 3344 04a7 65020000 		.4byte	.LVL57-1-.Ltext0
 3345 04ab 98020000 		.4byte	.LFE122-.Ltext0
 3346 04af 0100     		.2byte	0x1
 3347 04b1 55       		.byte	0x55
 3348 04b2 00000000 		.4byte	0
 3349 04b6 00000000 		.4byte	0
 3350              	.LLST31:
 3351 04ba 5C020000 		.4byte	.LVL56-.Ltext0
 3352 04be 65020000 		.4byte	.LVL57-1-.Ltext0
 3353 04c2 0100     		.2byte	0x1
 3354 04c4 51       		.byte	0x51
ARM GAS  /tmp/cc4MBWm7.s 			page 80


 3355 04c5 65020000 		.4byte	.LVL57-1-.Ltext0
 3356 04c9 98020000 		.4byte	.LFE122-.Ltext0
 3357 04cd 0400     		.2byte	0x4
 3358 04cf F3       		.byte	0xf3
 3359 04d0 01       		.uleb128 0x1
 3360 04d1 51       		.byte	0x51
 3361 04d2 9F       		.byte	0x9f
 3362 04d3 00000000 		.4byte	0
 3363 04d7 00000000 		.4byte	0
 3364              	.LLST32:
 3365 04db 5C020000 		.4byte	.LVL56-.Ltext0
 3366 04df 66020000 		.4byte	.LVL57-.Ltext0
 3367 04e3 0200     		.2byte	0x2
 3368 04e5 38       		.byte	0x38
 3369 04e6 9F       		.byte	0x9f
 3370 04e7 66020000 		.4byte	.LVL57-.Ltext0
 3371 04eb 72020000 		.4byte	.LVL58-.Ltext0
 3372 04ef 0100     		.2byte	0x1
 3373 04f1 50       		.byte	0x50
 3374 04f2 8A020000 		.4byte	.LVL59-.Ltext0
 3375 04f6 98020000 		.4byte	.LFE122-.Ltext0
 3376 04fa 0100     		.2byte	0x1
 3377 04fc 50       		.byte	0x50
 3378 04fd 00000000 		.4byte	0
 3379 0501 00000000 		.4byte	0
 3380              	.LLST33:
 3381 0505 98020000 		.4byte	.LFB121-.Ltext0
 3382 0509 9A020000 		.4byte	.LCFI6-.Ltext0
 3383 050d 0200     		.2byte	0x2
 3384 050f 7D       		.byte	0x7d
 3385 0510 00       		.sleb128 0
 3386 0511 9A020000 		.4byte	.LCFI6-.Ltext0
 3387 0515 D4020000 		.4byte	.LFE121-.Ltext0
 3388 0519 0200     		.2byte	0x2
 3389 051b 7D       		.byte	0x7d
 3390 051c 10       		.sleb128 16
 3391 051d 00000000 		.4byte	0
 3392 0521 00000000 		.4byte	0
 3393              	.LLST34:
 3394 0525 98020000 		.4byte	.LVL61-.Ltext0
 3395 0529 A1020000 		.4byte	.LVL62-1-.Ltext0
 3396 052d 0100     		.2byte	0x1
 3397 052f 50       		.byte	0x50
 3398 0530 A1020000 		.4byte	.LVL62-1-.Ltext0
 3399 0534 D4020000 		.4byte	.LFE121-.Ltext0
 3400 0538 0100     		.2byte	0x1
 3401 053a 55       		.byte	0x55
 3402 053b 00000000 		.4byte	0
 3403 053f 00000000 		.4byte	0
 3404              	.LLST35:
 3405 0543 98020000 		.4byte	.LVL61-.Ltext0
 3406 0547 A1020000 		.4byte	.LVL62-1-.Ltext0
 3407 054b 0100     		.2byte	0x1
 3408 054d 51       		.byte	0x51
 3409 054e A1020000 		.4byte	.LVL62-1-.Ltext0
 3410 0552 D4020000 		.4byte	.LFE121-.Ltext0
 3411 0556 0100     		.2byte	0x1
ARM GAS  /tmp/cc4MBWm7.s 			page 81


 3412 0558 56       		.byte	0x56
 3413 0559 00000000 		.4byte	0
 3414 055d 00000000 		.4byte	0
 3415              	.LLST36:
 3416 0561 98020000 		.4byte	.LVL61-.Ltext0
 3417 0565 A2020000 		.4byte	.LVL62-.Ltext0
 3418 0569 0200     		.2byte	0x2
 3419 056b 38       		.byte	0x38
 3420 056c 9F       		.byte	0x9f
 3421 056d A2020000 		.4byte	.LVL62-.Ltext0
 3422 0571 AE020000 		.4byte	.LVL63-.Ltext0
 3423 0575 0100     		.2byte	0x1
 3424 0577 50       		.byte	0x50
 3425 0578 C6020000 		.4byte	.LVL64-.Ltext0
 3426 057c D4020000 		.4byte	.LFE121-.Ltext0
 3427 0580 0100     		.2byte	0x1
 3428 0582 50       		.byte	0x50
 3429 0583 00000000 		.4byte	0
 3430 0587 00000000 		.4byte	0
 3431              	.LLST37:
 3432 058b D4020000 		.4byte	.LFB120-.Ltext0
 3433 058f D6020000 		.4byte	.LCFI7-.Ltext0
 3434 0593 0200     		.2byte	0x2
 3435 0595 7D       		.byte	0x7d
 3436 0596 00       		.sleb128 0
 3437 0597 D6020000 		.4byte	.LCFI7-.Ltext0
 3438 059b 14030000 		.4byte	.LFE120-.Ltext0
 3439 059f 0200     		.2byte	0x2
 3440 05a1 7D       		.byte	0x7d
 3441 05a2 18       		.sleb128 24
 3442 05a3 00000000 		.4byte	0
 3443 05a7 00000000 		.4byte	0
 3444              	.LLST38:
 3445 05ab D4020000 		.4byte	.LVL66-.Ltext0
 3446 05af DF020000 		.4byte	.LVL67-1-.Ltext0
 3447 05b3 0100     		.2byte	0x1
 3448 05b5 50       		.byte	0x50
 3449 05b6 DF020000 		.4byte	.LVL67-1-.Ltext0
 3450 05ba 14030000 		.4byte	.LFE120-.Ltext0
 3451 05be 0100     		.2byte	0x1
 3452 05c0 57       		.byte	0x57
 3453 05c1 00000000 		.4byte	0
 3454 05c5 00000000 		.4byte	0
 3455              	.LLST39:
 3456 05c9 D4020000 		.4byte	.LVL66-.Ltext0
 3457 05cd DF020000 		.4byte	.LVL67-1-.Ltext0
 3458 05d1 0600     		.2byte	0x6
 3459 05d3 52       		.byte	0x52
 3460 05d4 93       		.byte	0x93
 3461 05d5 04       		.uleb128 0x4
 3462 05d6 53       		.byte	0x53
 3463 05d7 93       		.byte	0x93
 3464 05d8 04       		.uleb128 0x4
 3465 05d9 DF020000 		.4byte	.LVL67-1-.Ltext0
 3466 05dd 14030000 		.4byte	.LFE120-.Ltext0
 3467 05e1 0600     		.2byte	0x6
 3468 05e3 F3       		.byte	0xf3
ARM GAS  /tmp/cc4MBWm7.s 			page 82


 3469 05e4 03       		.uleb128 0x3
 3470 05e5 F5       		.byte	0xf5
 3471 05e6 02       		.uleb128 0x2
 3472 05e7 25       		.uleb128 0x25
 3473 05e8 9F       		.byte	0x9f
 3474 05e9 00000000 		.4byte	0
 3475 05ed 00000000 		.4byte	0
 3476              	.LLST40:
 3477 05f1 D4020000 		.4byte	.LVL66-.Ltext0
 3478 05f5 E0020000 		.4byte	.LVL67-.Ltext0
 3479 05f9 0200     		.2byte	0x2
 3480 05fb 38       		.byte	0x38
 3481 05fc 9F       		.byte	0x9f
 3482 05fd E0020000 		.4byte	.LVL67-.Ltext0
 3483 0601 EC020000 		.4byte	.LVL68-.Ltext0
 3484 0605 0100     		.2byte	0x1
 3485 0607 50       		.byte	0x50
 3486 0608 06030000 		.4byte	.LVL69-.Ltext0
 3487 060c 14030000 		.4byte	.LFE120-.Ltext0
 3488 0610 0100     		.2byte	0x1
 3489 0612 50       		.byte	0x50
 3490 0613 00000000 		.4byte	0
 3491 0617 00000000 		.4byte	0
 3492              	.LLST41:
 3493 061b 14030000 		.4byte	.LFB119-.Ltext0
 3494 061f 16030000 		.4byte	.LCFI8-.Ltext0
 3495 0623 0200     		.2byte	0x2
 3496 0625 7D       		.byte	0x7d
 3497 0626 00       		.sleb128 0
 3498 0627 16030000 		.4byte	.LCFI8-.Ltext0
 3499 062b 70030000 		.4byte	.LFE119-.Ltext0
 3500 062f 0200     		.2byte	0x2
 3501 0631 7D       		.byte	0x7d
 3502 0632 08       		.sleb128 8
 3503 0633 00000000 		.4byte	0
 3504 0637 00000000 		.4byte	0
 3505              	.LLST42:
 3506 063b 14030000 		.4byte	.LVL71-.Ltext0
 3507 063f 1B030000 		.4byte	.LVL72-1-.Ltext0
 3508 0643 0100     		.2byte	0x1
 3509 0645 50       		.byte	0x50
 3510 0646 1B030000 		.4byte	.LVL72-1-.Ltext0
 3511 064a 70030000 		.4byte	.LFE119-.Ltext0
 3512 064e 0400     		.2byte	0x4
 3513 0650 F3       		.byte	0xf3
 3514 0651 01       		.uleb128 0x1
 3515 0652 50       		.byte	0x50
 3516 0653 9F       		.byte	0x9f
 3517 0654 00000000 		.4byte	0
 3518 0658 00000000 		.4byte	0
 3519              	.LLST43:
 3520 065c 14030000 		.4byte	.LVL71-.Ltext0
 3521 0660 38030000 		.4byte	.LVL73-.Ltext0
 3522 0664 0200     		.2byte	0x2
 3523 0666 30       		.byte	0x30
 3524 0667 9F       		.byte	0x9f
 3525 0668 38030000 		.4byte	.LVL73-.Ltext0
ARM GAS  /tmp/cc4MBWm7.s 			page 83


 3526 066c 4A030000 		.4byte	.LVL75-.Ltext0
 3527 0670 0100     		.2byte	0x1
 3528 0672 53       		.byte	0x53
 3529 0673 00000000 		.4byte	0
 3530 0677 00000000 		.4byte	0
 3531              	.LLST44:
 3532 067b 14030000 		.4byte	.LVL71-.Ltext0
 3533 067f 1C030000 		.4byte	.LVL72-.Ltext0
 3534 0683 0200     		.2byte	0x2
 3535 0685 38       		.byte	0x38
 3536 0686 9F       		.byte	0x9f
 3537 0687 1C030000 		.4byte	.LVL72-.Ltext0
 3538 068b 44030000 		.4byte	.LVL74-.Ltext0
 3539 068f 0100     		.2byte	0x1
 3540 0691 50       		.byte	0x50
 3541 0692 60030000 		.4byte	.LVL76-.Ltext0
 3542 0696 70030000 		.4byte	.LFE119-.Ltext0
 3543 069a 0100     		.2byte	0x1
 3544 069c 50       		.byte	0x50
 3545 069d 00000000 		.4byte	0
 3546 06a1 00000000 		.4byte	0
 3547              	.LLST45:
 3548 06a5 70030000 		.4byte	.LFB118-.Ltext0
 3549 06a9 72030000 		.4byte	.LCFI9-.Ltext0
 3550 06ad 0200     		.2byte	0x2
 3551 06af 7D       		.byte	0x7d
 3552 06b0 00       		.sleb128 0
 3553 06b1 72030000 		.4byte	.LCFI9-.Ltext0
 3554 06b5 DC030000 		.4byte	.LFE118-.Ltext0
 3555 06b9 0200     		.2byte	0x2
 3556 06bb 7D       		.byte	0x7d
 3557 06bc 10       		.sleb128 16
 3558 06bd 00000000 		.4byte	0
 3559 06c1 00000000 		.4byte	0
 3560              	.LLST46:
 3561 06c5 70030000 		.4byte	.LVL78-.Ltext0
 3562 06c9 93030000 		.4byte	.LVL80-1-.Ltext0
 3563 06cd 0100     		.2byte	0x1
 3564 06cf 50       		.byte	0x50
 3565 06d0 93030000 		.4byte	.LVL80-1-.Ltext0
 3566 06d4 B8030000 		.4byte	.LVL83-.Ltext0
 3567 06d8 0100     		.2byte	0x1
 3568 06da 56       		.byte	0x56
 3569 06db B8030000 		.4byte	.LVL83-.Ltext0
 3570 06df DC030000 		.4byte	.LFE118-.Ltext0
 3571 06e3 0400     		.2byte	0x4
 3572 06e5 F3       		.byte	0xf3
 3573 06e6 01       		.uleb128 0x1
 3574 06e7 50       		.byte	0x50
 3575 06e8 9F       		.byte	0x9f
 3576 06e9 00000000 		.4byte	0
 3577 06ed 00000000 		.4byte	0
 3578              	.LLST47:
 3579 06f1 70030000 		.4byte	.LVL78-.Ltext0
 3580 06f5 93030000 		.4byte	.LVL80-1-.Ltext0
 3581 06f9 0100     		.2byte	0x1
 3582 06fb 51       		.byte	0x51
ARM GAS  /tmp/cc4MBWm7.s 			page 84


 3583 06fc 93030000 		.4byte	.LVL80-1-.Ltext0
 3584 0700 DC030000 		.4byte	.LFE118-.Ltext0
 3585 0704 0400     		.2byte	0x4
 3586 0706 F3       		.byte	0xf3
 3587 0707 01       		.uleb128 0x1
 3588 0708 51       		.byte	0x51
 3589 0709 9F       		.byte	0x9f
 3590 070a 00000000 		.4byte	0
 3591 070e 00000000 		.4byte	0
 3592              	.LLST48:
 3593 0712 70030000 		.4byte	.LVL78-.Ltext0
 3594 0716 90030000 		.4byte	.LVL79-.Ltext0
 3595 071a 0200     		.2byte	0x2
 3596 071c 30       		.byte	0x30
 3597 071d 9F       		.byte	0x9f
 3598 071e 90030000 		.4byte	.LVL79-.Ltext0
 3599 0722 A6030000 		.4byte	.LVL82-.Ltext0
 3600 0726 0100     		.2byte	0x1
 3601 0728 55       		.byte	0x55
 3602 0729 00000000 		.4byte	0
 3603 072d 00000000 		.4byte	0
 3604              	.LLST49:
 3605 0731 70030000 		.4byte	.LVL78-.Ltext0
 3606 0735 94030000 		.4byte	.LVL80-.Ltext0
 3607 0739 0200     		.2byte	0x2
 3608 073b 38       		.byte	0x38
 3609 073c 9F       		.byte	0x9f
 3610 073d 94030000 		.4byte	.LVL80-.Ltext0
 3611 0741 A0030000 		.4byte	.LVL81-.Ltext0
 3612 0745 0100     		.2byte	0x1
 3613 0747 50       		.byte	0x50
 3614 0748 C6030000 		.4byte	.LVL84-.Ltext0
 3615 074c DC030000 		.4byte	.LFE118-.Ltext0
 3616 0750 0100     		.2byte	0x1
 3617 0752 50       		.byte	0x50
 3618 0753 00000000 		.4byte	0
 3619 0757 00000000 		.4byte	0
 3620              		.section	.debug_aranges,"",%progbits
 3621 0000 1C000000 		.4byte	0x1c
 3622 0004 0200     		.2byte	0x2
 3623 0006 00000000 		.4byte	.Ldebug_info0
 3624 000a 04       		.byte	0x4
 3625 000b 00       		.byte	0
 3626 000c 0000     		.2byte	0
 3627 000e 0000     		.2byte	0
 3628 0010 00000000 		.4byte	.Ltext0
 3629 0014 DC030000 		.4byte	.Letext0-.Ltext0
 3630 0018 00000000 		.4byte	0
 3631 001c 00000000 		.4byte	0
 3632              		.section	.debug_line,"",%progbits
 3633              	.Ldebug_line0:
 3634 0000 1B030000 		.section	.debug_str,"MS",%progbits,1
 3634      02000002 
 3634      00000201 
 3634      FB0E0D00 
 3634      01010101 
 3635              	.LASF50:
ARM GAS  /tmp/cc4MBWm7.s 			page 85


 3636 0000 464C4153 		.ascii	"FLASH_ITConfig\000"
 3636      485F4954 
 3636      436F6E66 
 3636      696700
 3637              	.LASF76:
 3638 000f 464C4153 		.ascii	"FLASH_EraseAllSectors\000"
 3638      485F4572 
 3638      61736541 
 3638      6C6C5365 
 3638      63746F72 
 3639              	.LASF82:
 3640 0025 2E2E2F2E 		.ascii	"../../STM32F4-Discovery_FW_V1.1.0/Libraries/STM32F4"
 3640      2E2F5354 
 3640      4D333246 
 3640      342D4469 
 3640      73636F76 
 3641 0058 78785F53 		.ascii	"xx_StdPeriph_Driver/src/stm32f4xx_flash.c\000"
 3641      74645065 
 3641      72697068 
 3641      5F447269 
 3641      7665722F 
 3642              	.LASF67:
 3643 0082 4F425F52 		.ascii	"OB_RDP\000"
 3643      445000
 3644              	.LASF62:
 3645 0089 4F425F49 		.ascii	"OB_IWDG\000"
 3645      57444700 
 3646              	.LASF28:
 3647 0091 464C4153 		.ascii	"FLASH_ERROR_WRP\000"
 3647      485F4552 
 3647      524F525F 
 3647      57525000 
 3648              	.LASF12:
 3649 00a1 75696E74 		.ascii	"uint64_t\000"
 3649      36345F74 
 3649      00
 3650              	.LASF79:
 3651 00aa 464C4153 		.ascii	"FLASH_EraseSector\000"
 3651      485F4572 
 3651      61736553 
 3651      6563746F 
 3651      7200
 3652              	.LASF14:
 3653 00bc 73697A65 		.ascii	"sizetype\000"
 3653      74797065 
 3653      00
 3654              	.LASF51:
 3655 00c5 464C4153 		.ascii	"FLASH_IT\000"
 3655      485F4954 
 3655      00
 3656              	.LASF66:
 3657 00ce 464C4153 		.ascii	"FLASH_OB_RDPConfig\000"
 3657      485F4F42 
 3657      5F524450 
 3657      436F6E66 
 3657      696700
 3658              	.LASF48:
ARM GAS  /tmp/cc4MBWm7.s 			page 86


 3659 00e1 464C4153 		.ascii	"FLASH_OB_GetWRP\000"
 3659      485F4F42 
 3659      5F476574 
 3659      57525000 
 3660              	.LASF77:
 3661 00f1 566F6C74 		.ascii	"VoltageRange\000"
 3661      61676552 
 3661      616E6765 
 3661      00
 3662              	.LASF47:
 3663 00fe 464C4153 		.ascii	"FLASH_OB_GetUser\000"
 3663      485F4F42 
 3663      5F476574 
 3663      55736572 
 3663      00
 3664              	.LASF44:
 3665 010f 464C4153 		.ascii	"FLASH_OB_Lock\000"
 3665      485F4F42 
 3665      5F4C6F63 
 3665      6B00
 3666              	.LASF71:
 3667 011d 41646472 		.ascii	"Address\000"
 3667      65737300 
 3668              	.LASF75:
 3669 0125 464C4153 		.ascii	"FLASH_ProgramDoubleWord\000"
 3669      485F5072 
 3669      6F677261 
 3669      6D446F75 
 3669      626C6557 
 3670              	.LASF69:
 3671 013d 4F425F57 		.ascii	"OB_WRP\000"
 3671      525000
 3672              	.LASF3:
 3673 0144 73686F72 		.ascii	"short int\000"
 3673      7420696E 
 3673      7400
 3674              	.LASF61:
 3675 014e 464C4153 		.ascii	"FLASH_OB_UserConfig\000"
 3675      485F4F42 
 3675      5F557365 
 3675      72436F6E 
 3675      66696700 
 3676              	.LASF41:
 3677 0162 464C4153 		.ascii	"FLASH_Unlock\000"
 3677      485F556E 
 3677      6C6F636B 
 3677      00
 3678              	.LASF4:
 3679 016f 75696E74 		.ascii	"uint8_t\000"
 3679      385F7400 
 3680              	.LASF32:
 3681 0177 464C4153 		.ascii	"FLASH_Status\000"
 3681      485F5374 
 3681      61747573 
 3681      00
 3682              	.LASF78:
 3683 0184 746D705F 		.ascii	"tmp_psize\000"
ARM GAS  /tmp/cc4MBWm7.s 			page 87


 3683      7073697A 
 3683      6500
 3684              	.LASF36:
 3685 018e 4E657753 		.ascii	"NewState\000"
 3685      74617465 
 3685      00
 3686              	.LASF17:
 3687 0197 44495341 		.ascii	"DISABLE\000"
 3687      424C4500 
 3688              	.LASF37:
 3689 019f 464C4153 		.ascii	"FLASH_InstructionCacheCmd\000"
 3689      485F496E 
 3689      73747275 
 3689      6374696F 
 3689      6E436163 
 3690              	.LASF40:
 3691 01b9 464C4153 		.ascii	"FLASH_DataCacheReset\000"
 3691      485F4461 
 3691      74614361 
 3691      63686552 
 3691      65736574 
 3692              	.LASF21:
 3693 01ce 4F50544B 		.ascii	"OPTKEYR\000"
 3693      45595200 
 3694              	.LASF11:
 3695 01d6 6C6F6E67 		.ascii	"long long int\000"
 3695      206C6F6E 
 3695      6720696E 
 3695      7400
 3696              	.LASF8:
 3697 01e4 6C6F6E67 		.ascii	"long int\000"
 3697      20696E74 
 3697      00
 3698              	.LASF80:
 3699 01ed 464C4153 		.ascii	"FLASH_Sector\000"
 3699      485F5365 
 3699      63746F72 
 3699      00
 3700              	.LASF30:
 3701 01fa 464C4153 		.ascii	"FLASH_ERROR_OPERATION\000"
 3701      485F4552 
 3701      524F525F 
 3701      4F504552 
 3701      4154494F 
 3702              	.LASF85:
 3703 0210 666C6173 		.ascii	"flashstatus\000"
 3703      68737461 
 3703      74757300 
 3704              	.LASF39:
 3705 021c 464C4153 		.ascii	"FLASH_InstructionCacheReset\000"
 3705      485F496E 
 3705      73747275 
 3705      6374696F 
 3705      6E436163 
 3706              	.LASF72:
 3707 0238 44617461 		.ascii	"Data\000"
 3707      00
ARM GAS  /tmp/cc4MBWm7.s 			page 88


 3708              	.LASF60:
 3709 023d 464C4153 		.ascii	"FLASH_OB_Launch\000"
 3709      485F4F42 
 3709      5F4C6175 
 3709      6E636800 
 3710              	.LASF20:
 3711 024d 4B455952 		.ascii	"KEYR\000"
 3711      00
 3712              	.LASF2:
 3713 0252 756E7369 		.ascii	"unsigned char\000"
 3713      676E6564 
 3713      20636861 
 3713      7200
 3714              	.LASF42:
 3715 0260 464C4153 		.ascii	"FLASH_Lock\000"
 3715      485F4C6F 
 3715      636B00
 3716              	.LASF43:
 3717 026b 464C4153 		.ascii	"FLASH_OB_Unlock\000"
 3717      485F4F42 
 3717      5F556E6C 
 3717      6F636B00 
 3718              	.LASF34:
 3719 027b 464C4153 		.ascii	"FLASH_PrefetchBufferCmd\000"
 3719      485F5072 
 3719      65666574 
 3719      63684275 
 3719      66666572 
 3720              	.LASF1:
 3721 0293 7369676E 		.ascii	"signed char\000"
 3721      65642063 
 3721      68617200 
 3722              	.LASF53:
 3723 029f 464C4153 		.ascii	"FLASH_GetFlagStatus\000"
 3723      485F4765 
 3723      74466C61 
 3723      67537461 
 3723      74757300 
 3724              	.LASF0:
 3725 02b3 6C6F6E67 		.ascii	"long long unsigned int\000"
 3725      206C6F6E 
 3725      6720756E 
 3725      7369676E 
 3725      65642069 
 3726              	.LASF55:
 3727 02ca 72656164 		.ascii	"readstatus\000"
 3727      73746174 
 3727      757300
 3728              	.LASF9:
 3729 02d5 75696E74 		.ascii	"uint32_t\000"
 3729      33325F74 
 3729      00
 3730              	.LASF57:
 3731 02de 464C4153 		.ascii	"FLASH_ClearFlag\000"
 3731      485F436C 
 3731      65617246 
 3731      6C616700 
ARM GAS  /tmp/cc4MBWm7.s 			page 89


 3732              	.LASF13:
 3733 02ee 756E7369 		.ascii	"unsigned int\000"
 3733      676E6564 
 3733      20696E74 
 3733      00
 3734              	.LASF31:
 3735 02fb 464C4153 		.ascii	"FLASH_COMPLETE\000"
 3735      485F434F 
 3735      4D504C45 
 3735      544500
 3736              	.LASF24:
 3737 030a 464C4153 		.ascii	"FLASH_BUSY\000"
 3737      485F4255 
 3737      535900
 3738              	.LASF10:
 3739 0315 6C6F6E67 		.ascii	"long unsigned int\000"
 3739      20756E73 
 3739      69676E65 
 3739      6420696E 
 3739      7400
 3740              	.LASF6:
 3741 0327 73686F72 		.ascii	"short unsigned int\000"
 3741      7420756E 
 3741      7369676E 
 3741      65642069 
 3741      6E7400
 3742              	.LASF59:
 3743 033a 73746174 		.ascii	"status\000"
 3743      757300
 3744              	.LASF45:
 3745 0341 464C4153 		.ascii	"FLASH_OB_BORConfig\000"
 3745      485F4F42 
 3745      5F424F52 
 3745      436F6E66 
 3745      696700
 3746              	.LASF64:
 3747 0354 4F425F53 		.ascii	"OB_STDBY\000"
 3747      54444259 
 3747      00
 3748              	.LASF5:
 3749 035d 75696E74 		.ascii	"uint16_t\000"
 3749      31365F74 
 3749      00
 3750              	.LASF7:
 3751 0366 696E7433 		.ascii	"int32_t\000"
 3751      325F7400 
 3752              	.LASF84:
 3753 036e 464C4153 		.ascii	"FLASH_GetStatus\000"
 3753      485F4765 
 3753      74537461 
 3753      74757300 
 3754              	.LASF33:
 3755 037e 464C4153 		.ascii	"FLASH_SetLatency\000"
 3755      485F5365 
 3755      744C6174 
 3755      656E6379 
 3755      00
ARM GAS  /tmp/cc4MBWm7.s 			page 90


 3756              	.LASF15:
 3757 038f 52455345 		.ascii	"RESET\000"
 3757      5400
 3758              	.LASF73:
 3759 0395 464C4153 		.ascii	"FLASH_ProgramHalfWord\000"
 3759      485F5072 
 3759      6F677261 
 3759      6D48616C 
 3759      66576F72 
 3760              	.LASF54:
 3761 03ab 464C4153 		.ascii	"FLASH_FLAG\000"
 3761      485F464C 
 3761      414700
 3762              	.LASF81:
 3763 03b6 474E5520 		.ascii	"GNU C 4.7.3 20121207 (release) [ARM/embedded-4_7-br"
 3763      4320342E 
 3763      372E3320 
 3763      32303132 
 3763      31323037 
 3764 03e9 616E6368 		.ascii	"anch revision 194305]\000"
 3764      20726576 
 3764      6973696F 
 3764      6E203139 
 3764      34333035 
 3765              	.LASF49:
 3766 03ff 464C4153 		.ascii	"FLASH_OB_GetBOR\000"
 3766      485F4F42 
 3766      5F476574 
 3766      424F5200 
 3767              	.LASF19:
 3768 040f 46756E63 		.ascii	"FunctionalState\000"
 3768      74696F6E 
 3768      616C5374 
 3768      61746500 
 3769              	.LASF46:
 3770 041f 4F425F42 		.ascii	"OB_BOR\000"
 3770      4F5200
 3771              	.LASF68:
 3772 0426 464C4153 		.ascii	"FLASH_OB_WRPConfig\000"
 3772      485F4F42 
 3772      5F575250 
 3772      436F6E66 
 3772      696700
 3773              	.LASF70:
 3774 0439 464C4153 		.ascii	"FLASH_ProgramByte\000"
 3774      485F5072 
 3774      6F677261 
 3774      6D427974 
 3774      6500
 3775              	.LASF35:
 3776 044b 464C4153 		.ascii	"FLASH_Latency\000"
 3776      485F4C61 
 3776      74656E63 
 3776      7900
 3777              	.LASF29:
 3778 0459 464C4153 		.ascii	"FLASH_ERROR_PROGRAM\000"
 3778      485F4552 
ARM GAS  /tmp/cc4MBWm7.s 			page 91


 3778      524F525F 
 3778      50524F47 
 3778      52414D00 
 3779              	.LASF65:
 3780 046d 6F707469 		.ascii	"optiontmp\000"
 3780      6F6E746D 
 3780      7000
 3781              	.LASF83:
 3782 0477 2F686F6D 		.ascii	"/home/jarhmander/Code/CC/ARM/iotogglem4/iotogglem4\000"
 3782      652F6A61 
 3782      72686D61 
 3782      6E646572 
 3782      2F436F64 
 3783              	.LASF74:
 3784 04aa 464C4153 		.ascii	"FLASH_ProgramWord\000"
 3784      485F5072 
 3784      6F677261 
 3784      6D576F72 
 3784      6400
 3785              	.LASF27:
 3786 04bc 464C4153 		.ascii	"FLASH_ERROR_PGA\000"
 3786      485F4552 
 3786      524F525F 
 3786      50474100 
 3787              	.LASF38:
 3788 04cc 464C4153 		.ascii	"FLASH_DataCacheCmd\000"
 3788      485F4461 
 3788      74614361 
 3788      63686543 
 3788      6D6400
 3789              	.LASF25:
 3790 04df 464C4153 		.ascii	"FLASH_ERROR_PGS\000"
 3790      485F4552 
 3790      524F525F 
 3790      50475300 
 3791              	.LASF23:
 3792 04ef 464C4153 		.ascii	"FLASH_TypeDef\000"
 3792      485F5479 
 3792      70654465 
 3792      6600
 3793              	.LASF58:
 3794 04fd 464C4153 		.ascii	"FLASH_WaitForLastOperation\000"
 3794      485F5761 
 3794      6974466F 
 3794      724C6173 
 3794      744F7065 
 3795              	.LASF86:
 3796 0518 49544D5F 		.ascii	"ITM_RxBuffer\000"
 3796      52784275 
 3796      66666572 
 3796      00
 3797              	.LASF56:
 3798 0525 62697473 		.ascii	"bitstatus\000"
 3798      74617475 
 3798      7300
 3799              	.LASF63:
 3800 052f 4F425F53 		.ascii	"OB_STOP\000"
ARM GAS  /tmp/cc4MBWm7.s 			page 92


 3800      544F5000 
 3801              	.LASF26:
 3802 0537 464C4153 		.ascii	"FLASH_ERROR_PGP\000"
 3802      485F4552 
 3802      524F525F 
 3802      50475000 
 3803              	.LASF16:
 3804 0547 466C6167 		.ascii	"FlagStatus\000"
 3804      53746174 
 3804      757300
 3805              	.LASF22:
 3806 0552 4F505443 		.ascii	"OPTCR\000"
 3806      5200
 3807              	.LASF18:
 3808 0558 454E4142 		.ascii	"ENABLE\000"
 3808      4C4500
 3809              	.LASF52:
 3810 055f 464C4153 		.ascii	"FLASH_OB_GetRDP\000"
 3810      485F4F42 
 3810      5F476574 
 3810      52445000 
 3811              		.ident	"GCC: (GNU Tools for ARM Embedded Processors) 4.7.3 20121207 (release) [ARM/embedded-4_7-br
ARM GAS  /tmp/cc4MBWm7.s 			page 93


DEFINED SYMBOLS
                            *ABS*:00000000 stm32f4xx_flash.c
     /tmp/cc4MBWm7.s:73     .text:00000000 $t
     /tmp/cc4MBWm7.s:78     .text:00000000 FLASH_SetLatency
     /tmp/cc4MBWm7.s:96     .text:00000008 $d
     /tmp/cc4MBWm7.s:100    .text:0000000c $t
     /tmp/cc4MBWm7.s:105    .text:0000000c FLASH_PrefetchBufferCmd
     /tmp/cc4MBWm7.s:133    .text:00000020 $d
     /tmp/cc4MBWm7.s:137    .text:00000024 $t
     /tmp/cc4MBWm7.s:142    .text:00000024 FLASH_InstructionCacheCmd
     /tmp/cc4MBWm7.s:170    .text:00000038 $d
     /tmp/cc4MBWm7.s:174    .text:0000003c $t
     /tmp/cc4MBWm7.s:179    .text:0000003c FLASH_DataCacheCmd
     /tmp/cc4MBWm7.s:207    .text:00000050 $d
     /tmp/cc4MBWm7.s:211    .text:00000054 $t
     /tmp/cc4MBWm7.s:216    .text:00000054 FLASH_InstructionCacheReset
     /tmp/cc4MBWm7.s:232    .text:00000060 $d
     /tmp/cc4MBWm7.s:236    .text:00000064 $t
     /tmp/cc4MBWm7.s:241    .text:00000064 FLASH_DataCacheReset
     /tmp/cc4MBWm7.s:257    .text:00000070 $d
     /tmp/cc4MBWm7.s:261    .text:00000074 $t
     /tmp/cc4MBWm7.s:266    .text:00000074 FLASH_Unlock
     /tmp/cc4MBWm7.s:291    .text:00000088 $d
     /tmp/cc4MBWm7.s:296    .text:00000090 $t
     /tmp/cc4MBWm7.s:301    .text:00000090 FLASH_Lock
     /tmp/cc4MBWm7.s:317    .text:0000009c $d
     /tmp/cc4MBWm7.s:321    .text:000000a0 $t
     /tmp/cc4MBWm7.s:326    .text:000000a0 FLASH_OB_Unlock
     /tmp/cc4MBWm7.s:351    .text:000000b4 $d
     /tmp/cc4MBWm7.s:356    .text:000000bc $t
     /tmp/cc4MBWm7.s:361    .text:000000bc FLASH_OB_Lock
     /tmp/cc4MBWm7.s:377    .text:000000c8 $d
     /tmp/cc4MBWm7.s:381    .text:000000cc $t
     /tmp/cc4MBWm7.s:386    .text:000000cc FLASH_OB_BORConfig
     /tmp/cc4MBWm7.s:408    .text:000000e0 $d
     /tmp/cc4MBWm7.s:412    .text:000000e4 $t
     /tmp/cc4MBWm7.s:417    .text:000000e4 FLASH_OB_GetUser
     /tmp/cc4MBWm7.s:433    .text:000000f0 $d
     /tmp/cc4MBWm7.s:437    .text:000000f4 $t
     /tmp/cc4MBWm7.s:442    .text:000000f4 FLASH_OB_GetWRP
     /tmp/cc4MBWm7.s:458    .text:000000fc $d
     /tmp/cc4MBWm7.s:462    .text:00000100 $t
     /tmp/cc4MBWm7.s:467    .text:00000100 FLASH_OB_GetRDP
     /tmp/cc4MBWm7.s:489    .text:0000010c $d
     /tmp/cc4MBWm7.s:493    .text:00000110 $t
     /tmp/cc4MBWm7.s:498    .text:00000110 FLASH_OB_GetBOR
     /tmp/cc4MBWm7.s:514    .text:0000011c $d
     /tmp/cc4MBWm7.s:518    .text:00000120 $t
     /tmp/cc4MBWm7.s:523    .text:00000120 FLASH_ITConfig
     /tmp/cc4MBWm7.s:551    .text:00000134 $d
     /tmp/cc4MBWm7.s:555    .text:00000138 $t
     /tmp/cc4MBWm7.s:560    .text:00000138 FLASH_GetFlagStatus
     /tmp/cc4MBWm7.s:582    .text:00000148 $d
     /tmp/cc4MBWm7.s:586    .text:0000014c $t
     /tmp/cc4MBWm7.s:591    .text:0000014c FLASH_ClearFlag
     /tmp/cc4MBWm7.s:606    .text:00000154 $d
     /tmp/cc4MBWm7.s:610    .text:00000158 $t
ARM GAS  /tmp/cc4MBWm7.s 			page 94


     /tmp/cc4MBWm7.s:615    .text:00000158 FLASH_GetStatus
     /tmp/cc4MBWm7.s:665    .text:00000188 $d
     /tmp/cc4MBWm7.s:669    .text:0000018c $t
     /tmp/cc4MBWm7.s:674    .text:0000018c FLASH_WaitForLastOperation
     /tmp/cc4MBWm7.s:715    .text:000001aa FLASH_OB_Launch
     /tmp/cc4MBWm7.s:735    .text:000001b8 $d
     /tmp/cc4MBWm7.s:739    .text:000001bc $t
     /tmp/cc4MBWm7.s:744    .text:000001bc FLASH_OB_UserConfig
     /tmp/cc4MBWm7.s:785    .text:000001e0 $d
     /tmp/cc4MBWm7.s:789    .text:000001e4 $t
     /tmp/cc4MBWm7.s:794    .text:000001e4 FLASH_OB_RDPConfig
     /tmp/cc4MBWm7.s:821    .text:000001f8 $d
     /tmp/cc4MBWm7.s:825    .text:000001fc $t
     /tmp/cc4MBWm7.s:830    .text:000001fc FLASH_OB_WRPConfig
     /tmp/cc4MBWm7.s:878    .text:00000220 $d
     /tmp/cc4MBWm7.s:882    .text:00000224 $t
     /tmp/cc4MBWm7.s:887    .text:00000224 FLASH_ProgramByte
     /tmp/cc4MBWm7.s:939    .text:00000258 $d
     /tmp/cc4MBWm7.s:943    .text:0000025c $t
     /tmp/cc4MBWm7.s:948    .text:0000025c FLASH_ProgramHalfWord
     /tmp/cc4MBWm7.s:1001   .text:00000294 $d
     /tmp/cc4MBWm7.s:1005   .text:00000298 $t
     /tmp/cc4MBWm7.s:1010   .text:00000298 FLASH_ProgramWord
     /tmp/cc4MBWm7.s:1063   .text:000002d0 $d
     /tmp/cc4MBWm7.s:1067   .text:000002d4 $t
     /tmp/cc4MBWm7.s:1072   .text:000002d4 FLASH_ProgramDoubleWord
     /tmp/cc4MBWm7.s:1128   .text:00000310 $d
     /tmp/cc4MBWm7.s:1132   .text:00000314 $t
     /tmp/cc4MBWm7.s:1137   .text:00000314 FLASH_EraseAllSectors
     /tmp/cc4MBWm7.s:1210   .text:0000036c $d
     /tmp/cc4MBWm7.s:1214   .text:00000370 $t
     /tmp/cc4MBWm7.s:1219   .text:00000370 FLASH_EraseSector
     /tmp/cc4MBWm7.s:1304   .text:000003d8 $d
                     .debug_frame:00000010 $d

NO UNDEFINED SYMBOLS
